
UART_test2.elf:     file format elf32-littlearm

Sections:
Idx Name          Size      VMA       LMA       File off  Algn
  0 .isr_vector   00000298  08000000  08000000  00010000  2**0
                  CONTENTS, ALLOC, LOAD, READONLY, DATA
  1 .text         000069b0  08000298  08000298  00010298  2**3
                  CONTENTS, ALLOC, LOAD, READONLY, CODE
  2 .rodata       00000054  08006c48  08006c48  00016c48  2**2
                  CONTENTS, ALLOC, LOAD, READONLY, DATA
  3 .ARM          00000008  08006c9c  08006c9c  00016c9c  2**2
                  CONTENTS, ALLOC, LOAD, READONLY, DATA
  4 .init_array   00000004  08006ca4  08006ca4  00016ca4  2**2
                  CONTENTS, ALLOC, LOAD, DATA
  5 .fini_array   00000004  08006ca8  08006ca8  00016ca8  2**2
                  CONTENTS, ALLOC, LOAD, DATA
  6 .data         00000010  24000000  08006cac  00020000  2**2
                  CONTENTS, ALLOC, LOAD, DATA
  7 .bss          00009d18  24000020  08006cbc  00020020  2**5
                  ALLOC
  8 ._user_heap_stack 00000600  24009d38  08006cbc  00029d38  2**0
                  ALLOC
  9 .ARM.attributes 0000002e  00000000  00000000  00020010  2**0
                  CONTENTS, READONLY
 10 .comment      00000053  00000000  00000000  0002003e  2**0
                  CONTENTS, READONLY
 11 .debug_frame  000000ac  00000000  00000000  00020094  2**2
                  CONTENTS, READONLY, DEBUGGING, OCTETS

Disassembly of section .text:

08000298 <__do_global_dtors_aux>:
 8000298:	b510      	push	{r4, lr}
 800029a:	4c05      	ldr	r4, [pc, #20]	; (80002b0 <__do_global_dtors_aux+0x18>)
 800029c:	7823      	ldrb	r3, [r4, #0]
 800029e:	b933      	cbnz	r3, 80002ae <__do_global_dtors_aux+0x16>
 80002a0:	4b04      	ldr	r3, [pc, #16]	; (80002b4 <__do_global_dtors_aux+0x1c>)
 80002a2:	b113      	cbz	r3, 80002aa <__do_global_dtors_aux+0x12>
 80002a4:	4804      	ldr	r0, [pc, #16]	; (80002b8 <__do_global_dtors_aux+0x20>)
 80002a6:	f3af 8000 	nop.w
 80002aa:	2301      	movs	r3, #1
 80002ac:	7023      	strb	r3, [r4, #0]
 80002ae:	bd10      	pop	{r4, pc}
 80002b0:	24000020 	.word	0x24000020
 80002b4:	00000000 	.word	0x00000000
 80002b8:	08006c30 	.word	0x08006c30

080002bc <frame_dummy>:
 80002bc:	b508      	push	{r3, lr}
 80002be:	4b03      	ldr	r3, [pc, #12]	; (80002cc <frame_dummy+0x10>)
 80002c0:	b11b      	cbz	r3, 80002ca <frame_dummy+0xe>
 80002c2:	4903      	ldr	r1, [pc, #12]	; (80002d0 <frame_dummy+0x14>)
 80002c4:	4803      	ldr	r0, [pc, #12]	; (80002d4 <frame_dummy+0x18>)
 80002c6:	f3af 8000 	nop.w
 80002ca:	bd08      	pop	{r3, pc}
 80002cc:	00000000 	.word	0x00000000
 80002d0:	24000024 	.word	0x24000024
 80002d4:	08006c30 	.word	0x08006c30

080002d8 <__aeabi_uldivmod>:
 80002d8:	b953      	cbnz	r3, 80002f0 <__aeabi_uldivmod+0x18>
 80002da:	b94a      	cbnz	r2, 80002f0 <__aeabi_uldivmod+0x18>
 80002dc:	2900      	cmp	r1, #0
 80002de:	bf08      	it	eq
 80002e0:	2800      	cmpeq	r0, #0
 80002e2:	bf1c      	itt	ne
 80002e4:	f04f 31ff 	movne.w	r1, #4294967295
 80002e8:	f04f 30ff 	movne.w	r0, #4294967295
 80002ec:	f000 b96e 	b.w	80005cc <__aeabi_idiv0>
 80002f0:	f1ad 0c08 	sub.w	ip, sp, #8
 80002f4:	e96d ce04 	strd	ip, lr, [sp, #-16]!
 80002f8:	f000 f806 	bl	8000308 <__udivmoddi4>
 80002fc:	f8dd e004 	ldr.w	lr, [sp, #4]
 8000300:	e9dd 2302 	ldrd	r2, r3, [sp, #8]
 8000304:	b004      	add	sp, #16
 8000306:	4770      	bx	lr

08000308 <__udivmoddi4>:
 8000308:	e92d 47f0 	stmdb	sp!, {r4, r5, r6, r7, r8, r9, sl, lr}
 800030c:	9d08      	ldr	r5, [sp, #32]
 800030e:	4604      	mov	r4, r0
 8000310:	468c      	mov	ip, r1
 8000312:	2b00      	cmp	r3, #0
 8000314:	f040 8083 	bne.w	800041e <__udivmoddi4+0x116>
 8000318:	428a      	cmp	r2, r1
 800031a:	4617      	mov	r7, r2
 800031c:	d947      	bls.n	80003ae <__udivmoddi4+0xa6>
 800031e:	fab2 f282 	clz	r2, r2
 8000322:	b142      	cbz	r2, 8000336 <__udivmoddi4+0x2e>
 8000324:	f1c2 0020 	rsb	r0, r2, #32
 8000328:	fa24 f000 	lsr.w	r0, r4, r0
 800032c:	4091      	lsls	r1, r2
 800032e:	4097      	lsls	r7, r2
 8000330:	ea40 0c01 	orr.w	ip, r0, r1
 8000334:	4094      	lsls	r4, r2
 8000336:	ea4f 4817 	mov.w	r8, r7, lsr #16
 800033a:	0c23      	lsrs	r3, r4, #16
 800033c:	fbbc f6f8 	udiv	r6, ip, r8
 8000340:	fa1f fe87 	uxth.w	lr, r7
 8000344:	fb08 c116 	mls	r1, r8, r6, ip
 8000348:	ea43 4301 	orr.w	r3, r3, r1, lsl #16
 800034c:	fb06 f10e 	mul.w	r1, r6, lr
 8000350:	4299      	cmp	r1, r3
 8000352:	d909      	bls.n	8000368 <__udivmoddi4+0x60>
 8000354:	18fb      	adds	r3, r7, r3
 8000356:	f106 30ff 	add.w	r0, r6, #4294967295
 800035a:	f080 8119 	bcs.w	8000590 <__udivmoddi4+0x288>
 800035e:	4299      	cmp	r1, r3
 8000360:	f240 8116 	bls.w	8000590 <__udivmoddi4+0x288>
 8000364:	3e02      	subs	r6, #2
 8000366:	443b      	add	r3, r7
 8000368:	1a5b      	subs	r3, r3, r1
 800036a:	b2a4      	uxth	r4, r4
 800036c:	fbb3 f0f8 	udiv	r0, r3, r8
 8000370:	fb08 3310 	mls	r3, r8, r0, r3
 8000374:	ea44 4403 	orr.w	r4, r4, r3, lsl #16
 8000378:	fb00 fe0e 	mul.w	lr, r0, lr
 800037c:	45a6      	cmp	lr, r4
 800037e:	d909      	bls.n	8000394 <__udivmoddi4+0x8c>
 8000380:	193c      	adds	r4, r7, r4
 8000382:	f100 33ff 	add.w	r3, r0, #4294967295
 8000386:	f080 8105 	bcs.w	8000594 <__udivmoddi4+0x28c>
 800038a:	45a6      	cmp	lr, r4
 800038c:	f240 8102 	bls.w	8000594 <__udivmoddi4+0x28c>
 8000390:	3802      	subs	r0, #2
 8000392:	443c      	add	r4, r7
 8000394:	ea40 4006 	orr.w	r0, r0, r6, lsl #16
 8000398:	eba4 040e 	sub.w	r4, r4, lr
 800039c:	2600      	movs	r6, #0
 800039e:	b11d      	cbz	r5, 80003a8 <__udivmoddi4+0xa0>
 80003a0:	40d4      	lsrs	r4, r2
 80003a2:	2300      	movs	r3, #0
 80003a4:	e9c5 4300 	strd	r4, r3, [r5]
 80003a8:	4631      	mov	r1, r6
 80003aa:	e8bd 87f0 	ldmia.w	sp!, {r4, r5, r6, r7, r8, r9, sl, pc}
 80003ae:	b902      	cbnz	r2, 80003b2 <__udivmoddi4+0xaa>
 80003b0:	deff      	udf	#255	; 0xff
 80003b2:	fab2 f282 	clz	r2, r2
 80003b6:	2a00      	cmp	r2, #0
 80003b8:	d150      	bne.n	800045c <__udivmoddi4+0x154>
 80003ba:	1bcb      	subs	r3, r1, r7
 80003bc:	ea4f 4e17 	mov.w	lr, r7, lsr #16
 80003c0:	fa1f f887 	uxth.w	r8, r7
 80003c4:	2601      	movs	r6, #1
 80003c6:	fbb3 fcfe 	udiv	ip, r3, lr
 80003ca:	0c21      	lsrs	r1, r4, #16
 80003cc:	fb0e 331c 	mls	r3, lr, ip, r3
 80003d0:	ea41 4103 	orr.w	r1, r1, r3, lsl #16
 80003d4:	fb08 f30c 	mul.w	r3, r8, ip
 80003d8:	428b      	cmp	r3, r1
 80003da:	d907      	bls.n	80003ec <__udivmoddi4+0xe4>
 80003dc:	1879      	adds	r1, r7, r1
 80003de:	f10c 30ff 	add.w	r0, ip, #4294967295
 80003e2:	d202      	bcs.n	80003ea <__udivmoddi4+0xe2>
 80003e4:	428b      	cmp	r3, r1
 80003e6:	f200 80e9 	bhi.w	80005bc <__udivmoddi4+0x2b4>
 80003ea:	4684      	mov	ip, r0
 80003ec:	1ac9      	subs	r1, r1, r3
 80003ee:	b2a3      	uxth	r3, r4
 80003f0:	fbb1 f0fe 	udiv	r0, r1, lr
 80003f4:	fb0e 1110 	mls	r1, lr, r0, r1
 80003f8:	ea43 4401 	orr.w	r4, r3, r1, lsl #16
 80003fc:	fb08 f800 	mul.w	r8, r8, r0
 8000400:	45a0      	cmp	r8, r4
 8000402:	d907      	bls.n	8000414 <__udivmoddi4+0x10c>
 8000404:	193c      	adds	r4, r7, r4
 8000406:	f100 33ff 	add.w	r3, r0, #4294967295
 800040a:	d202      	bcs.n	8000412 <__udivmoddi4+0x10a>
 800040c:	45a0      	cmp	r8, r4
 800040e:	f200 80d9 	bhi.w	80005c4 <__udivmoddi4+0x2bc>
 8000412:	4618      	mov	r0, r3
 8000414:	eba4 0408 	sub.w	r4, r4, r8
 8000418:	ea40 400c 	orr.w	r0, r0, ip, lsl #16
 800041c:	e7bf      	b.n	800039e <__udivmoddi4+0x96>
 800041e:	428b      	cmp	r3, r1
 8000420:	d909      	bls.n	8000436 <__udivmoddi4+0x12e>
 8000422:	2d00      	cmp	r5, #0
 8000424:	f000 80b1 	beq.w	800058a <__udivmoddi4+0x282>
 8000428:	2600      	movs	r6, #0
 800042a:	e9c5 0100 	strd	r0, r1, [r5]
 800042e:	4630      	mov	r0, r6
 8000430:	4631      	mov	r1, r6
 8000432:	e8bd 87f0 	ldmia.w	sp!, {r4, r5, r6, r7, r8, r9, sl, pc}
 8000436:	fab3 f683 	clz	r6, r3
 800043a:	2e00      	cmp	r6, #0
 800043c:	d14a      	bne.n	80004d4 <__udivmoddi4+0x1cc>
 800043e:	428b      	cmp	r3, r1
 8000440:	d302      	bcc.n	8000448 <__udivmoddi4+0x140>
 8000442:	4282      	cmp	r2, r0
 8000444:	f200 80b8 	bhi.w	80005b8 <__udivmoddi4+0x2b0>
 8000448:	1a84      	subs	r4, r0, r2
 800044a:	eb61 0103 	sbc.w	r1, r1, r3
 800044e:	2001      	movs	r0, #1
 8000450:	468c      	mov	ip, r1
 8000452:	2d00      	cmp	r5, #0
 8000454:	d0a8      	beq.n	80003a8 <__udivmoddi4+0xa0>
 8000456:	e9c5 4c00 	strd	r4, ip, [r5]
 800045a:	e7a5      	b.n	80003a8 <__udivmoddi4+0xa0>
 800045c:	f1c2 0320 	rsb	r3, r2, #32
 8000460:	fa20 f603 	lsr.w	r6, r0, r3
 8000464:	4097      	lsls	r7, r2
 8000466:	fa01 f002 	lsl.w	r0, r1, r2
 800046a:	ea4f 4e17 	mov.w	lr, r7, lsr #16
 800046e:	40d9      	lsrs	r1, r3
 8000470:	4330      	orrs	r0, r6
 8000472:	0c03      	lsrs	r3, r0, #16
 8000474:	fbb1 f6fe 	udiv	r6, r1, lr
 8000478:	fa1f f887 	uxth.w	r8, r7
 800047c:	fb0e 1116 	mls	r1, lr, r6, r1
 8000480:	ea43 4301 	orr.w	r3, r3, r1, lsl #16
 8000484:	fb06 f108 	mul.w	r1, r6, r8
 8000488:	4299      	cmp	r1, r3
 800048a:	fa04 f402 	lsl.w	r4, r4, r2
 800048e:	d909      	bls.n	80004a4 <__udivmoddi4+0x19c>
 8000490:	18fb      	adds	r3, r7, r3
 8000492:	f106 3cff 	add.w	ip, r6, #4294967295
 8000496:	f080 808d 	bcs.w	80005b4 <__udivmoddi4+0x2ac>
 800049a:	4299      	cmp	r1, r3
 800049c:	f240 808a 	bls.w	80005b4 <__udivmoddi4+0x2ac>
 80004a0:	3e02      	subs	r6, #2
 80004a2:	443b      	add	r3, r7
 80004a4:	1a5b      	subs	r3, r3, r1
 80004a6:	b281      	uxth	r1, r0
 80004a8:	fbb3 f0fe 	udiv	r0, r3, lr
 80004ac:	fb0e 3310 	mls	r3, lr, r0, r3
 80004b0:	ea41 4103 	orr.w	r1, r1, r3, lsl #16
 80004b4:	fb00 f308 	mul.w	r3, r0, r8
 80004b8:	428b      	cmp	r3, r1
 80004ba:	d907      	bls.n	80004cc <__udivmoddi4+0x1c4>
 80004bc:	1879      	adds	r1, r7, r1
 80004be:	f100 3cff 	add.w	ip, r0, #4294967295
 80004c2:	d273      	bcs.n	80005ac <__udivmoddi4+0x2a4>
 80004c4:	428b      	cmp	r3, r1
 80004c6:	d971      	bls.n	80005ac <__udivmoddi4+0x2a4>
 80004c8:	3802      	subs	r0, #2
 80004ca:	4439      	add	r1, r7
 80004cc:	1acb      	subs	r3, r1, r3
 80004ce:	ea40 4606 	orr.w	r6, r0, r6, lsl #16
 80004d2:	e778      	b.n	80003c6 <__udivmoddi4+0xbe>
 80004d4:	f1c6 0c20 	rsb	ip, r6, #32
 80004d8:	fa03 f406 	lsl.w	r4, r3, r6
 80004dc:	fa22 f30c 	lsr.w	r3, r2, ip
 80004e0:	431c      	orrs	r4, r3
 80004e2:	fa20 f70c 	lsr.w	r7, r0, ip
 80004e6:	fa01 f306 	lsl.w	r3, r1, r6
 80004ea:	ea4f 4e14 	mov.w	lr, r4, lsr #16
 80004ee:	fa21 f10c 	lsr.w	r1, r1, ip
 80004f2:	431f      	orrs	r7, r3
 80004f4:	0c3b      	lsrs	r3, r7, #16
 80004f6:	fbb1 f9fe 	udiv	r9, r1, lr
 80004fa:	fa1f f884 	uxth.w	r8, r4
 80004fe:	fb0e 1119 	mls	r1, lr, r9, r1
 8000502:	ea43 4101 	orr.w	r1, r3, r1, lsl #16
 8000506:	fb09 fa08 	mul.w	sl, r9, r8
 800050a:	458a      	cmp	sl, r1
 800050c:	fa02 f206 	lsl.w	r2, r2, r6
 8000510:	fa00 f306 	lsl.w	r3, r0, r6
 8000514:	d908      	bls.n	8000528 <__udivmoddi4+0x220>
 8000516:	1861      	adds	r1, r4, r1
 8000518:	f109 30ff 	add.w	r0, r9, #4294967295
 800051c:	d248      	bcs.n	80005b0 <__udivmoddi4+0x2a8>
 800051e:	458a      	cmp	sl, r1
 8000520:	d946      	bls.n	80005b0 <__udivmoddi4+0x2a8>
 8000522:	f1a9 0902 	sub.w	r9, r9, #2
 8000526:	4421      	add	r1, r4
 8000528:	eba1 010a 	sub.w	r1, r1, sl
 800052c:	b2bf      	uxth	r7, r7
 800052e:	fbb1 f0fe 	udiv	r0, r1, lr
 8000532:	fb0e 1110 	mls	r1, lr, r0, r1
 8000536:	ea47 4701 	orr.w	r7, r7, r1, lsl #16
 800053a:	fb00 f808 	mul.w	r8, r0, r8
 800053e:	45b8      	cmp	r8, r7
 8000540:	d907      	bls.n	8000552 <__udivmoddi4+0x24a>
 8000542:	19e7      	adds	r7, r4, r7
 8000544:	f100 31ff 	add.w	r1, r0, #4294967295
 8000548:	d22e      	bcs.n	80005a8 <__udivmoddi4+0x2a0>
 800054a:	45b8      	cmp	r8, r7
 800054c:	d92c      	bls.n	80005a8 <__udivmoddi4+0x2a0>
 800054e:	3802      	subs	r0, #2
 8000550:	4427      	add	r7, r4
 8000552:	ea40 4009 	orr.w	r0, r0, r9, lsl #16
 8000556:	eba7 0708 	sub.w	r7, r7, r8
 800055a:	fba0 8902 	umull	r8, r9, r0, r2
 800055e:	454f      	cmp	r7, r9
 8000560:	46c6      	mov	lr, r8
 8000562:	4649      	mov	r1, r9
 8000564:	d31a      	bcc.n	800059c <__udivmoddi4+0x294>
 8000566:	d017      	beq.n	8000598 <__udivmoddi4+0x290>
 8000568:	b15d      	cbz	r5, 8000582 <__udivmoddi4+0x27a>
 800056a:	ebb3 020e 	subs.w	r2, r3, lr
 800056e:	eb67 0701 	sbc.w	r7, r7, r1
 8000572:	fa07 fc0c 	lsl.w	ip, r7, ip
 8000576:	40f2      	lsrs	r2, r6
 8000578:	ea4c 0202 	orr.w	r2, ip, r2
 800057c:	40f7      	lsrs	r7, r6
 800057e:	e9c5 2700 	strd	r2, r7, [r5]
 8000582:	2600      	movs	r6, #0
 8000584:	4631      	mov	r1, r6
 8000586:	e8bd 87f0 	ldmia.w	sp!, {r4, r5, r6, r7, r8, r9, sl, pc}
 800058a:	462e      	mov	r6, r5
 800058c:	4628      	mov	r0, r5
 800058e:	e70b      	b.n	80003a8 <__udivmoddi4+0xa0>
 8000590:	4606      	mov	r6, r0
 8000592:	e6e9      	b.n	8000368 <__udivmoddi4+0x60>
 8000594:	4618      	mov	r0, r3
 8000596:	e6fd      	b.n	8000394 <__udivmoddi4+0x8c>
 8000598:	4543      	cmp	r3, r8
 800059a:	d2e5      	bcs.n	8000568 <__udivmoddi4+0x260>
 800059c:	ebb8 0e02 	subs.w	lr, r8, r2
 80005a0:	eb69 0104 	sbc.w	r1, r9, r4
 80005a4:	3801      	subs	r0, #1
 80005a6:	e7df      	b.n	8000568 <__udivmoddi4+0x260>
 80005a8:	4608      	mov	r0, r1
 80005aa:	e7d2      	b.n	8000552 <__udivmoddi4+0x24a>
 80005ac:	4660      	mov	r0, ip
 80005ae:	e78d      	b.n	80004cc <__udivmoddi4+0x1c4>
 80005b0:	4681      	mov	r9, r0
 80005b2:	e7b9      	b.n	8000528 <__udivmoddi4+0x220>
 80005b4:	4666      	mov	r6, ip
 80005b6:	e775      	b.n	80004a4 <__udivmoddi4+0x19c>
 80005b8:	4630      	mov	r0, r6
 80005ba:	e74a      	b.n	8000452 <__udivmoddi4+0x14a>
 80005bc:	f1ac 0c02 	sub.w	ip, ip, #2
 80005c0:	4439      	add	r1, r7
 80005c2:	e713      	b.n	80003ec <__udivmoddi4+0xe4>
 80005c4:	3802      	subs	r0, #2
 80005c6:	443c      	add	r4, r7
 80005c8:	e724      	b.n	8000414 <__udivmoddi4+0x10c>
 80005ca:	bf00      	nop

080005cc <__aeabi_idiv0>:
 80005cc:	4770      	bx	lr
 80005ce:	bf00      	nop

080005d0 <tx_h_complete>:
 80005d0:	4b01      	ldr	r3, [pc, #4]	; (80005d8 <tx_h_complete+0x8>)
 80005d2:	2201      	movs	r2, #1
 80005d4:	601a      	str	r2, [r3, #0]
 80005d6:	4770      	bx	lr
 80005d8:	24003860 	.word	0x24003860

080005dc <HAL_GPIO_EXTI_Callback>:
 80005dc:	f5b0 5f00 	cmp.w	r0, #8192	; 0x2000
 80005e0:	d000      	beq.n	80005e4 <HAL_GPIO_EXTI_Callback+0x8>
 80005e2:	4770      	bx	lr
 80005e4:	4a02      	ldr	r2, [pc, #8]	; (80005f0 <HAL_GPIO_EXTI_Callback+0x14>)
 80005e6:	6813      	ldr	r3, [r2, #0]
 80005e8:	f083 0301 	eor.w	r3, r3, #1
 80005ec:	6013      	str	r3, [r2, #0]
 80005ee:	e7f8      	b.n	80005e2 <HAL_GPIO_EXTI_Callback+0x6>
 80005f0:	2400003c 	.word	0x2400003c

080005f4 <Error_Handler>:
 80005f4:	b508      	push	{r3, lr}
 80005f6:	b672      	cpsid	i
 80005f8:	2502      	movs	r5, #2
 80005fa:	2464      	movs	r4, #100	; 0x64
 80005fc:	4628      	mov	r0, r5
 80005fe:	f001 f82d 	bl	800165c <BSP_LED_Toggle>
 8000602:	4620      	mov	r0, r4
 8000604:	f001 f986 	bl	8001914 <HAL_Delay>
 8000608:	e7f8      	b.n	80005fc <Error_Handler+0x8>
	...

0800060c <SystemClock_Config>:
 800060c:	b500      	push	{lr}
 800060e:	b09d      	sub	sp, #116	; 0x74
 8000610:	224c      	movs	r2, #76	; 0x4c
 8000612:	2100      	movs	r1, #0
 8000614:	a809      	add	r0, sp, #36	; 0x24
 8000616:	f006 fb03 	bl	8006c20 <memset>
 800061a:	2220      	movs	r2, #32
 800061c:	2100      	movs	r1, #0
 800061e:	a801      	add	r0, sp, #4
 8000620:	f006 fafe 	bl	8006c20 <memset>
 8000624:	2002      	movs	r0, #2
 8000626:	f003 fb15 	bl	8003c54 <HAL_PWREx_ConfigSupply>
 800062a:	2300      	movs	r3, #0
 800062c:	9300      	str	r3, [sp, #0]
 800062e:	4b2a      	ldr	r3, [pc, #168]	; (80006d8 <SystemClock_Config+0xcc>)
 8000630:	699a      	ldr	r2, [r3, #24]
 8000632:	f442 4240 	orr.w	r2, r2, #49152	; 0xc000
 8000636:	619a      	str	r2, [r3, #24]
 8000638:	699b      	ldr	r3, [r3, #24]
 800063a:	f403 4340 	and.w	r3, r3, #49152	; 0xc000
 800063e:	9300      	str	r3, [sp, #0]
 8000640:	4b26      	ldr	r3, [pc, #152]	; (80006dc <SystemClock_Config+0xd0>)
 8000642:	6ada      	ldr	r2, [r3, #44]	; 0x2c
 8000644:	f042 0201 	orr.w	r2, r2, #1
 8000648:	62da      	str	r2, [r3, #44]	; 0x2c
 800064a:	6adb      	ldr	r3, [r3, #44]	; 0x2c
 800064c:	f003 0301 	and.w	r3, r3, #1
 8000650:	9300      	str	r3, [sp, #0]
 8000652:	9b00      	ldr	r3, [sp, #0]
 8000654:	4a20      	ldr	r2, [pc, #128]	; (80006d8 <SystemClock_Config+0xcc>)
 8000656:	6993      	ldr	r3, [r2, #24]
 8000658:	f413 5f00 	tst.w	r3, #8192	; 0x2000
 800065c:	d0fb      	beq.n	8000656 <SystemClock_Config+0x4a>
 800065e:	4a20      	ldr	r2, [pc, #128]	; (80006e0 <SystemClock_Config+0xd4>)
 8000660:	6a93      	ldr	r3, [r2, #40]	; 0x28
 8000662:	f023 0303 	bic.w	r3, r3, #3
 8000666:	f043 0302 	orr.w	r3, r3, #2
 800066a:	6293      	str	r3, [r2, #40]	; 0x28
 800066c:	2321      	movs	r3, #33	; 0x21
 800066e:	9309      	str	r3, [sp, #36]	; 0x24
 8000670:	f44f 23a0 	mov.w	r3, #327680	; 0x50000
 8000674:	930a      	str	r3, [sp, #40]	; 0x28
 8000676:	2201      	movs	r2, #1
 8000678:	920f      	str	r2, [sp, #60]	; 0x3c
 800067a:	2302      	movs	r3, #2
 800067c:	9312      	str	r3, [sp, #72]	; 0x48
 800067e:	9313      	str	r3, [sp, #76]	; 0x4c
 8000680:	9214      	str	r2, [sp, #80]	; 0x50
 8000682:	2273      	movs	r2, #115	; 0x73
 8000684:	9215      	str	r2, [sp, #84]	; 0x54
 8000686:	9316      	str	r3, [sp, #88]	; 0x58
 8000688:	2204      	movs	r2, #4
 800068a:	9217      	str	r2, [sp, #92]	; 0x5c
 800068c:	9318      	str	r3, [sp, #96]	; 0x60
 800068e:	230c      	movs	r3, #12
 8000690:	9319      	str	r3, [sp, #100]	; 0x64
 8000692:	2300      	movs	r3, #0
 8000694:	931a      	str	r3, [sp, #104]	; 0x68
 8000696:	931b      	str	r3, [sp, #108]	; 0x6c
 8000698:	a809      	add	r0, sp, #36	; 0x24
 800069a:	f003 fb03 	bl	8003ca4 <HAL_RCC_OscConfig>
 800069e:	b9b8      	cbnz	r0, 80006d0 <SystemClock_Config+0xc4>
 80006a0:	233f      	movs	r3, #63	; 0x3f
 80006a2:	9301      	str	r3, [sp, #4]
 80006a4:	2303      	movs	r3, #3
 80006a6:	9302      	str	r3, [sp, #8]
 80006a8:	2300      	movs	r3, #0
 80006aa:	9303      	str	r3, [sp, #12]
 80006ac:	2308      	movs	r3, #8
 80006ae:	9304      	str	r3, [sp, #16]
 80006b0:	2340      	movs	r3, #64	; 0x40
 80006b2:	9305      	str	r3, [sp, #20]
 80006b4:	9306      	str	r3, [sp, #24]
 80006b6:	f44f 6280 	mov.w	r2, #1024	; 0x400
 80006ba:	9207      	str	r2, [sp, #28]
 80006bc:	9308      	str	r3, [sp, #32]
 80006be:	2104      	movs	r1, #4
 80006c0:	eb0d 0001 	add.w	r0, sp, r1
 80006c4:	f003 ff0c 	bl	80044e0 <HAL_RCC_ClockConfig>
 80006c8:	b920      	cbnz	r0, 80006d4 <SystemClock_Config+0xc8>
 80006ca:	b01d      	add	sp, #116	; 0x74
 80006cc:	f85d fb04 	ldr.w	pc, [sp], #4
 80006d0:	f7ff ff90 	bl	80005f4 <Error_Handler>
 80006d4:	f7ff ff8e 	bl	80005f4 <Error_Handler>
 80006d8:	58024800 	.word	0x58024800
 80006dc:	58000400 	.word	0x58000400
 80006e0:	58024400 	.word	0x58024400
 80006e4:	00000000 	.word	0x00000000

080006e8 <main>:
 80006e8:	e92d 4ff0 	stmdb	sp!, {r4, r5, r6, r7, r8, r9, sl, fp, lr}
 80006ec:	b08f      	sub	sp, #60	; 0x3c
 80006ee:	2300      	movs	r3, #0
 80006f0:	48c6      	ldr	r0, [pc, #792]	; (8000a0c <main+0x324>)
 80006f2:	4259      	negs	r1, r3
 80006f4:	f3c3 020d 	ubfx	r2, r3, #0, #14
 80006f8:	f3c1 010d 	ubfx	r1, r1, #0, #14
 80006fc:	bf58      	it	pl
 80006fe:	424a      	negpl	r2, r1
 8000700:	b292      	uxth	r2, r2
 8000702:	f820 2013 	strh.w	r2, [r0, r3, lsl #1]
 8000706:	3301      	adds	r3, #1
 8000708:	f5b3 6f80 	cmp.w	r3, #1024	; 0x400
 800070c:	d1f1      	bne.n	80006f2 <main+0xa>
 800070e:	4bc0      	ldr	r3, [pc, #768]	; (8000a10 <main+0x328>)
 8000710:	695b      	ldr	r3, [r3, #20]
 8000712:	f413 3f00 	tst.w	r3, #131072	; 0x20000
 8000716:	d113      	bne.n	8000740 <main+0x58>
 8000718:	f3bf 8f4f 	dsb	sy
 800071c:	f3bf 8f6f 	isb	sy
 8000720:	4bbb      	ldr	r3, [pc, #748]	; (8000a10 <main+0x328>)
 8000722:	2200      	movs	r2, #0
 8000724:	f8c3 2250 	str.w	r2, [r3, #592]	; 0x250
 8000728:	f3bf 8f4f 	dsb	sy
 800072c:	f3bf 8f6f 	isb	sy
 8000730:	695a      	ldr	r2, [r3, #20]
 8000732:	f442 3200 	orr.w	r2, r2, #131072	; 0x20000
 8000736:	615a      	str	r2, [r3, #20]
 8000738:	f3bf 8f4f 	dsb	sy
 800073c:	f3bf 8f6f 	isb	sy
 8000740:	f001 f8a8 	bl	8001894 <HAL_Init>
 8000744:	f7ff ff62 	bl	800060c <SystemClock_Config>
 8000748:	2400      	movs	r4, #0
 800074a:	9409      	str	r4, [sp, #36]	; 0x24
 800074c:	940a      	str	r4, [sp, #40]	; 0x28
 800074e:	940b      	str	r4, [sp, #44]	; 0x2c
 8000750:	940c      	str	r4, [sp, #48]	; 0x30
 8000752:	940d      	str	r4, [sp, #52]	; 0x34
 8000754:	4daf      	ldr	r5, [pc, #700]	; (8000a14 <main+0x32c>)
 8000756:	f8d5 30e0 	ldr.w	r3, [r5, #224]	; 0xe0
 800075a:	f043 0301 	orr.w	r3, r3, #1
 800075e:	f8c5 30e0 	str.w	r3, [r5, #224]	; 0xe0
 8000762:	f8d5 30e0 	ldr.w	r3, [r5, #224]	; 0xe0
 8000766:	f003 0301 	and.w	r3, r3, #1
 800076a:	9301      	str	r3, [sp, #4]
 800076c:	9b01      	ldr	r3, [sp, #4]
 800076e:	f8d5 30e0 	ldr.w	r3, [r5, #224]	; 0xe0
 8000772:	f043 0302 	orr.w	r3, r3, #2
 8000776:	f8c5 30e0 	str.w	r3, [r5, #224]	; 0xe0
 800077a:	f8d5 30e0 	ldr.w	r3, [r5, #224]	; 0xe0
 800077e:	f003 0302 	and.w	r3, r3, #2
 8000782:	9302      	str	r3, [sp, #8]
 8000784:	9b02      	ldr	r3, [sp, #8]
 8000786:	f8d5 30e0 	ldr.w	r3, [r5, #224]	; 0xe0
 800078a:	f043 0304 	orr.w	r3, r3, #4
 800078e:	f8c5 30e0 	str.w	r3, [r5, #224]	; 0xe0
 8000792:	f8d5 30e0 	ldr.w	r3, [r5, #224]	; 0xe0
 8000796:	f003 0304 	and.w	r3, r3, #4
 800079a:	9303      	str	r3, [sp, #12]
 800079c:	9b03      	ldr	r3, [sp, #12]
 800079e:	f8d5 30e0 	ldr.w	r3, [r5, #224]	; 0xe0
 80007a2:	f043 0308 	orr.w	r3, r3, #8
 80007a6:	f8c5 30e0 	str.w	r3, [r5, #224]	; 0xe0
 80007aa:	f8d5 30e0 	ldr.w	r3, [r5, #224]	; 0xe0
 80007ae:	f003 0308 	and.w	r3, r3, #8
 80007b2:	9304      	str	r3, [sp, #16]
 80007b4:	9b04      	ldr	r3, [sp, #16]
 80007b6:	f8d5 30e0 	ldr.w	r3, [r5, #224]	; 0xe0
 80007ba:	f043 0310 	orr.w	r3, r3, #16
 80007be:	f8c5 30e0 	str.w	r3, [r5, #224]	; 0xe0
 80007c2:	f8d5 30e0 	ldr.w	r3, [r5, #224]	; 0xe0
 80007c6:	f003 0310 	and.w	r3, r3, #16
 80007ca:	9305      	str	r3, [sp, #20]
 80007cc:	9b05      	ldr	r3, [sp, #20]
 80007ce:	f8d5 30e0 	ldr.w	r3, [r5, #224]	; 0xe0
 80007d2:	f043 0320 	orr.w	r3, r3, #32
 80007d6:	f8c5 30e0 	str.w	r3, [r5, #224]	; 0xe0
 80007da:	f8d5 30e0 	ldr.w	r3, [r5, #224]	; 0xe0
 80007de:	f003 0320 	and.w	r3, r3, #32
 80007e2:	9306      	str	r3, [sp, #24]
 80007e4:	9b06      	ldr	r3, [sp, #24]
 80007e6:	f8d5 30e0 	ldr.w	r3, [r5, #224]	; 0xe0
 80007ea:	f043 0340 	orr.w	r3, r3, #64	; 0x40
 80007ee:	f8c5 30e0 	str.w	r3, [r5, #224]	; 0xe0
 80007f2:	f8d5 30e0 	ldr.w	r3, [r5, #224]	; 0xe0
 80007f6:	f003 0340 	and.w	r3, r3, #64	; 0x40
 80007fa:	9307      	str	r3, [sp, #28]
 80007fc:	9b07      	ldr	r3, [sp, #28]
 80007fe:	f8d5 30e0 	ldr.w	r3, [r5, #224]	; 0xe0
 8000802:	f043 0380 	orr.w	r3, r3, #128	; 0x80
 8000806:	f8c5 30e0 	str.w	r3, [r5, #224]	; 0xe0
 800080a:	f8d5 30e0 	ldr.w	r3, [r5, #224]	; 0xe0
 800080e:	f003 0380 	and.w	r3, r3, #128	; 0x80
 8000812:	9308      	str	r3, [sp, #32]
 8000814:	9b08      	ldr	r3, [sp, #32]
 8000816:	f8df 821c 	ldr.w	r8, [pc, #540]	; 8000a34 <main+0x34c>
 800081a:	4622      	mov	r2, r4
 800081c:	f244 0101 	movw	r1, #16385	; 0x4001
 8000820:	4640      	mov	r0, r8
 8000822:	f003 f9f9 	bl	8003c18 <HAL_GPIO_WritePin>
 8000826:	4f7c      	ldr	r7, [pc, #496]	; (8000a18 <main+0x330>)
 8000828:	4622      	mov	r2, r4
 800082a:	2102      	movs	r1, #2
 800082c:	4638      	mov	r0, r7
 800082e:	f003 f9f3 	bl	8003c18 <HAL_GPIO_WritePin>
 8000832:	f44f 5300 	mov.w	r3, #8192	; 0x2000
 8000836:	9309      	str	r3, [sp, #36]	; 0x24
 8000838:	940a      	str	r4, [sp, #40]	; 0x28
 800083a:	940b      	str	r4, [sp, #44]	; 0x2c
 800083c:	a909      	add	r1, sp, #36	; 0x24
 800083e:	4877      	ldr	r0, [pc, #476]	; (8000a1c <main+0x334>)
 8000840:	f003 f8e6 	bl	8003a10 <HAL_GPIO_Init>
 8000844:	f244 0301 	movw	r3, #16385	; 0x4001
 8000848:	9309      	str	r3, [sp, #36]	; 0x24
 800084a:	2601      	movs	r6, #1
 800084c:	960a      	str	r6, [sp, #40]	; 0x28
 800084e:	940b      	str	r4, [sp, #44]	; 0x2c
 8000850:	940c      	str	r4, [sp, #48]	; 0x30
 8000852:	a909      	add	r1, sp, #36	; 0x24
 8000854:	4640      	mov	r0, r8
 8000856:	f003 f8db 	bl	8003a10 <HAL_GPIO_Init>
 800085a:	f04f 0b02 	mov.w	fp, #2
 800085e:	f8cd b024 	str.w	fp, [sp, #36]	; 0x24
 8000862:	960a      	str	r6, [sp, #40]	; 0x28
 8000864:	940b      	str	r4, [sp, #44]	; 0x2c
 8000866:	940c      	str	r4, [sp, #48]	; 0x30
 8000868:	a909      	add	r1, sp, #36	; 0x24
 800086a:	4638      	mov	r0, r7
 800086c:	f003 f8d0 	bl	8003a10 <HAL_GPIO_Init>
 8000870:	f24a 0a01 	movw	sl, #40961	; 0xa001
 8000874:	f8cd a024 	str.w	sl, [sp, #36]	; 0x24
 8000878:	960a      	str	r6, [sp, #40]	; 0x28
 800087a:	940b      	str	r4, [sp, #44]	; 0x2c
 800087c:	940c      	str	r4, [sp, #48]	; 0x30
 800087e:	a909      	add	r1, sp, #36	; 0x24
 8000880:	4638      	mov	r0, r7
 8000882:	f003 f8c5 	bl	8003a10 <HAL_GPIO_Init>
 8000886:	f44f 4338 	mov.w	r3, #47104	; 0xb800
 800088a:	9309      	str	r3, [sp, #36]	; 0x24
 800088c:	960a      	str	r6, [sp, #40]	; 0x28
 800088e:	940b      	str	r4, [sp, #44]	; 0x2c
 8000890:	940c      	str	r4, [sp, #48]	; 0x30
 8000892:	f8df 91a4 	ldr.w	r9, [pc, #420]	; 8000a38 <main+0x350>
 8000896:	a909      	add	r1, sp, #36	; 0x24
 8000898:	4648      	mov	r0, r9
 800089a:	f003 f8b9 	bl	8003a10 <HAL_GPIO_Init>
 800089e:	f244 1370 	movw	r3, #16752	; 0x4170
 80008a2:	9309      	str	r3, [sp, #36]	; 0x24
 80008a4:	960a      	str	r6, [sp, #40]	; 0x28
 80008a6:	940b      	str	r4, [sp, #44]	; 0x2c
 80008a8:	940c      	str	r4, [sp, #48]	; 0x30
 80008aa:	f508 58a0 	add.w	r8, r8, #5120	; 0x1400
 80008ae:	a909      	add	r1, sp, #36	; 0x24
 80008b0:	4640      	mov	r0, r8
 80008b2:	f003 f8ad 	bl	8003a10 <HAL_GPIO_Init>
 80008b6:	4620      	mov	r0, r4
 80008b8:	f000 fe52 	bl	8001560 <BSP_LED_Init>
 80008bc:	4630      	mov	r0, r6
 80008be:	f000 fe4f 	bl	8001560 <BSP_LED_Init>
 80008c2:	4658      	mov	r0, fp
 80008c4:	f000 fe4c 	bl	8001560 <BSP_LED_Init>
 80008c8:	4631      	mov	r1, r6
 80008ca:	4620      	mov	r0, r4
 80008cc:	f000 feda 	bl	8001684 <BSP_PB_Init>
 80008d0:	f8c7 a018 	str.w	sl, [r7, #24]
 80008d4:	f44f 4338 	mov.w	r3, #47104	; 0xb800
 80008d8:	f8c9 3018 	str.w	r3, [r9, #24]
 80008dc:	f244 1370 	movw	r3, #16752	; 0x4170
 80008e0:	f8c8 3018 	str.w	r3, [r8, #24]
 80008e4:	f001 f838 	bl	8001958 <HAL_EnableCompensationCell>
 80008e8:	f8d5 30d8 	ldr.w	r3, [r5, #216]	; 0xd8
 80008ec:	4333      	orrs	r3, r6
 80008ee:	f8c5 30d8 	str.w	r3, [r5, #216]	; 0xd8
 80008f2:	f8d5 30d8 	ldr.w	r3, [r5, #216]	; 0xd8
 80008f6:	4033      	ands	r3, r6
 80008f8:	9300      	str	r3, [sp, #0]
 80008fa:	9b00      	ldr	r3, [sp, #0]
 80008fc:	f8d5 30d8 	ldr.w	r3, [r5, #216]	; 0xd8
 8000900:	ea43 030b 	orr.w	r3, r3, fp
 8000904:	f8c5 30d8 	str.w	r3, [r5, #216]	; 0xd8
 8000908:	f8d5 30d8 	ldr.w	r3, [r5, #216]	; 0xd8
 800090c:	ea03 030b 	and.w	r3, r3, fp
 8000910:	9309      	str	r3, [sp, #36]	; 0x24
 8000912:	9b09      	ldr	r3, [sp, #36]	; 0x24
 8000914:	4632      	mov	r2, r6
 8000916:	4621      	mov	r1, r4
 8000918:	200b      	movs	r0, #11
 800091a:	f001 f837 	bl	800198c <HAL_NVIC_SetPriority>
 800091e:	200b      	movs	r0, #11
 8000920:	f001 f864 	bl	80019ec <HAL_NVIC_EnableIRQ>
 8000924:	4632      	mov	r2, r6
 8000926:	4621      	mov	r1, r4
 8000928:	200c      	movs	r0, #12
 800092a:	f001 f82f 	bl	800198c <HAL_NVIC_SetPriority>
 800092e:	200c      	movs	r0, #12
 8000930:	f001 f85c 	bl	80019ec <HAL_NVIC_EnableIRQ>
 8000934:	4632      	mov	r2, r6
 8000936:	4621      	mov	r1, r4
 8000938:	2038      	movs	r0, #56	; 0x38
 800093a:	f001 f827 	bl	800198c <HAL_NVIC_SetPriority>
 800093e:	2038      	movs	r0, #56	; 0x38
 8000940:	f001 f854 	bl	80019ec <HAL_NVIC_EnableIRQ>
 8000944:	4632      	mov	r2, r6
 8000946:	4621      	mov	r1, r4
 8000948:	2039      	movs	r0, #57	; 0x39
 800094a:	f001 f81f 	bl	800198c <HAL_NVIC_SetPriority>
 800094e:	2039      	movs	r0, #57	; 0x39
 8000950:	f001 f84c 	bl	80019ec <HAL_NVIC_EnableIRQ>
 8000954:	4832      	ldr	r0, [pc, #200]	; (8000a20 <main+0x338>)
 8000956:	4b33      	ldr	r3, [pc, #204]	; (8000a24 <main+0x33c>)
 8000958:	6003      	str	r3, [r0, #0]
 800095a:	4b33      	ldr	r3, [pc, #204]	; (8000a28 <main+0x340>)
 800095c:	6043      	str	r3, [r0, #4]
 800095e:	6084      	str	r4, [r0, #8]
 8000960:	60c4      	str	r4, [r0, #12]
 8000962:	6104      	str	r4, [r0, #16]
 8000964:	230c      	movs	r3, #12
 8000966:	6143      	str	r3, [r0, #20]
 8000968:	6184      	str	r4, [r0, #24]
 800096a:	f44f 4300 	mov.w	r3, #32768	; 0x8000
 800096e:	61c3      	str	r3, [r0, #28]
 8000970:	6204      	str	r4, [r0, #32]
 8000972:	6244      	str	r4, [r0, #36]	; 0x24
 8000974:	6284      	str	r4, [r0, #40]	; 0x28
 8000976:	f006 f863 	bl	8006a40 <HAL_UART_Init>
 800097a:	2800      	cmp	r0, #0
 800097c:	f040 815d 	bne.w	8000c3a <main+0x552>
 8000980:	2100      	movs	r1, #0
 8000982:	4827      	ldr	r0, [pc, #156]	; (8000a20 <main+0x338>)
 8000984:	f006 f8dd 	bl	8006b42 <HAL_UARTEx_SetTxFifoThreshold>
 8000988:	2800      	cmp	r0, #0
 800098a:	f040 8158 	bne.w	8000c3e <main+0x556>
 800098e:	2100      	movs	r1, #0
 8000990:	4823      	ldr	r0, [pc, #140]	; (8000a20 <main+0x338>)
 8000992:	f006 f8fb 	bl	8006b8c <HAL_UARTEx_SetRxFifoThreshold>
 8000996:	2800      	cmp	r0, #0
 8000998:	f040 8153 	bne.w	8000c42 <main+0x55a>
 800099c:	4820      	ldr	r0, [pc, #128]	; (8000a20 <main+0x338>)
 800099e:	f006 f8ac 	bl	8006afa <HAL_UARTEx_EnableFifoMode>
 80009a2:	2800      	cmp	r0, #0
 80009a4:	f040 814f 	bne.w	8000c46 <main+0x55e>
 80009a8:	2201      	movs	r2, #1
 80009aa:	2100      	movs	r1, #0
 80009ac:	2025      	movs	r0, #37	; 0x25
 80009ae:	f000 ffed 	bl	800198c <HAL_NVIC_SetPriority>
 80009b2:	2025      	movs	r0, #37	; 0x25
 80009b4:	f001 f81a 	bl	80019ec <HAL_NVIC_EnableIRQ>
 80009b8:	481c      	ldr	r0, [pc, #112]	; (8000a2c <main+0x344>)
 80009ba:	4b1d      	ldr	r3, [pc, #116]	; (8000a30 <main+0x348>)
 80009bc:	6003      	str	r3, [r0, #0]
 80009be:	4b1a      	ldr	r3, [pc, #104]	; (8000a28 <main+0x340>)
 80009c0:	6043      	str	r3, [r0, #4]
 80009c2:	2300      	movs	r3, #0
 80009c4:	6083      	str	r3, [r0, #8]
 80009c6:	60c3      	str	r3, [r0, #12]
 80009c8:	6103      	str	r3, [r0, #16]
 80009ca:	220c      	movs	r2, #12
 80009cc:	6142      	str	r2, [r0, #20]
 80009ce:	6183      	str	r3, [r0, #24]
 80009d0:	f44f 4200 	mov.w	r2, #32768	; 0x8000
 80009d4:	61c2      	str	r2, [r0, #28]
 80009d6:	6203      	str	r3, [r0, #32]
 80009d8:	6243      	str	r3, [r0, #36]	; 0x24
 80009da:	6283      	str	r3, [r0, #40]	; 0x28
 80009dc:	f006 f830 	bl	8006a40 <HAL_UART_Init>
 80009e0:	2800      	cmp	r0, #0
 80009e2:	f040 8132 	bne.w	8000c4a <main+0x562>
 80009e6:	2100      	movs	r1, #0
 80009e8:	4810      	ldr	r0, [pc, #64]	; (8000a2c <main+0x344>)
 80009ea:	f006 f8aa 	bl	8006b42 <HAL_UARTEx_SetTxFifoThreshold>
 80009ee:	2800      	cmp	r0, #0
 80009f0:	f040 812d 	bne.w	8000c4e <main+0x566>
 80009f4:	2100      	movs	r1, #0
 80009f6:	480d      	ldr	r0, [pc, #52]	; (8000a2c <main+0x344>)
 80009f8:	f006 f8c8 	bl	8006b8c <HAL_UARTEx_SetRxFifoThreshold>
 80009fc:	2800      	cmp	r0, #0
 80009fe:	f040 8128 	bne.w	8000c52 <main+0x56a>
 8000a02:	480a      	ldr	r0, [pc, #40]	; (8000a2c <main+0x344>)
 8000a04:	f006 f879 	bl	8006afa <HAL_UARTEx_EnableFifoMode>
 8000a08:	e018      	b.n	8000a3c <main+0x354>
 8000a0a:	bf00      	nop
 8000a0c:	24003060 	.word	0x24003060
 8000a10:	e000ed00 	.word	0xe000ed00
 8000a14:	58024400 	.word	0x58024400
 8000a18:	58021000 	.word	0x58021000
 8000a1c:	58020800 	.word	0x58020800
 8000a20:	24009b0c 	.word	0x24009b0c
 8000a24:	40011000 	.word	0x40011000
 8000a28:	00b6c7c0 	.word	0x00b6c7c0
 8000a2c:	24009914 	.word	0x24009914
 8000a30:	40004800 	.word	0x40004800
 8000a34:	58020400 	.word	0x58020400
 8000a38:	58021400 	.word	0x58021400
 8000a3c:	2800      	cmp	r0, #0
 8000a3e:	f040 810a 	bne.w	8000c56 <main+0x56e>
 8000a42:	2201      	movs	r2, #1
 8000a44:	2100      	movs	r1, #0
 8000a46:	2027      	movs	r0, #39	; 0x27
 8000a48:	f000 ffa0 	bl	800198c <HAL_NVIC_SetPriority>
 8000a4c:	2027      	movs	r0, #39	; 0x27
 8000a4e:	f000 ffcd 	bl	80019ec <HAL_NVIC_EnableIRQ>
 8000a52:	48a5      	ldr	r0, [pc, #660]	; (8000ce8 <main+0x600>)
 8000a54:	4ba5      	ldr	r3, [pc, #660]	; (8000cec <main+0x604>)
 8000a56:	6003      	str	r3, [r0, #0]
 8000a58:	f44f 0380 	mov.w	r3, #4194304	; 0x400000
 8000a5c:	6043      	str	r3, [r0, #4]
 8000a5e:	f44f 2380 	mov.w	r3, #262144	; 0x40000
 8000a62:	6083      	str	r3, [r0, #8]
 8000a64:	230d      	movs	r3, #13
 8000a66:	60c3      	str	r3, [r0, #12]
 8000a68:	f04f 7300 	mov.w	r3, #33554432	; 0x2000000
 8000a6c:	6103      	str	r3, [r0, #16]
 8000a6e:	2300      	movs	r3, #0
 8000a70:	6143      	str	r3, [r0, #20]
 8000a72:	f04f 5200 	mov.w	r2, #536870912	; 0x20000000
 8000a76:	6182      	str	r2, [r0, #24]
 8000a78:	61c3      	str	r3, [r0, #28]
 8000a7a:	6203      	str	r3, [r0, #32]
 8000a7c:	6243      	str	r3, [r0, #36]	; 0x24
 8000a7e:	6283      	str	r3, [r0, #40]	; 0x28
 8000a80:	62c3      	str	r3, [r0, #44]	; 0x2c
 8000a82:	6403      	str	r3, [r0, #64]	; 0x40
 8000a84:	6443      	str	r3, [r0, #68]	; 0x44
 8000a86:	f04f 4280 	mov.w	r2, #1073741824	; 0x40000000
 8000a8a:	6342      	str	r2, [r0, #52]	; 0x34
 8000a8c:	6383      	str	r3, [r0, #56]	; 0x38
 8000a8e:	63c3      	str	r3, [r0, #60]	; 0x3c
 8000a90:	6483      	str	r3, [r0, #72]	; 0x48
 8000a92:	2220      	movs	r2, #32
 8000a94:	64c2      	str	r2, [r0, #76]	; 0x4c
 8000a96:	6503      	str	r3, [r0, #80]	; 0x50
 8000a98:	6543      	str	r3, [r0, #84]	; 0x54
 8000a9a:	6583      	str	r3, [r0, #88]	; 0x58
 8000a9c:	f004 ff18 	bl	80058d0 <HAL_SPI_Init>
 8000aa0:	2800      	cmp	r0, #0
 8000aa2:	f040 80da 	bne.w	8000c5a <main+0x572>
 8000aa6:	4892      	ldr	r0, [pc, #584]	; (8000cf0 <main+0x608>)
 8000aa8:	4b92      	ldr	r3, [pc, #584]	; (8000cf4 <main+0x60c>)
 8000aaa:	6003      	str	r3, [r0, #0]
 8000aac:	f44f 0380 	mov.w	r3, #4194304	; 0x400000
 8000ab0:	6043      	str	r3, [r0, #4]
 8000ab2:	f44f 2380 	mov.w	r3, #262144	; 0x40000
 8000ab6:	6083      	str	r3, [r0, #8]
 8000ab8:	230d      	movs	r3, #13
 8000aba:	60c3      	str	r3, [r0, #12]
 8000abc:	f04f 7300 	mov.w	r3, #33554432	; 0x2000000
 8000ac0:	6103      	str	r3, [r0, #16]
 8000ac2:	2300      	movs	r3, #0
 8000ac4:	6143      	str	r3, [r0, #20]
 8000ac6:	f04f 5200 	mov.w	r2, #536870912	; 0x20000000
 8000aca:	6182      	str	r2, [r0, #24]
 8000acc:	61c3      	str	r3, [r0, #28]
 8000ace:	6203      	str	r3, [r0, #32]
 8000ad0:	6243      	str	r3, [r0, #36]	; 0x24
 8000ad2:	6283      	str	r3, [r0, #40]	; 0x28
 8000ad4:	62c3      	str	r3, [r0, #44]	; 0x2c
 8000ad6:	6403      	str	r3, [r0, #64]	; 0x40
 8000ad8:	6443      	str	r3, [r0, #68]	; 0x44
 8000ada:	f04f 4280 	mov.w	r2, #1073741824	; 0x40000000
 8000ade:	6342      	str	r2, [r0, #52]	; 0x34
 8000ae0:	6383      	str	r3, [r0, #56]	; 0x38
 8000ae2:	63c3      	str	r3, [r0, #60]	; 0x3c
 8000ae4:	6483      	str	r3, [r0, #72]	; 0x48
 8000ae6:	2220      	movs	r2, #32
 8000ae8:	64c2      	str	r2, [r0, #76]	; 0x4c
 8000aea:	6503      	str	r3, [r0, #80]	; 0x50
 8000aec:	6543      	str	r3, [r0, #84]	; 0x54
 8000aee:	6583      	str	r3, [r0, #88]	; 0x58
 8000af0:	f004 feee 	bl	80058d0 <HAL_SPI_Init>
 8000af4:	2800      	cmp	r0, #0
 8000af6:	f040 80b2 	bne.w	8000c5e <main+0x576>
 8000afa:	4b7f      	ldr	r3, [pc, #508]	; (8000cf8 <main+0x610>)
 8000afc:	681b      	ldr	r3, [r3, #0]
 8000afe:	b95b      	cbnz	r3, 8000b18 <main+0x430>
 8000b00:	2600      	movs	r6, #0
 8000b02:	2564      	movs	r5, #100	; 0x64
 8000b04:	4c7c      	ldr	r4, [pc, #496]	; (8000cf8 <main+0x610>)
 8000b06:	4630      	mov	r0, r6
 8000b08:	f000 fda8 	bl	800165c <BSP_LED_Toggle>
 8000b0c:	4628      	mov	r0, r5
 8000b0e:	f000 ff01 	bl	8001914 <HAL_Delay>
 8000b12:	6823      	ldr	r3, [r4, #0]
 8000b14:	2b00      	cmp	r3, #0
 8000b16:	d0f6      	beq.n	8000b06 <main+0x41e>
 8000b18:	2000      	movs	r0, #0
 8000b1a:	4b77      	ldr	r3, [pc, #476]	; (8000cf8 <main+0x610>)
 8000b1c:	6018      	str	r0, [r3, #0]
 8000b1e:	f000 fd87 	bl	8001630 <BSP_LED_Off>
 8000b22:	2001      	movs	r0, #1
 8000b24:	f000 fd84 	bl	8001630 <BSP_LED_Off>
 8000b28:	2002      	movs	r0, #2
 8000b2a:	f000 fd81 	bl	8001630 <BSP_LED_Off>
 8000b2e:	4a6e      	ldr	r2, [pc, #440]	; (8000ce8 <main+0x600>)
 8000b30:	6811      	ldr	r1, [r2, #0]
 8000b32:	680b      	ldr	r3, [r1, #0]
 8000b34:	f423 6300 	bic.w	r3, r3, #2048	; 0x800
 8000b38:	600b      	str	r3, [r1, #0]
 8000b3a:	486d      	ldr	r0, [pc, #436]	; (8000cf0 <main+0x608>)
 8000b3c:	6801      	ldr	r1, [r0, #0]
 8000b3e:	680b      	ldr	r3, [r1, #0]
 8000b40:	f423 6300 	bic.w	r3, r3, #2048	; 0x800
 8000b44:	600b      	str	r3, [r1, #0]
 8000b46:	6fd2      	ldr	r2, [r2, #124]	; 0x7c
 8000b48:	4b6c      	ldr	r3, [pc, #432]	; (8000cfc <main+0x614>)
 8000b4a:	6413      	str	r3, [r2, #64]	; 0x40
 8000b4c:	6fc2      	ldr	r2, [r0, #124]	; 0x7c
 8000b4e:	6413      	str	r3, [r2, #64]	; 0x40
 8000b50:	4a6b      	ldr	r2, [pc, #428]	; (8000d00 <main+0x618>)
 8000b52:	6813      	ldr	r3, [r2, #0]
 8000b54:	f043 0318 	orr.w	r3, r3, #24
 8000b58:	6013      	str	r3, [r2, #0]
 8000b5a:	3218      	adds	r2, #24
 8000b5c:	6813      	ldr	r3, [r2, #0]
 8000b5e:	f043 0318 	orr.w	r3, r3, #24
 8000b62:	6013      	str	r3, [r2, #0]
 8000b64:	6801      	ldr	r1, [r0, #0]
 8000b66:	f44f 53c0 	mov.w	r3, #6144	; 0x1800
 8000b6a:	4a66      	ldr	r2, [pc, #408]	; (8000d04 <main+0x61c>)
 8000b6c:	3130      	adds	r1, #48	; 0x30
 8000b6e:	6fc0      	ldr	r0, [r0, #124]	; 0x7c
 8000b70:	f001 fbf6 	bl	8002360 <HAL_DMA_Start>
 8000b74:	2800      	cmp	r0, #0
 8000b76:	d174      	bne.n	8000c62 <main+0x57a>
 8000b78:	4b5b      	ldr	r3, [pc, #364]	; (8000ce8 <main+0x600>)
 8000b7a:	681b      	ldr	r3, [r3, #0]
 8000b7c:	685a      	ldr	r2, [r3, #4]
 8000b7e:	4c62      	ldr	r4, [pc, #392]	; (8000d08 <main+0x620>)
 8000b80:	4022      	ands	r2, r4
 8000b82:	605a      	str	r2, [r3, #4]
 8000b84:	495a      	ldr	r1, [pc, #360]	; (8000cf0 <main+0x608>)
 8000b86:	680a      	ldr	r2, [r1, #0]
 8000b88:	6850      	ldr	r0, [r2, #4]
 8000b8a:	4020      	ands	r0, r4
 8000b8c:	6050      	str	r0, [r2, #4]
 8000b8e:	6898      	ldr	r0, [r3, #8]
 8000b90:	f440 4080 	orr.w	r0, r0, #16384	; 0x4000
 8000b94:	6098      	str	r0, [r3, #8]
 8000b96:	6890      	ldr	r0, [r2, #8]
 8000b98:	f440 4080 	orr.w	r0, r0, #16384	; 0x4000
 8000b9c:	6090      	str	r0, [r2, #8]
 8000b9e:	6918      	ldr	r0, [r3, #16]
 8000ba0:	f440 7050 	orr.w	r0, r0, #832	; 0x340
 8000ba4:	6118      	str	r0, [r3, #16]
 8000ba6:	6910      	ldr	r0, [r2, #16]
 8000ba8:	f440 7050 	orr.w	r0, r0, #832	; 0x340
 8000bac:	6110      	str	r0, [r2, #16]
 8000bae:	681a      	ldr	r2, [r3, #0]
 8000bb0:	f042 0201 	orr.w	r2, r2, #1
 8000bb4:	601a      	str	r2, [r3, #0]
 8000bb6:	680a      	ldr	r2, [r1, #0]
 8000bb8:	6813      	ldr	r3, [r2, #0]
 8000bba:	f043 0301 	orr.w	r3, r3, #1
 8000bbe:	6013      	str	r3, [r2, #0]
 8000bc0:	680a      	ldr	r2, [r1, #0]
 8000bc2:	6813      	ldr	r3, [r2, #0]
 8000bc4:	f443 7300 	orr.w	r3, r3, #512	; 0x200
 8000bc8:	6013      	str	r3, [r2, #0]
 8000bca:	4b50      	ldr	r3, [pc, #320]	; (8000d0c <main+0x624>)
 8000bcc:	681b      	ldr	r3, [r3, #0]
 8000bce:	2b01      	cmp	r3, #1
 8000bd0:	d00b      	beq.n	8000bea <main+0x502>
 8000bd2:	2614      	movs	r6, #20
 8000bd4:	2502      	movs	r5, #2
 8000bd6:	4c4d      	ldr	r4, [pc, #308]	; (8000d0c <main+0x624>)
 8000bd8:	4630      	mov	r0, r6
 8000bda:	f000 fe9b 	bl	8001914 <HAL_Delay>
 8000bde:	4628      	mov	r0, r5
 8000be0:	f000 fd3c 	bl	800165c <BSP_LED_Toggle>
 8000be4:	6823      	ldr	r3, [r4, #0]
 8000be6:	2b01      	cmp	r3, #1
 8000be8:	d1f6      	bne.n	8000bd8 <main+0x4f0>
 8000bea:	2000      	movs	r0, #0
 8000bec:	4b47      	ldr	r3, [pc, #284]	; (8000d0c <main+0x624>)
 8000bee:	6018      	str	r0, [r3, #0]
 8000bf0:	f000 fd1e 	bl	8001630 <BSP_LED_Off>
 8000bf4:	2001      	movs	r0, #1
 8000bf6:	f000 fd1b 	bl	8001630 <BSP_LED_Off>
 8000bfa:	2002      	movs	r0, #2
 8000bfc:	f000 fd18 	bl	8001630 <BSP_LED_Off>
 8000c00:	4b43      	ldr	r3, [pc, #268]	; (8000d10 <main+0x628>)
 8000c02:	8a9b      	ldrh	r3, [r3, #20]
 8000c04:	b29b      	uxth	r3, r3
 8000c06:	4a43      	ldr	r2, [pc, #268]	; (8000d14 <main+0x62c>)
 8000c08:	8013      	strh	r3, [r2, #0]
 8000c0a:	2201      	movs	r2, #1
 8000c0c:	230a      	movs	r3, #10
 8000c0e:	4d40      	ldr	r5, [pc, #256]	; (8000d10 <main+0x628>)
 8000c10:	4c40      	ldr	r4, [pc, #256]	; (8000d14 <main+0x62c>)
 8000c12:	f640 4007 	movw	r0, #3079	; 0xc07
 8000c16:	3303      	adds	r3, #3
 8000c18:	f835 1013 	ldrh.w	r1, [r5, r3, lsl #1]
 8000c1c:	b289      	uxth	r1, r1
 8000c1e:	f824 1012 	strh.w	r1, [r4, r2, lsl #1]
 8000c22:	3201      	adds	r2, #1
 8000c24:	4283      	cmp	r3, r0
 8000c26:	d1f6      	bne.n	8000c16 <main+0x52e>
 8000c28:	f44f 6200 	mov.w	r2, #2048	; 0x800
 8000c2c:	4939      	ldr	r1, [pc, #228]	; (8000d14 <main+0x62c>)
 8000c2e:	483a      	ldr	r0, [pc, #232]	; (8000d18 <main+0x630>)
 8000c30:	f005 f870 	bl	8005d14 <HAL_UART_Transmit_DMA>
 8000c34:	b308      	cbz	r0, 8000c7a <main+0x592>
 8000c36:	f7ff fcdd 	bl	80005f4 <Error_Handler>
 8000c3a:	f7ff fcdb 	bl	80005f4 <Error_Handler>
 8000c3e:	f7ff fcd9 	bl	80005f4 <Error_Handler>
 8000c42:	f7ff fcd7 	bl	80005f4 <Error_Handler>
 8000c46:	f7ff fcd5 	bl	80005f4 <Error_Handler>
 8000c4a:	f7ff fcd3 	bl	80005f4 <Error_Handler>
 8000c4e:	f7ff fcd1 	bl	80005f4 <Error_Handler>
 8000c52:	f7ff fccf 	bl	80005f4 <Error_Handler>
 8000c56:	f7ff fccd 	bl	80005f4 <Error_Handler>
 8000c5a:	f7ff fccb 	bl	80005f4 <Error_Handler>
 8000c5e:	f7ff fcc9 	bl	80005f4 <Error_Handler>
 8000c62:	4b23      	ldr	r3, [pc, #140]	; (8000cf0 <main+0x608>)
 8000c64:	f8d3 2084 	ldr.w	r2, [r3, #132]	; 0x84
 8000c68:	f042 0210 	orr.w	r2, r2, #16
 8000c6c:	f8c3 2084 	str.w	r2, [r3, #132]	; 0x84
 8000c70:	2201      	movs	r2, #1
 8000c72:	f883 2081 	strb.w	r2, [r3, #129]	; 0x81
 8000c76:	f7ff fcbd 	bl	80005f4 <Error_Handler>
 8000c7a:	f000 fe5f 	bl	800193c <HAL_SuspendTick>
 8000c7e:	2027      	movs	r0, #39	; 0x27
 8000c80:	f000 fec2 	bl	8001a08 <HAL_NVIC_DisableIRQ>
 8000c84:	200c      	movs	r0, #12
 8000c86:	f000 febf 	bl	8001a08 <HAL_NVIC_DisableIRQ>
 8000c8a:	2038      	movs	r0, #56	; 0x38
 8000c8c:	f000 febc 	bl	8001a08 <HAL_NVIC_DisableIRQ>
 8000c90:	2039      	movs	r0, #57	; 0x39
 8000c92:	f000 feb9 	bl	8001a08 <HAL_NVIC_DisableIRQ>
 8000c96:	2000      	movs	r0, #0
 8000c98:	f000 fcca 	bl	8001630 <BSP_LED_Off>
 8000c9c:	2001      	movs	r0, #1
 8000c9e:	f000 fcc7 	bl	8001630 <BSP_LED_Off>
 8000ca2:	2002      	movs	r0, #2
 8000ca4:	f000 fcc4 	bl	8001630 <BSP_LED_Off>
 8000ca8:	4c1c      	ldr	r4, [pc, #112]	; (8000d1c <main+0x634>)
 8000caa:	4a19      	ldr	r2, [pc, #100]	; (8000d10 <main+0x628>)
 8000cac:	ed9f 6b06 	vldr	d6, [pc, #24]	; 8000cc8 <main+0x5e0>
 8000cb0:	ed9f 3b07 	vldr	d3, [pc, #28]	; 8000cd0 <main+0x5e8>
 8000cb4:	ed9f 4b08 	vldr	d4, [pc, #32]	; 8000cd8 <main+0x5f0>
 8000cb8:	ed9f 5b09 	vldr	d5, [pc, #36]	; 8000ce0 <main+0x5f8>
 8000cbc:	f243 0712 	movw	r7, #12306	; 0x3012
 8000cc0:	4417      	add	r7, r2
 8000cc2:	4d17      	ldr	r5, [pc, #92]	; (8000d20 <main+0x638>)
 8000cc4:	4e17      	ldr	r6, [pc, #92]	; (8000d24 <main+0x63c>)
 8000cc6:	e041      	b.n	8000d4c <main+0x664>
 8000cc8:	a8442c5f 	.word	0xa8442c5f
 8000ccc:	3f5fbb97 	.word	0x3f5fbb97
 8000cd0:	a840a7a7 	.word	0xa840a7a7
 8000cd4:	3f6fbb97 	.word	0x3f6fbb97
 8000cd8:	d3bb94c6 	.word	0xd3bb94c6
 8000cdc:	3ffdf285 	.word	0x3ffdf285
 8000ce0:	d6cbdf80 	.word	0xd6cbdf80
 8000ce4:	3fec2482 	.word	0x3fec2482
 8000ce8:	24009b9c 	.word	0x24009b9c
 8000cec:	40013000 	.word	0x40013000
 8000cf0:	2400988c 	.word	0x2400988c
 8000cf4:	40003800 	.word	0x40003800
 8000cf8:	2400003c 	.word	0x2400003c
 8000cfc:	080005d1 	.word	0x080005d1
 8000d00:	40020410 	.word	0x40020410
 8000d04:	24000054 	.word	0x24000054
 8000d08:	ffff0000 	.word	0xffff0000
 8000d0c:	24003860 	.word	0x24003860
 8000d10:	24000040 	.word	0x24000040
 8000d14:	24003060 	.word	0x24003060
 8000d18:	24009914 	.word	0x24009914
 8000d1c:	40020400 	.word	0x40020400
 8000d20:	40004800 	.word	0x40004800
 8000d24:	40020028 	.word	0x40020028
 8000d28:	69eb      	ldr	r3, [r5, #28]
 8000d2a:	f013 0f40 	tst.w	r3, #64	; 0x40
 8000d2e:	d0fb      	beq.n	8000d28 <main+0x640>
 8000d30:	2340      	movs	r3, #64	; 0x40
 8000d32:	622b      	str	r3, [r5, #32]
 8000d34:	4bb1      	ldr	r3, [pc, #708]	; (8000ffc <main+0x914>)
 8000d36:	f44f 6140 	mov.w	r1, #3072	; 0xc00
 8000d3a:	6099      	str	r1, [r3, #8]
 8000d3c:	6833      	ldr	r3, [r6, #0]
 8000d3e:	f043 0301 	orr.w	r3, r3, #1
 8000d42:	6033      	str	r3, [r6, #0]
 8000d44:	68ab      	ldr	r3, [r5, #8]
 8000d46:	f043 0380 	orr.w	r3, r3, #128	; 0x80
 8000d4a:	60ab      	str	r3, [r5, #8]
 8000d4c:	6823      	ldr	r3, [r4, #0]
 8000d4e:	f413 6f00 	tst.w	r3, #2048	; 0x800
 8000d52:	d0fb      	beq.n	8000d4c <main+0x664>
 8000d54:	f44f 6302 	mov.w	r3, #2080	; 0x820
 8000d58:	60a3      	str	r3, [r4, #8]
 8000d5a:	48a9      	ldr	r0, [pc, #676]	; (8001000 <main+0x918>)
 8000d5c:	f04f 0c00 	mov.w	ip, #0
 8000d60:	f640 410a 	movw	r1, #3082	; 0xc0a
 8000d64:	f8df 82a0 	ldr.w	r8, [pc, #672]	; 8001008 <main+0x920>
 8000d68:	f641 0e0a 	movw	lr, #6154	; 0x180a
 8000d6c:	f832 3011 	ldrh.w	r3, [r2, r1, lsl #1]
 8000d70:	b29b      	uxth	r3, r3
 8000d72:	ee01 3a10 	vmov	s2, r3
 8000d76:	f101 39ff 	add.w	r9, r1, #4294967295
 8000d7a:	f832 3019 	ldrh.w	r3, [r2, r9, lsl #1]
 8000d7e:	b29b      	uxth	r3, r3
 8000d80:	ee02 3a10 	vmov	s4, r3
 8000d84:	1e8b      	subs	r3, r1, #2
 8000d86:	f832 3013 	ldrh.w	r3, [r2, r3, lsl #1]
 8000d8a:	b29b      	uxth	r3, r3
 8000d8c:	ed90 7a01 	vldr	s14, [r0, #4]
 8000d90:	eeb7 7ac7 	vcvt.f64.f32	d7, s14
 8000d94:	eeb8 1bc1 	vcvt.f64.s32	d1, s2
 8000d98:	eeb8 2bc2 	vcvt.f64.s32	d2, s4
 8000d9c:	ee22 2b03 	vmul.f64	d2, d2, d3
 8000da0:	ee01 2b06 	vmla.f64	d2, d1, d6
 8000da4:	ee01 3a90 	vmov	s3, r3
 8000da8:	eeb8 1be1 	vcvt.f64.s32	d1, s3
 8000dac:	ee01 2b06 	vmla.f64	d2, d1, d6
 8000db0:	ee07 2b04 	vmla.f64	d2, d7, d4
 8000db4:	ed90 1a00 	vldr	s2, [r0]
 8000db8:	eeb7 1ac1 	vcvt.f64.f32	d1, s2
 8000dbc:	ee01 2b45 	vmls.f64	d2, d1, d5
 8000dc0:	eeb7 2bc2 	vcvt.f32.f64	s4, d2
 8000dc4:	ed80 2a02 	vstr	s4, [r0, #8]
 8000dc8:	f101 0a01 	add.w	sl, r1, #1
 8000dcc:	f832 301a 	ldrh.w	r3, [r2, sl, lsl #1]
 8000dd0:	b29b      	uxth	r3, r3
 8000dd2:	ee00 3a10 	vmov	s0, r3
 8000dd6:	f832 3011 	ldrh.w	r3, [r2, r1, lsl #1]
 8000dda:	b29b      	uxth	r3, r3
 8000ddc:	ee01 3a10 	vmov	s2, r3
 8000de0:	f832 3019 	ldrh.w	r3, [r2, r9, lsl #1]
 8000de4:	b29b      	uxth	r3, r3
 8000de6:	eeb7 2ac2 	vcvt.f64.f32	d2, s4
 8000dea:	eeb8 0bc0 	vcvt.f64.s32	d0, s0
 8000dee:	eeb8 1bc1 	vcvt.f64.s32	d1, s2
 8000df2:	ee21 1b03 	vmul.f64	d1, d1, d3
 8000df6:	ee00 1b06 	vmla.f64	d1, d0, d6
 8000dfa:	ee00 3a90 	vmov	s1, r3
 8000dfe:	eeb8 0be0 	vcvt.f64.s32	d0, s1
 8000e02:	ee00 1b06 	vmla.f64	d1, d0, d6
 8000e06:	ee02 1b04 	vmla.f64	d1, d2, d4
 8000e0a:	ee07 1b45 	vmls.f64	d1, d7, d5
 8000e0e:	eeb7 1bc1 	vcvt.f32.f64	s2, d1
 8000e12:	ed80 1a03 	vstr	s2, [r0, #12]
 8000e16:	1c8b      	adds	r3, r1, #2
 8000e18:	f832 3013 	ldrh.w	r3, [r2, r3, lsl #1]
 8000e1c:	b29b      	uxth	r3, r3
 8000e1e:	ee00 3a10 	vmov	s0, r3
 8000e22:	f832 301a 	ldrh.w	r3, [r2, sl, lsl #1]
 8000e26:	b29b      	uxth	r3, r3
 8000e28:	ee07 3a10 	vmov	s14, r3
 8000e2c:	f832 3011 	ldrh.w	r3, [r2, r1, lsl #1]
 8000e30:	b29b      	uxth	r3, r3
 8000e32:	eeb8 0bc0 	vcvt.f64.s32	d0, s0
 8000e36:	eeb8 7bc7 	vcvt.f64.s32	d7, s14
 8000e3a:	ee27 7b03 	vmul.f64	d7, d7, d3
 8000e3e:	ee00 7b06 	vmla.f64	d7, d0, d6
 8000e42:	ee01 3a90 	vmov	s3, r3
 8000e46:	eeb8 0be1 	vcvt.f64.s32	d0, s3
 8000e4a:	ee00 7b06 	vmla.f64	d7, d0, d6
 8000e4e:	eeb7 1ac1 	vcvt.f64.f32	d1, s2
 8000e52:	ee01 7b04 	vmla.f64	d7, d1, d4
 8000e56:	ee02 7b45 	vmls.f64	d7, d2, d5
 8000e5a:	eeb7 7bc7 	vcvt.f32.f64	s14, d7
 8000e5e:	ed80 7a04 	vstr	s14, [r0, #16]
 8000e62:	eebc 7ac7 	vcvt.u32.f32	s14, s14
 8000e66:	ee17 3a10 	vmov	r3, s14
 8000e6a:	b29b      	uxth	r3, r3
 8000e6c:	f828 301c 	strh.w	r3, [r8, ip, lsl #1]
 8000e70:	3103      	adds	r1, #3
 8000e72:	f10c 0c01 	add.w	ip, ip, #1
 8000e76:	300c      	adds	r0, #12
 8000e78:	4571      	cmp	r1, lr
 8000e7a:	f47f af77 	bne.w	8000d6c <main+0x684>
 8000e7e:	4b61      	ldr	r3, [pc, #388]	; (8001004 <main+0x91c>)
 8000e80:	f246 0124 	movw	r1, #24612	; 0x6024
 8000e84:	4419      	add	r1, r3
 8000e86:	6809      	ldr	r1, [r1, #0]
 8000e88:	6259      	str	r1, [r3, #36]	; 0x24
 8000e8a:	8839      	ldrh	r1, [r7, #0]
 8000e8c:	b289      	uxth	r1, r1
 8000e8e:	8251      	strh	r1, [r2, #18]
 8000e90:	f246 0120 	movw	r1, #24608	; 0x6020
 8000e94:	4419      	add	r1, r3
 8000e96:	6809      	ldr	r1, [r1, #0]
 8000e98:	6219      	str	r1, [r3, #32]
 8000e9a:	f243 0310 	movw	r3, #12304	; 0x3010
 8000e9e:	5ad3      	ldrh	r3, [r2, r3]
 8000ea0:	b29b      	uxth	r3, r3
 8000ea2:	8213      	strh	r3, [r2, #16]
 8000ea4:	69eb      	ldr	r3, [r5, #28]
 8000ea6:	f013 0f40 	tst.w	r3, #64	; 0x40
 8000eaa:	d0fb      	beq.n	8000ea4 <main+0x7bc>
 8000eac:	2340      	movs	r3, #64	; 0x40
 8000eae:	622b      	str	r3, [r5, #32]
 8000eb0:	4b52      	ldr	r3, [pc, #328]	; (8000ffc <main+0x914>)
 8000eb2:	f44f 6140 	mov.w	r1, #3072	; 0xc00
 8000eb6:	6099      	str	r1, [r3, #8]
 8000eb8:	6833      	ldr	r3, [r6, #0]
 8000eba:	f043 0301 	orr.w	r3, r3, #1
 8000ebe:	6033      	str	r3, [r6, #0]
 8000ec0:	68ab      	ldr	r3, [r5, #8]
 8000ec2:	f043 0380 	orr.w	r3, r3, #128	; 0x80
 8000ec6:	60ab      	str	r3, [r5, #8]
 8000ec8:	6823      	ldr	r3, [r4, #0]
 8000eca:	f413 6f80 	tst.w	r3, #1024	; 0x400
 8000ece:	d0fb      	beq.n	8000ec8 <main+0x7e0>
 8000ed0:	f44f 6382 	mov.w	r3, #1040	; 0x410
 8000ed4:	60a3      	str	r3, [r4, #8]
 8000ed6:	484b      	ldr	r0, [pc, #300]	; (8001004 <main+0x91c>)
 8000ed8:	f04f 0c00 	mov.w	ip, #0
 8000edc:	210a      	movs	r1, #10
 8000ede:	f8df 8128 	ldr.w	r8, [pc, #296]	; 8001008 <main+0x920>
 8000ee2:	f640 4e0a 	movw	lr, #3082	; 0xc0a
 8000ee6:	f832 3011 	ldrh.w	r3, [r2, r1, lsl #1]
 8000eea:	b29b      	uxth	r3, r3
 8000eec:	ee01 3a10 	vmov	s2, r3
 8000ef0:	f101 39ff 	add.w	r9, r1, #4294967295
 8000ef4:	f832 3019 	ldrh.w	r3, [r2, r9, lsl #1]
 8000ef8:	b29b      	uxth	r3, r3
 8000efa:	ee02 3a10 	vmov	s4, r3
 8000efe:	1e8b      	subs	r3, r1, #2
 8000f00:	f832 3013 	ldrh.w	r3, [r2, r3, lsl #1]
 8000f04:	b29b      	uxth	r3, r3
 8000f06:	ed90 7a09 	vldr	s14, [r0, #36]	; 0x24
 8000f0a:	eeb7 7ac7 	vcvt.f64.f32	d7, s14
 8000f0e:	eeb8 1bc1 	vcvt.f64.s32	d1, s2
 8000f12:	eeb8 2bc2 	vcvt.f64.s32	d2, s4
 8000f16:	ee22 2b03 	vmul.f64	d2, d2, d3
 8000f1a:	ee01 2b06 	vmla.f64	d2, d1, d6
 8000f1e:	ee01 3a90 	vmov	s3, r3
 8000f22:	eeb8 1be1 	vcvt.f64.s32	d1, s3
 8000f26:	ee01 2b06 	vmla.f64	d2, d1, d6
 8000f2a:	ee07 2b04 	vmla.f64	d2, d7, d4
 8000f2e:	ed90 1a08 	vldr	s2, [r0, #32]
 8000f32:	eeb7 1ac1 	vcvt.f64.f32	d1, s2
 8000f36:	ee01 2b45 	vmls.f64	d2, d1, d5
 8000f3a:	eeb7 2bc2 	vcvt.f32.f64	s4, d2
 8000f3e:	ed80 2a0a 	vstr	s4, [r0, #40]	; 0x28
 8000f42:	f101 0a01 	add.w	sl, r1, #1
 8000f46:	f832 301a 	ldrh.w	r3, [r2, sl, lsl #1]
 8000f4a:	b29b      	uxth	r3, r3
 8000f4c:	ee00 3a10 	vmov	s0, r3
 8000f50:	f832 3011 	ldrh.w	r3, [r2, r1, lsl #1]
 8000f54:	b29b      	uxth	r3, r3
 8000f56:	ee01 3a10 	vmov	s2, r3
 8000f5a:	f832 3019 	ldrh.w	r3, [r2, r9, lsl #1]
 8000f5e:	b29b      	uxth	r3, r3
 8000f60:	eeb7 2ac2 	vcvt.f64.f32	d2, s4
 8000f64:	eeb8 0bc0 	vcvt.f64.s32	d0, s0
 8000f68:	eeb8 1bc1 	vcvt.f64.s32	d1, s2
 8000f6c:	ee21 1b03 	vmul.f64	d1, d1, d3
 8000f70:	ee00 1b06 	vmla.f64	d1, d0, d6
 8000f74:	ee00 3a90 	vmov	s1, r3
 8000f78:	eeb8 0be0 	vcvt.f64.s32	d0, s1
 8000f7c:	ee00 1b06 	vmla.f64	d1, d0, d6
 8000f80:	ee02 1b04 	vmla.f64	d1, d2, d4
 8000f84:	ee07 1b45 	vmls.f64	d1, d7, d5
 8000f88:	eeb7 1bc1 	vcvt.f32.f64	s2, d1
 8000f8c:	ed80 1a0b 	vstr	s2, [r0, #44]	; 0x2c
 8000f90:	1c8b      	adds	r3, r1, #2
 8000f92:	f832 3013 	ldrh.w	r3, [r2, r3, lsl #1]
 8000f96:	b29b      	uxth	r3, r3
 8000f98:	ee00 3a10 	vmov	s0, r3
 8000f9c:	f832 301a 	ldrh.w	r3, [r2, sl, lsl #1]
 8000fa0:	b29b      	uxth	r3, r3
 8000fa2:	ee07 3a10 	vmov	s14, r3
 8000fa6:	f832 3011 	ldrh.w	r3, [r2, r1, lsl #1]
 8000faa:	b29b      	uxth	r3, r3
 8000fac:	eeb8 0bc0 	vcvt.f64.s32	d0, s0
 8000fb0:	eeb8 7bc7 	vcvt.f64.s32	d7, s14
 8000fb4:	ee27 7b03 	vmul.f64	d7, d7, d3
 8000fb8:	ee00 7b06 	vmla.f64	d7, d0, d6
 8000fbc:	ee01 3a90 	vmov	s3, r3
 8000fc0:	eeb8 0be1 	vcvt.f64.s32	d0, s3
 8000fc4:	ee00 7b06 	vmla.f64	d7, d0, d6
 8000fc8:	eeb7 1ac1 	vcvt.f64.f32	d1, s2
 8000fcc:	ee01 7b04 	vmla.f64	d7, d1, d4
 8000fd0:	ee02 7b45 	vmls.f64	d7, d2, d5
 8000fd4:	eeb7 7bc7 	vcvt.f32.f64	s14, d7
 8000fd8:	ed80 7a0c 	vstr	s14, [r0, #48]	; 0x30
 8000fdc:	eebc 7ac7 	vcvt.u32.f32	s14, s14
 8000fe0:	ee17 3a10 	vmov	r3, s14
 8000fe4:	b29b      	uxth	r3, r3
 8000fe6:	f828 301c 	strh.w	r3, [r8, ip, lsl #1]
 8000fea:	3103      	adds	r1, #3
 8000fec:	f10c 0c01 	add.w	ip, ip, #1
 8000ff0:	300c      	adds	r0, #12
 8000ff2:	4571      	cmp	r1, lr
 8000ff4:	f47f af77 	bne.w	8000ee6 <main+0x7fe>
 8000ff8:	e696      	b.n	8000d28 <main+0x640>
 8000ffa:	bf00      	nop
 8000ffc:	40020000 	.word	0x40020000
 8001000:	24006884 	.word	0x24006884
 8001004:	24003864 	.word	0x24003864
 8001008:	24003060 	.word	0x24003060

0800100c <HAL_SPI_ErrorCallback>:
 800100c:	b508      	push	{r3, lr}
 800100e:	4b02      	ldr	r3, [pc, #8]	; (8001018 <HAL_SPI_ErrorCallback+0xc>)
 8001010:	2202      	movs	r2, #2
 8001012:	601a      	str	r2, [r3, #0]
 8001014:	f7ff faee 	bl	80005f4 <Error_Handler>
 8001018:	24003860 	.word	0x24003860

0800101c <HAL_UART_ErrorCallback>:
 800101c:	b508      	push	{r3, lr}
 800101e:	2002      	movs	r0, #2
 8001020:	f000 faf0 	bl	8001604 <BSP_LED_On>
 8001024:	f7ff fae6 	bl	80005f4 <Error_Handler>

08001028 <HAL_MspInit>:
 8001028:	b082      	sub	sp, #8
 800102a:	4b07      	ldr	r3, [pc, #28]	; (8001048 <HAL_MspInit+0x20>)
 800102c:	f8d3 20f4 	ldr.w	r2, [r3, #244]	; 0xf4
 8001030:	f042 0202 	orr.w	r2, r2, #2
 8001034:	f8c3 20f4 	str.w	r2, [r3, #244]	; 0xf4
 8001038:	f8d3 30f4 	ldr.w	r3, [r3, #244]	; 0xf4
 800103c:	f003 0302 	and.w	r3, r3, #2
 8001040:	9301      	str	r3, [sp, #4]
 8001042:	9b01      	ldr	r3, [sp, #4]
 8001044:	b002      	add	sp, #8
 8001046:	4770      	bx	lr
 8001048:	58024400 	.word	0x58024400

0800104c <HAL_SPI_MspInit>:
 800104c:	b5f0      	push	{r4, r5, r6, r7, lr}
 800104e:	b0bb      	sub	sp, #236	; 0xec
 8001050:	4604      	mov	r4, r0
 8001052:	2100      	movs	r1, #0
 8001054:	9135      	str	r1, [sp, #212]	; 0xd4
 8001056:	9136      	str	r1, [sp, #216]	; 0xd8
 8001058:	9137      	str	r1, [sp, #220]	; 0xdc
 800105a:	9138      	str	r1, [sp, #224]	; 0xe0
 800105c:	9139      	str	r1, [sp, #228]	; 0xe4
 800105e:	22bc      	movs	r2, #188	; 0xbc
 8001060:	a806      	add	r0, sp, #24
 8001062:	f005 fddd 	bl	8006c20 <memset>
 8001066:	6822      	ldr	r2, [r4, #0]
 8001068:	4b86      	ldr	r3, [pc, #536]	; (8001284 <HAL_SPI_MspInit+0x238>)
 800106a:	429a      	cmp	r2, r3
 800106c:	d005      	beq.n	800107a <HAL_SPI_MspInit+0x2e>
 800106e:	6822      	ldr	r2, [r4, #0]
 8001070:	4b85      	ldr	r3, [pc, #532]	; (8001288 <HAL_SPI_MspInit+0x23c>)
 8001072:	429a      	cmp	r2, r3
 8001074:	d06d      	beq.n	8001152 <HAL_SPI_MspInit+0x106>
 8001076:	b03b      	add	sp, #236	; 0xec
 8001078:	bdf0      	pop	{r4, r5, r6, r7, pc}
 800107a:	f44f 5380 	mov.w	r3, #4096	; 0x1000
 800107e:	9306      	str	r3, [sp, #24]
 8001080:	931d      	str	r3, [sp, #116]	; 0x74
 8001082:	2304      	movs	r3, #4
 8001084:	9307      	str	r3, [sp, #28]
 8001086:	f44f 7392 	mov.w	r3, #292	; 0x124
 800108a:	9308      	str	r3, [sp, #32]
 800108c:	230b      	movs	r3, #11
 800108e:	9309      	str	r3, [sp, #36]	; 0x24
 8001090:	2302      	movs	r3, #2
 8001092:	930a      	str	r3, [sp, #40]	; 0x28
 8001094:	930b      	str	r3, [sp, #44]	; 0x2c
 8001096:	2340      	movs	r3, #64	; 0x40
 8001098:	930c      	str	r3, [sp, #48]	; 0x30
 800109a:	2300      	movs	r3, #0
 800109c:	930d      	str	r3, [sp, #52]	; 0x34
 800109e:	930e      	str	r3, [sp, #56]	; 0x38
 80010a0:	a806      	add	r0, sp, #24
 80010a2:	f003 fcbb 	bl	8004a1c <HAL_RCCEx_PeriphCLKConfig>
 80010a6:	2800      	cmp	r0, #0
 80010a8:	d14d      	bne.n	8001146 <HAL_SPI_MspInit+0xfa>
 80010aa:	4b78      	ldr	r3, [pc, #480]	; (800128c <HAL_SPI_MspInit+0x240>)
 80010ac:	f8d3 20f0 	ldr.w	r2, [r3, #240]	; 0xf0
 80010b0:	f442 5280 	orr.w	r2, r2, #4096	; 0x1000
 80010b4:	f8c3 20f0 	str.w	r2, [r3, #240]	; 0xf0
 80010b8:	f8d3 20f0 	ldr.w	r2, [r3, #240]	; 0xf0
 80010bc:	f402 5280 	and.w	r2, r2, #4096	; 0x1000
 80010c0:	9200      	str	r2, [sp, #0]
 80010c2:	9a00      	ldr	r2, [sp, #0]
 80010c4:	f8d3 20e0 	ldr.w	r2, [r3, #224]	; 0xe0
 80010c8:	f042 0201 	orr.w	r2, r2, #1
 80010cc:	f8c3 20e0 	str.w	r2, [r3, #224]	; 0xe0
 80010d0:	f8d3 30e0 	ldr.w	r3, [r3, #224]	; 0xe0
 80010d4:	f003 0301 	and.w	r3, r3, #1
 80010d8:	9301      	str	r3, [sp, #4]
 80010da:	9b01      	ldr	r3, [sp, #4]
 80010dc:	f248 0360 	movw	r3, #32864	; 0x8060
 80010e0:	9335      	str	r3, [sp, #212]	; 0xd4
 80010e2:	2302      	movs	r3, #2
 80010e4:	9336      	str	r3, [sp, #216]	; 0xd8
 80010e6:	2500      	movs	r5, #0
 80010e8:	9537      	str	r5, [sp, #220]	; 0xdc
 80010ea:	9338      	str	r3, [sp, #224]	; 0xe0
 80010ec:	2305      	movs	r3, #5
 80010ee:	9339      	str	r3, [sp, #228]	; 0xe4
 80010f0:	a935      	add	r1, sp, #212	; 0xd4
 80010f2:	4867      	ldr	r0, [pc, #412]	; (8001290 <HAL_SPI_MspInit+0x244>)
 80010f4:	f002 fc8c 	bl	8003a10 <HAL_GPIO_Init>
 80010f8:	4866      	ldr	r0, [pc, #408]	; (8001294 <HAL_SPI_MspInit+0x248>)
 80010fa:	4b67      	ldr	r3, [pc, #412]	; (8001298 <HAL_SPI_MspInit+0x24c>)
 80010fc:	6003      	str	r3, [r0, #0]
 80010fe:	2325      	movs	r3, #37	; 0x25
 8001100:	6043      	str	r3, [r0, #4]
 8001102:	6085      	str	r5, [r0, #8]
 8001104:	60c5      	str	r5, [r0, #12]
 8001106:	f44f 6380 	mov.w	r3, #1024	; 0x400
 800110a:	6103      	str	r3, [r0, #16]
 800110c:	f44f 6300 	mov.w	r3, #2048	; 0x800
 8001110:	6143      	str	r3, [r0, #20]
 8001112:	f44f 5300 	mov.w	r3, #8192	; 0x2000
 8001116:	6183      	str	r3, [r0, #24]
 8001118:	f44f 7380 	mov.w	r3, #256	; 0x100
 800111c:	61c3      	str	r3, [r0, #28]
 800111e:	6205      	str	r5, [r0, #32]
 8001120:	6245      	str	r5, [r0, #36]	; 0x24
 8001122:	6285      	str	r5, [r0, #40]	; 0x28
 8001124:	62c5      	str	r5, [r0, #44]	; 0x2c
 8001126:	6305      	str	r5, [r0, #48]	; 0x30
 8001128:	f000 fef2 	bl	8001f10 <HAL_DMA_Init>
 800112c:	b970      	cbnz	r0, 800114c <HAL_SPI_MspInit+0x100>
 800112e:	4b59      	ldr	r3, [pc, #356]	; (8001294 <HAL_SPI_MspInit+0x248>)
 8001130:	67e3      	str	r3, [r4, #124]	; 0x7c
 8001132:	639c      	str	r4, [r3, #56]	; 0x38
 8001134:	2200      	movs	r2, #0
 8001136:	4611      	mov	r1, r2
 8001138:	2023      	movs	r0, #35	; 0x23
 800113a:	f000 fc27 	bl	800198c <HAL_NVIC_SetPriority>
 800113e:	2023      	movs	r0, #35	; 0x23
 8001140:	f000 fc54 	bl	80019ec <HAL_NVIC_EnableIRQ>
 8001144:	e793      	b.n	800106e <HAL_SPI_MspInit+0x22>
 8001146:	f7ff fa55 	bl	80005f4 <Error_Handler>
 800114a:	e7ae      	b.n	80010aa <HAL_SPI_MspInit+0x5e>
 800114c:	f7ff fa52 	bl	80005f4 <Error_Handler>
 8001150:	e7ed      	b.n	800112e <HAL_SPI_MspInit+0xe2>
 8001152:	f44f 5380 	mov.w	r3, #4096	; 0x1000
 8001156:	9306      	str	r3, [sp, #24]
 8001158:	931d      	str	r3, [sp, #116]	; 0x74
 800115a:	2304      	movs	r3, #4
 800115c:	9307      	str	r3, [sp, #28]
 800115e:	f44f 7392 	mov.w	r3, #292	; 0x124
 8001162:	9308      	str	r3, [sp, #32]
 8001164:	230b      	movs	r3, #11
 8001166:	9309      	str	r3, [sp, #36]	; 0x24
 8001168:	2302      	movs	r3, #2
 800116a:	930a      	str	r3, [sp, #40]	; 0x28
 800116c:	930b      	str	r3, [sp, #44]	; 0x2c
 800116e:	2340      	movs	r3, #64	; 0x40
 8001170:	930c      	str	r3, [sp, #48]	; 0x30
 8001172:	2300      	movs	r3, #0
 8001174:	930d      	str	r3, [sp, #52]	; 0x34
 8001176:	930e      	str	r3, [sp, #56]	; 0x38
 8001178:	a806      	add	r0, sp, #24
 800117a:	f003 fc4f 	bl	8004a1c <HAL_RCCEx_PeriphCLKConfig>
 800117e:	2800      	cmp	r0, #0
 8001180:	d179      	bne.n	8001276 <HAL_SPI_MspInit+0x22a>
 8001182:	4b42      	ldr	r3, [pc, #264]	; (800128c <HAL_SPI_MspInit+0x240>)
 8001184:	f8d3 20e8 	ldr.w	r2, [r3, #232]	; 0xe8
 8001188:	f442 4280 	orr.w	r2, r2, #16384	; 0x4000
 800118c:	f8c3 20e8 	str.w	r2, [r3, #232]	; 0xe8
 8001190:	f8d3 20e8 	ldr.w	r2, [r3, #232]	; 0xe8
 8001194:	f402 4280 	and.w	r2, r2, #16384	; 0x4000
 8001198:	9202      	str	r2, [sp, #8]
 800119a:	9a02      	ldr	r2, [sp, #8]
 800119c:	f8d3 20e0 	ldr.w	r2, [r3, #224]	; 0xe0
 80011a0:	f042 0204 	orr.w	r2, r2, #4
 80011a4:	f8c3 20e0 	str.w	r2, [r3, #224]	; 0xe0
 80011a8:	f8d3 20e0 	ldr.w	r2, [r3, #224]	; 0xe0
 80011ac:	f002 0204 	and.w	r2, r2, #4
 80011b0:	9203      	str	r2, [sp, #12]
 80011b2:	9a03      	ldr	r2, [sp, #12]
 80011b4:	f8d3 20e0 	ldr.w	r2, [r3, #224]	; 0xe0
 80011b8:	f042 0202 	orr.w	r2, r2, #2
 80011bc:	f8c3 20e0 	str.w	r2, [r3, #224]	; 0xe0
 80011c0:	f8d3 20e0 	ldr.w	r2, [r3, #224]	; 0xe0
 80011c4:	f002 0202 	and.w	r2, r2, #2
 80011c8:	9204      	str	r2, [sp, #16]
 80011ca:	9a04      	ldr	r2, [sp, #16]
 80011cc:	f8d3 20e0 	ldr.w	r2, [r3, #224]	; 0xe0
 80011d0:	f042 0208 	orr.w	r2, r2, #8
 80011d4:	f8c3 20e0 	str.w	r2, [r3, #224]	; 0xe0
 80011d8:	f8d3 30e0 	ldr.w	r3, [r3, #224]	; 0xe0
 80011dc:	f003 0308 	and.w	r3, r3, #8
 80011e0:	9305      	str	r3, [sp, #20]
 80011e2:	9b05      	ldr	r3, [sp, #20]
 80011e4:	230c      	movs	r3, #12
 80011e6:	9335      	str	r3, [sp, #212]	; 0xd4
 80011e8:	2602      	movs	r6, #2
 80011ea:	9636      	str	r6, [sp, #216]	; 0xd8
 80011ec:	2500      	movs	r5, #0
 80011ee:	9537      	str	r5, [sp, #220]	; 0xdc
 80011f0:	9638      	str	r6, [sp, #224]	; 0xe0
 80011f2:	2705      	movs	r7, #5
 80011f4:	9739      	str	r7, [sp, #228]	; 0xe4
 80011f6:	a935      	add	r1, sp, #212	; 0xd4
 80011f8:	4828      	ldr	r0, [pc, #160]	; (800129c <HAL_SPI_MspInit+0x250>)
 80011fa:	f002 fc09 	bl	8003a10 <HAL_GPIO_Init>
 80011fe:	f44f 5380 	mov.w	r3, #4096	; 0x1000
 8001202:	9335      	str	r3, [sp, #212]	; 0xd4
 8001204:	9636      	str	r6, [sp, #216]	; 0xd8
 8001206:	9537      	str	r5, [sp, #220]	; 0xdc
 8001208:	9638      	str	r6, [sp, #224]	; 0xe0
 800120a:	9739      	str	r7, [sp, #228]	; 0xe4
 800120c:	a935      	add	r1, sp, #212	; 0xd4
 800120e:	4824      	ldr	r0, [pc, #144]	; (80012a0 <HAL_SPI_MspInit+0x254>)
 8001210:	f002 fbfe 	bl	8003a10 <HAL_GPIO_Init>
 8001214:	2308      	movs	r3, #8
 8001216:	9335      	str	r3, [sp, #212]	; 0xd4
 8001218:	9636      	str	r6, [sp, #216]	; 0xd8
 800121a:	9537      	str	r5, [sp, #220]	; 0xdc
 800121c:	9638      	str	r6, [sp, #224]	; 0xe0
 800121e:	9739      	str	r7, [sp, #228]	; 0xe4
 8001220:	a935      	add	r1, sp, #212	; 0xd4
 8001222:	4820      	ldr	r0, [pc, #128]	; (80012a4 <HAL_SPI_MspInit+0x258>)
 8001224:	f002 fbf4 	bl	8003a10 <HAL_GPIO_Init>
 8001228:	481f      	ldr	r0, [pc, #124]	; (80012a8 <HAL_SPI_MspInit+0x25c>)
 800122a:	4b20      	ldr	r3, [pc, #128]	; (80012ac <HAL_SPI_MspInit+0x260>)
 800122c:	6003      	str	r3, [r0, #0]
 800122e:	2327      	movs	r3, #39	; 0x27
 8001230:	6043      	str	r3, [r0, #4]
 8001232:	6085      	str	r5, [r0, #8]
 8001234:	60c5      	str	r5, [r0, #12]
 8001236:	f44f 6380 	mov.w	r3, #1024	; 0x400
 800123a:	6103      	str	r3, [r0, #16]
 800123c:	f44f 6300 	mov.w	r3, #2048	; 0x800
 8001240:	6143      	str	r3, [r0, #20]
 8001242:	f44f 5300 	mov.w	r3, #8192	; 0x2000
 8001246:	6183      	str	r3, [r0, #24]
 8001248:	f44f 7380 	mov.w	r3, #256	; 0x100
 800124c:	61c3      	str	r3, [r0, #28]
 800124e:	6205      	str	r5, [r0, #32]
 8001250:	6245      	str	r5, [r0, #36]	; 0x24
 8001252:	6285      	str	r5, [r0, #40]	; 0x28
 8001254:	62c5      	str	r5, [r0, #44]	; 0x2c
 8001256:	6305      	str	r5, [r0, #48]	; 0x30
 8001258:	f000 fe5a 	bl	8001f10 <HAL_DMA_Init>
 800125c:	b970      	cbnz	r0, 800127c <HAL_SPI_MspInit+0x230>
 800125e:	4b12      	ldr	r3, [pc, #72]	; (80012a8 <HAL_SPI_MspInit+0x25c>)
 8001260:	67e3      	str	r3, [r4, #124]	; 0x7c
 8001262:	639c      	str	r4, [r3, #56]	; 0x38
 8001264:	2200      	movs	r2, #0
 8001266:	4611      	mov	r1, r2
 8001268:	2024      	movs	r0, #36	; 0x24
 800126a:	f000 fb8f 	bl	800198c <HAL_NVIC_SetPriority>
 800126e:	2024      	movs	r0, #36	; 0x24
 8001270:	f000 fbbc 	bl	80019ec <HAL_NVIC_EnableIRQ>
 8001274:	e6ff      	b.n	8001076 <HAL_SPI_MspInit+0x2a>
 8001276:	f7ff f9bd 	bl	80005f4 <Error_Handler>
 800127a:	e782      	b.n	8001182 <HAL_SPI_MspInit+0x136>
 800127c:	f7ff f9ba 	bl	80005f4 <Error_Handler>
 8001280:	e7ed      	b.n	800125e <HAL_SPI_MspInit+0x212>
 8001282:	bf00      	nop
 8001284:	40013000 	.word	0x40013000
 8001288:	40003800 	.word	0x40003800
 800128c:	58024400 	.word	0x58024400
 8001290:	58020000 	.word	0x58020000
 8001294:	24009c24 	.word	0x24009c24
 8001298:	40020410 	.word	0x40020410
 800129c:	58020800 	.word	0x58020800
 80012a0:	58020400 	.word	0x58020400
 80012a4:	58020c00 	.word	0x58020c00
 80012a8:	240099a4 	.word	0x240099a4
 80012ac:	40020428 	.word	0x40020428

080012b0 <HAL_UART_MspInit>:
 80012b0:	e92d 41f0 	stmdb	sp!, {r4, r5, r6, r7, r8, lr}
 80012b4:	b0b8      	sub	sp, #224	; 0xe0
 80012b6:	4604      	mov	r4, r0
 80012b8:	2100      	movs	r1, #0
 80012ba:	9133      	str	r1, [sp, #204]	; 0xcc
 80012bc:	9134      	str	r1, [sp, #208]	; 0xd0
 80012be:	9135      	str	r1, [sp, #212]	; 0xd4
 80012c0:	9136      	str	r1, [sp, #216]	; 0xd8
 80012c2:	9137      	str	r1, [sp, #220]	; 0xdc
 80012c4:	22bc      	movs	r2, #188	; 0xbc
 80012c6:	a804      	add	r0, sp, #16
 80012c8:	f005 fcaa 	bl	8006c20 <memset>
 80012cc:	6823      	ldr	r3, [r4, #0]
 80012ce:	4a6a      	ldr	r2, [pc, #424]	; (8001478 <HAL_UART_MspInit+0x1c8>)
 80012d0:	4293      	cmp	r3, r2
 80012d2:	d005      	beq.n	80012e0 <HAL_UART_MspInit+0x30>
 80012d4:	4a69      	ldr	r2, [pc, #420]	; (800147c <HAL_UART_MspInit+0x1cc>)
 80012d6:	4293      	cmp	r3, r2
 80012d8:	d070      	beq.n	80013bc <HAL_UART_MspInit+0x10c>
 80012da:	b038      	add	sp, #224	; 0xe0
 80012dc:	e8bd 81f0 	ldmia.w	sp!, {r4, r5, r6, r7, r8, pc}
 80012e0:	2301      	movs	r3, #1
 80012e2:	9304      	str	r3, [sp, #16]
 80012e4:	2310      	movs	r3, #16
 80012e6:	9322      	str	r3, [sp, #136]	; 0x88
 80012e8:	2304      	movs	r3, #4
 80012ea:	930d      	str	r3, [sp, #52]	; 0x34
 80012ec:	f44f 73b8 	mov.w	r3, #368	; 0x170
 80012f0:	930e      	str	r3, [sp, #56]	; 0x38
 80012f2:	2309      	movs	r3, #9
 80012f4:	930f      	str	r3, [sp, #60]	; 0x3c
 80012f6:	2308      	movs	r3, #8
 80012f8:	9310      	str	r3, [sp, #64]	; 0x40
 80012fa:	2302      	movs	r3, #2
 80012fc:	9311      	str	r3, [sp, #68]	; 0x44
 80012fe:	f44f 6380 	mov.w	r3, #1024	; 0x400
 8001302:	9312      	str	r3, [sp, #72]	; 0x48
 8001304:	2300      	movs	r3, #0
 8001306:	9313      	str	r3, [sp, #76]	; 0x4c
 8001308:	9314      	str	r3, [sp, #80]	; 0x50
 800130a:	a804      	add	r0, sp, #16
 800130c:	f003 fb86 	bl	8004a1c <HAL_RCCEx_PeriphCLKConfig>
 8001310:	2800      	cmp	r0, #0
 8001312:	d14d      	bne.n	80013b0 <HAL_UART_MspInit+0x100>
 8001314:	4b5a      	ldr	r3, [pc, #360]	; (8001480 <HAL_UART_MspInit+0x1d0>)
 8001316:	f8d3 20f0 	ldr.w	r2, [r3, #240]	; 0xf0
 800131a:	f042 0210 	orr.w	r2, r2, #16
 800131e:	f8c3 20f0 	str.w	r2, [r3, #240]	; 0xf0
 8001322:	f8d3 20f0 	ldr.w	r2, [r3, #240]	; 0xf0
 8001326:	f002 0210 	and.w	r2, r2, #16
 800132a:	9200      	str	r2, [sp, #0]
 800132c:	9a00      	ldr	r2, [sp, #0]
 800132e:	f8d3 20e0 	ldr.w	r2, [r3, #224]	; 0xe0
 8001332:	f042 0202 	orr.w	r2, r2, #2
 8001336:	f8c3 20e0 	str.w	r2, [r3, #224]	; 0xe0
 800133a:	f8d3 30e0 	ldr.w	r3, [r3, #224]	; 0xe0
 800133e:	f003 0302 	and.w	r3, r3, #2
 8001342:	9301      	str	r3, [sp, #4]
 8001344:	9b01      	ldr	r3, [sp, #4]
 8001346:	f44f 4300 	mov.w	r3, #32768	; 0x8000
 800134a:	9333      	str	r3, [sp, #204]	; 0xcc
 800134c:	f04f 0802 	mov.w	r8, #2
 8001350:	f8cd 80d0 	str.w	r8, [sp, #208]	; 0xd0
 8001354:	2500      	movs	r5, #0
 8001356:	9535      	str	r5, [sp, #212]	; 0xd4
 8001358:	9536      	str	r5, [sp, #216]	; 0xd8
 800135a:	2304      	movs	r3, #4
 800135c:	9337      	str	r3, [sp, #220]	; 0xdc
 800135e:	4f49      	ldr	r7, [pc, #292]	; (8001484 <HAL_UART_MspInit+0x1d4>)
 8001360:	a933      	add	r1, sp, #204	; 0xcc
 8001362:	4638      	mov	r0, r7
 8001364:	f002 fb54 	bl	8003a10 <HAL_GPIO_Init>
 8001368:	2640      	movs	r6, #64	; 0x40
 800136a:	9633      	str	r6, [sp, #204]	; 0xcc
 800136c:	f8cd 80d0 	str.w	r8, [sp, #208]	; 0xd0
 8001370:	9535      	str	r5, [sp, #212]	; 0xd4
 8001372:	9536      	str	r5, [sp, #216]	; 0xd8
 8001374:	2307      	movs	r3, #7
 8001376:	9337      	str	r3, [sp, #220]	; 0xdc
 8001378:	a933      	add	r1, sp, #204	; 0xcc
 800137a:	4638      	mov	r0, r7
 800137c:	f002 fb48 	bl	8003a10 <HAL_GPIO_Init>
 8001380:	4841      	ldr	r0, [pc, #260]	; (8001488 <HAL_UART_MspInit+0x1d8>)
 8001382:	4b42      	ldr	r3, [pc, #264]	; (800148c <HAL_UART_MspInit+0x1dc>)
 8001384:	6003      	str	r3, [r0, #0]
 8001386:	232a      	movs	r3, #42	; 0x2a
 8001388:	6043      	str	r3, [r0, #4]
 800138a:	6086      	str	r6, [r0, #8]
 800138c:	60c5      	str	r5, [r0, #12]
 800138e:	f44f 6380 	mov.w	r3, #1024	; 0x400
 8001392:	6103      	str	r3, [r0, #16]
 8001394:	6145      	str	r5, [r0, #20]
 8001396:	f44f 5300 	mov.w	r3, #8192	; 0x2000
 800139a:	6183      	str	r3, [r0, #24]
 800139c:	61c5      	str	r5, [r0, #28]
 800139e:	6205      	str	r5, [r0, #32]
 80013a0:	6245      	str	r5, [r0, #36]	; 0x24
 80013a2:	f000 fdb5 	bl	8001f10 <HAL_DMA_Init>
 80013a6:	b930      	cbnz	r0, 80013b6 <HAL_UART_MspInit+0x106>
 80013a8:	4b37      	ldr	r3, [pc, #220]	; (8001488 <HAL_UART_MspInit+0x1d8>)
 80013aa:	67a3      	str	r3, [r4, #120]	; 0x78
 80013ac:	639c      	str	r4, [r3, #56]	; 0x38
 80013ae:	e794      	b.n	80012da <HAL_UART_MspInit+0x2a>
 80013b0:	f7ff f920 	bl	80005f4 <Error_Handler>
 80013b4:	e7ae      	b.n	8001314 <HAL_UART_MspInit+0x64>
 80013b6:	f7ff f91d 	bl	80005f4 <Error_Handler>
 80013ba:	e7f5      	b.n	80013a8 <HAL_UART_MspInit+0xf8>
 80013bc:	2302      	movs	r3, #2
 80013be:	9304      	str	r3, [sp, #16]
 80013c0:	9321      	str	r3, [sp, #132]	; 0x84
 80013c2:	2204      	movs	r2, #4
 80013c4:	920d      	str	r2, [sp, #52]	; 0x34
 80013c6:	f44f 72b8 	mov.w	r2, #368	; 0x170
 80013ca:	920e      	str	r2, [sp, #56]	; 0x38
 80013cc:	2209      	movs	r2, #9
 80013ce:	920f      	str	r2, [sp, #60]	; 0x3c
 80013d0:	2208      	movs	r2, #8
 80013d2:	9210      	str	r2, [sp, #64]	; 0x40
 80013d4:	9311      	str	r3, [sp, #68]	; 0x44
 80013d6:	f44f 6380 	mov.w	r3, #1024	; 0x400
 80013da:	9312      	str	r3, [sp, #72]	; 0x48
 80013dc:	2300      	movs	r3, #0
 80013de:	9313      	str	r3, [sp, #76]	; 0x4c
 80013e0:	9314      	str	r3, [sp, #80]	; 0x50
 80013e2:	a804      	add	r0, sp, #16
 80013e4:	f003 fb1a 	bl	8004a1c <HAL_RCCEx_PeriphCLKConfig>
 80013e8:	2800      	cmp	r0, #0
 80013ea:	d13f      	bne.n	800146c <HAL_UART_MspInit+0x1bc>
 80013ec:	4b24      	ldr	r3, [pc, #144]	; (8001480 <HAL_UART_MspInit+0x1d0>)
 80013ee:	f8d3 20e8 	ldr.w	r2, [r3, #232]	; 0xe8
 80013f2:	f442 2280 	orr.w	r2, r2, #262144	; 0x40000
 80013f6:	f8c3 20e8 	str.w	r2, [r3, #232]	; 0xe8
 80013fa:	f8d3 20e8 	ldr.w	r2, [r3, #232]	; 0xe8
 80013fe:	f402 2280 	and.w	r2, r2, #262144	; 0x40000
 8001402:	9202      	str	r2, [sp, #8]
 8001404:	9a02      	ldr	r2, [sp, #8]
 8001406:	f8d3 20e0 	ldr.w	r2, [r3, #224]	; 0xe0
 800140a:	f042 0208 	orr.w	r2, r2, #8
 800140e:	f8c3 20e0 	str.w	r2, [r3, #224]	; 0xe0
 8001412:	f8d3 30e0 	ldr.w	r3, [r3, #224]	; 0xe0
 8001416:	f003 0308 	and.w	r3, r3, #8
 800141a:	9303      	str	r3, [sp, #12]
 800141c:	9b03      	ldr	r3, [sp, #12]
 800141e:	f44f 7340 	mov.w	r3, #768	; 0x300
 8001422:	9333      	str	r3, [sp, #204]	; 0xcc
 8001424:	2302      	movs	r3, #2
 8001426:	9334      	str	r3, [sp, #208]	; 0xd0
 8001428:	2500      	movs	r5, #0
 800142a:	9535      	str	r5, [sp, #212]	; 0xd4
 800142c:	9536      	str	r5, [sp, #216]	; 0xd8
 800142e:	2307      	movs	r3, #7
 8001430:	9337      	str	r3, [sp, #220]	; 0xdc
 8001432:	a933      	add	r1, sp, #204	; 0xcc
 8001434:	4816      	ldr	r0, [pc, #88]	; (8001490 <HAL_UART_MspInit+0x1e0>)
 8001436:	f002 faeb 	bl	8003a10 <HAL_GPIO_Init>
 800143a:	4816      	ldr	r0, [pc, #88]	; (8001494 <HAL_UART_MspInit+0x1e4>)
 800143c:	4b16      	ldr	r3, [pc, #88]	; (8001498 <HAL_UART_MspInit+0x1e8>)
 800143e:	6003      	str	r3, [r0, #0]
 8001440:	232e      	movs	r3, #46	; 0x2e
 8001442:	6043      	str	r3, [r0, #4]
 8001444:	2340      	movs	r3, #64	; 0x40
 8001446:	6083      	str	r3, [r0, #8]
 8001448:	60c5      	str	r5, [r0, #12]
 800144a:	f44f 6380 	mov.w	r3, #1024	; 0x400
 800144e:	6103      	str	r3, [r0, #16]
 8001450:	6145      	str	r5, [r0, #20]
 8001452:	f44f 5300 	mov.w	r3, #8192	; 0x2000
 8001456:	6183      	str	r3, [r0, #24]
 8001458:	61c5      	str	r5, [r0, #28]
 800145a:	6205      	str	r5, [r0, #32]
 800145c:	6245      	str	r5, [r0, #36]	; 0x24
 800145e:	f000 fd57 	bl	8001f10 <HAL_DMA_Init>
 8001462:	b930      	cbnz	r0, 8001472 <HAL_UART_MspInit+0x1c2>
 8001464:	4b0b      	ldr	r3, [pc, #44]	; (8001494 <HAL_UART_MspInit+0x1e4>)
 8001466:	67a3      	str	r3, [r4, #120]	; 0x78
 8001468:	639c      	str	r4, [r3, #56]	; 0x38
 800146a:	e736      	b.n	80012da <HAL_UART_MspInit+0x2a>
 800146c:	f7ff f8c2 	bl	80005f4 <Error_Handler>
 8001470:	e7bc      	b.n	80013ec <HAL_UART_MspInit+0x13c>
 8001472:	f7ff f8bf 	bl	80005f4 <Error_Handler>
 8001476:	e7f5      	b.n	8001464 <HAL_UART_MspInit+0x1b4>
 8001478:	40011000 	.word	0x40011000
 800147c:	40004800 	.word	0x40004800
 8001480:	58024400 	.word	0x58024400
 8001484:	58020400 	.word	0x58020400
 8001488:	24009a94 	.word	0x24009a94
 800148c:	40020010 	.word	0x40020010
 8001490:	58020c00 	.word	0x58020c00
 8001494:	24009a1c 	.word	0x24009a1c
 8001498:	40020028 	.word	0x40020028

0800149c <NMI_Handler>:
 800149c:	e7fe      	b.n	800149c <NMI_Handler>

0800149e <HardFault_Handler>:
 800149e:	e7fe      	b.n	800149e <HardFault_Handler>

080014a0 <MemManage_Handler>:
 80014a0:	e7fe      	b.n	80014a0 <MemManage_Handler>

080014a2 <BusFault_Handler>:
 80014a2:	e7fe      	b.n	80014a2 <BusFault_Handler>

080014a4 <UsageFault_Handler>:
 80014a4:	e7fe      	b.n	80014a4 <UsageFault_Handler>

080014a6 <SVC_Handler>:
 80014a6:	4770      	bx	lr

080014a8 <DebugMon_Handler>:
 80014a8:	4770      	bx	lr

080014aa <PendSV_Handler>:
 80014aa:	4770      	bx	lr

080014ac <SysTick_Handler>:
 80014ac:	b508      	push	{r3, lr}
 80014ae:	f000 fa1f 	bl	80018f0 <HAL_IncTick>
 80014b2:	bd08      	pop	{r3, pc}

080014b4 <DMA1_Stream0_IRQHandler>:
 80014b4:	b508      	push	{r3, lr}
 80014b6:	2002      	movs	r0, #2
 80014b8:	f000 f8a4 	bl	8001604 <BSP_LED_On>
 80014bc:	4801      	ldr	r0, [pc, #4]	; (80014c4 <DMA1_Stream0_IRQHandler+0x10>)
 80014be:	f001 fddd 	bl	800307c <HAL_DMA_IRQHandler>
 80014c2:	bd08      	pop	{r3, pc}
 80014c4:	24009a94 	.word	0x24009a94

080014c8 <DMA1_Stream1_IRQHandler>:
 80014c8:	b508      	push	{r3, lr}
 80014ca:	2002      	movs	r0, #2
 80014cc:	f000 f89a 	bl	8001604 <BSP_LED_On>
 80014d0:	4801      	ldr	r0, [pc, #4]	; (80014d8 <DMA1_Stream1_IRQHandler+0x10>)
 80014d2:	f001 fdd3 	bl	800307c <HAL_DMA_IRQHandler>
 80014d6:	bd08      	pop	{r3, pc}
 80014d8:	24009a1c 	.word	0x24009a1c

080014dc <DMA2_Stream0_IRQHandler>:
 80014dc:	b508      	push	{r3, lr}
 80014de:	2002      	movs	r0, #2
 80014e0:	f000 f890 	bl	8001604 <BSP_LED_On>
 80014e4:	4801      	ldr	r0, [pc, #4]	; (80014ec <DMA2_Stream0_IRQHandler+0x10>)
 80014e6:	f001 fdc9 	bl	800307c <HAL_DMA_IRQHandler>
 80014ea:	bd08      	pop	{r3, pc}
 80014ec:	24009c24 	.word	0x24009c24

080014f0 <DMA2_Stream1_IRQHandler>:
 80014f0:	b508      	push	{r3, lr}
 80014f2:	2002      	movs	r0, #2
 80014f4:	f000 f886 	bl	8001604 <BSP_LED_On>
 80014f8:	4801      	ldr	r0, [pc, #4]	; (8001500 <DMA2_Stream1_IRQHandler+0x10>)
 80014fa:	f001 fdbf 	bl	800307c <HAL_DMA_IRQHandler>
 80014fe:	bd08      	pop	{r3, pc}
 8001500:	240099a4 	.word	0x240099a4

08001504 <EXTI15_10_IRQHandler>:
 8001504:	b508      	push	{r3, lr}
 8001506:	f44f 5000 	mov.w	r0, #8192	; 0x2000
 800150a:	f002 fb94 	bl	8003c36 <HAL_GPIO_EXTI_IRQHandler>
 800150e:	bd08      	pop	{r3, pc}

08001510 <USART1_IRQHandler>:
 8001510:	b508      	push	{r3, lr}
 8001512:	2002      	movs	r0, #2
 8001514:	f000 f876 	bl	8001604 <BSP_LED_On>
 8001518:	4801      	ldr	r0, [pc, #4]	; (8001520 <USART1_IRQHandler+0x10>)
 800151a:	f004 fcaf 	bl	8005e7c <HAL_UART_IRQHandler>
 800151e:	bd08      	pop	{r3, pc}
 8001520:	24009b0c 	.word	0x24009b0c

08001524 <USART3_IRQHandler>:
 8001524:	b508      	push	{r3, lr}
 8001526:	2002      	movs	r0, #2
 8001528:	f000 f86c 	bl	8001604 <BSP_LED_On>
 800152c:	4801      	ldr	r0, [pc, #4]	; (8001534 <USART3_IRQHandler+0x10>)
 800152e:	f004 fca5 	bl	8005e7c <HAL_UART_IRQHandler>
 8001532:	bd08      	pop	{r3, pc}
 8001534:	24009914 	.word	0x24009914

08001538 <SPI1_IRQHandler>:
 8001538:	b508      	push	{r3, lr}
 800153a:	2002      	movs	r0, #2
 800153c:	f000 f862 	bl	8001604 <BSP_LED_On>
 8001540:	4801      	ldr	r0, [pc, #4]	; (8001548 <SPI1_IRQHandler+0x10>)
 8001542:	f004 fa77 	bl	8005a34 <HAL_SPI_IRQHandler>
 8001546:	bd08      	pop	{r3, pc}
 8001548:	24009b9c 	.word	0x24009b9c

0800154c <SPI2_IRQHandler>:
 800154c:	b508      	push	{r3, lr}
 800154e:	2002      	movs	r0, #2
 8001550:	f000 f858 	bl	8001604 <BSP_LED_On>
 8001554:	4801      	ldr	r0, [pc, #4]	; (800155c <SPI2_IRQHandler+0x10>)
 8001556:	f004 fa6d 	bl	8005a34 <HAL_SPI_IRQHandler>
 800155a:	bd08      	pop	{r3, pc}
 800155c:	2400988c 	.word	0x2400988c

08001560 <BSP_LED_Init>:
 8001560:	2802      	cmp	r0, #2
 8001562:	d846      	bhi.n	80015f2 <BSP_LED_Init+0x92>
 8001564:	b570      	push	{r4, r5, r6, lr}
 8001566:	b088      	sub	sp, #32
 8001568:	bb28      	cbnz	r0, 80015b6 <BSP_LED_Init+0x56>
 800156a:	4b23      	ldr	r3, [pc, #140]	; (80015f8 <BSP_LED_Init+0x98>)
 800156c:	f8d3 20e0 	ldr.w	r2, [r3, #224]	; 0xe0
 8001570:	f042 0202 	orr.w	r2, r2, #2
 8001574:	f8c3 20e0 	str.w	r2, [r3, #224]	; 0xe0
 8001578:	f8d3 30e0 	ldr.w	r3, [r3, #224]	; 0xe0
 800157c:	f003 0302 	and.w	r3, r3, #2
 8001580:	9300      	str	r3, [sp, #0]
 8001582:	9b00      	ldr	r3, [sp, #0]
 8001584:	4b1d      	ldr	r3, [pc, #116]	; (80015fc <BSP_LED_Init+0x9c>)
 8001586:	f833 6010 	ldrh.w	r6, [r3, r0, lsl #1]
 800158a:	9603      	str	r6, [sp, #12]
 800158c:	2301      	movs	r3, #1
 800158e:	9304      	str	r3, [sp, #16]
 8001590:	2400      	movs	r4, #0
 8001592:	9405      	str	r4, [sp, #20]
 8001594:	2303      	movs	r3, #3
 8001596:	9306      	str	r3, [sp, #24]
 8001598:	4b19      	ldr	r3, [pc, #100]	; (8001600 <BSP_LED_Init+0xa0>)
 800159a:	f853 5020 	ldr.w	r5, [r3, r0, lsl #2]
 800159e:	a903      	add	r1, sp, #12
 80015a0:	4628      	mov	r0, r5
 80015a2:	f002 fa35 	bl	8003a10 <HAL_GPIO_Init>
 80015a6:	4622      	mov	r2, r4
 80015a8:	4631      	mov	r1, r6
 80015aa:	4628      	mov	r0, r5
 80015ac:	f002 fb34 	bl	8003c18 <HAL_GPIO_WritePin>
 80015b0:	4620      	mov	r0, r4
 80015b2:	b008      	add	sp, #32
 80015b4:	bd70      	pop	{r4, r5, r6, pc}
 80015b6:	2801      	cmp	r0, #1
 80015b8:	d00d      	beq.n	80015d6 <BSP_LED_Init+0x76>
 80015ba:	4b0f      	ldr	r3, [pc, #60]	; (80015f8 <BSP_LED_Init+0x98>)
 80015bc:	f8d3 20e0 	ldr.w	r2, [r3, #224]	; 0xe0
 80015c0:	f042 0202 	orr.w	r2, r2, #2
 80015c4:	f8c3 20e0 	str.w	r2, [r3, #224]	; 0xe0
 80015c8:	f8d3 30e0 	ldr.w	r3, [r3, #224]	; 0xe0
 80015cc:	f003 0302 	and.w	r3, r3, #2
 80015d0:	9302      	str	r3, [sp, #8]
 80015d2:	9b02      	ldr	r3, [sp, #8]
 80015d4:	e7d6      	b.n	8001584 <BSP_LED_Init+0x24>
 80015d6:	4b08      	ldr	r3, [pc, #32]	; (80015f8 <BSP_LED_Init+0x98>)
 80015d8:	f8d3 20e0 	ldr.w	r2, [r3, #224]	; 0xe0
 80015dc:	f042 0210 	orr.w	r2, r2, #16
 80015e0:	f8c3 20e0 	str.w	r2, [r3, #224]	; 0xe0
 80015e4:	f8d3 30e0 	ldr.w	r3, [r3, #224]	; 0xe0
 80015e8:	f003 0310 	and.w	r3, r3, #16
 80015ec:	9301      	str	r3, [sp, #4]
 80015ee:	9b01      	ldr	r3, [sp, #4]
 80015f0:	e7c8      	b.n	8001584 <BSP_LED_Init+0x24>
 80015f2:	f06f 0001 	mvn.w	r0, #1
 80015f6:	4770      	bx	lr
 80015f8:	58024400 	.word	0x58024400
 80015fc:	08006c48 	.word	0x08006c48
 8001600:	08006c50 	.word	0x08006c50

08001604 <BSP_LED_On>:
 8001604:	2802      	cmp	r0, #2
 8001606:	d80b      	bhi.n	8001620 <BSP_LED_On+0x1c>
 8001608:	b508      	push	{r3, lr}
 800160a:	2201      	movs	r2, #1
 800160c:	4b06      	ldr	r3, [pc, #24]	; (8001628 <BSP_LED_On+0x24>)
 800160e:	f833 1010 	ldrh.w	r1, [r3, r0, lsl #1]
 8001612:	4b06      	ldr	r3, [pc, #24]	; (800162c <BSP_LED_On+0x28>)
 8001614:	f853 0020 	ldr.w	r0, [r3, r0, lsl #2]
 8001618:	f002 fafe 	bl	8003c18 <HAL_GPIO_WritePin>
 800161c:	2000      	movs	r0, #0
 800161e:	bd08      	pop	{r3, pc}
 8001620:	f06f 0001 	mvn.w	r0, #1
 8001624:	4770      	bx	lr
 8001626:	bf00      	nop
 8001628:	08006c48 	.word	0x08006c48
 800162c:	08006c50 	.word	0x08006c50

08001630 <BSP_LED_Off>:
 8001630:	2802      	cmp	r0, #2
 8001632:	d80b      	bhi.n	800164c <BSP_LED_Off+0x1c>
 8001634:	b508      	push	{r3, lr}
 8001636:	2200      	movs	r2, #0
 8001638:	4b06      	ldr	r3, [pc, #24]	; (8001654 <BSP_LED_Off+0x24>)
 800163a:	f833 1010 	ldrh.w	r1, [r3, r0, lsl #1]
 800163e:	4b06      	ldr	r3, [pc, #24]	; (8001658 <BSP_LED_Off+0x28>)
 8001640:	f853 0020 	ldr.w	r0, [r3, r0, lsl #2]
 8001644:	f002 fae8 	bl	8003c18 <HAL_GPIO_WritePin>
 8001648:	2000      	movs	r0, #0
 800164a:	bd08      	pop	{r3, pc}
 800164c:	f06f 0001 	mvn.w	r0, #1
 8001650:	4770      	bx	lr
 8001652:	bf00      	nop
 8001654:	08006c48 	.word	0x08006c48
 8001658:	08006c50 	.word	0x08006c50

0800165c <BSP_LED_Toggle>:
 800165c:	2802      	cmp	r0, #2
 800165e:	d80a      	bhi.n	8001676 <BSP_LED_Toggle+0x1a>
 8001660:	b508      	push	{r3, lr}
 8001662:	4b06      	ldr	r3, [pc, #24]	; (800167c <BSP_LED_Toggle+0x20>)
 8001664:	f833 1010 	ldrh.w	r1, [r3, r0, lsl #1]
 8001668:	4b05      	ldr	r3, [pc, #20]	; (8001680 <BSP_LED_Toggle+0x24>)
 800166a:	f853 0020 	ldr.w	r0, [r3, r0, lsl #2]
 800166e:	f002 fad9 	bl	8003c24 <HAL_GPIO_TogglePin>
 8001672:	2000      	movs	r0, #0
 8001674:	bd08      	pop	{r3, pc}
 8001676:	f06f 0001 	mvn.w	r0, #1
 800167a:	4770      	bx	lr
 800167c:	08006c48 	.word	0x08006c48
 8001680:	08006c50 	.word	0x08006c50

08001684 <BSP_PB_Init>:
 8001684:	b510      	push	{r4, lr}
 8001686:	b086      	sub	sp, #24
 8001688:	4b1c      	ldr	r3, [pc, #112]	; (80016fc <BSP_PB_Init+0x78>)
 800168a:	f8d3 20e0 	ldr.w	r2, [r3, #224]	; 0xe0
 800168e:	f042 0204 	orr.w	r2, r2, #4
 8001692:	f8c3 20e0 	str.w	r2, [r3, #224]	; 0xe0
 8001696:	f8d3 30e0 	ldr.w	r3, [r3, #224]	; 0xe0
 800169a:	f003 0304 	and.w	r3, r3, #4
 800169e:	9300      	str	r3, [sp, #0]
 80016a0:	9b00      	ldr	r3, [sp, #0]
 80016a2:	f44f 5300 	mov.w	r3, #8192	; 0x2000
 80016a6:	9301      	str	r3, [sp, #4]
 80016a8:	2302      	movs	r3, #2
 80016aa:	9303      	str	r3, [sp, #12]
 80016ac:	9304      	str	r3, [sp, #16]
 80016ae:	b941      	cbnz	r1, 80016c2 <BSP_PB_Init+0x3e>
 80016b0:	2300      	movs	r3, #0
 80016b2:	9302      	str	r3, [sp, #8]
 80016b4:	a901      	add	r1, sp, #4
 80016b6:	4812      	ldr	r0, [pc, #72]	; (8001700 <BSP_PB_Init+0x7c>)
 80016b8:	f002 f9aa 	bl	8003a10 <HAL_GPIO_Init>
 80016bc:	2000      	movs	r0, #0
 80016be:	b006      	add	sp, #24
 80016c0:	bd10      	pop	{r4, pc}
 80016c2:	4604      	mov	r4, r0
 80016c4:	4b0f      	ldr	r3, [pc, #60]	; (8001704 <BSP_PB_Init+0x80>)
 80016c6:	9302      	str	r3, [sp, #8]
 80016c8:	a901      	add	r1, sp, #4
 80016ca:	480d      	ldr	r0, [pc, #52]	; (8001700 <BSP_PB_Init+0x7c>)
 80016cc:	f002 f9a0 	bl	8003a10 <HAL_GPIO_Init>
 80016d0:	480d      	ldr	r0, [pc, #52]	; (8001708 <BSP_PB_Init+0x84>)
 80016d2:	eb00 04c4 	add.w	r4, r0, r4, lsl #3
 80016d6:	490d      	ldr	r1, [pc, #52]	; (800170c <BSP_PB_Init+0x88>)
 80016d8:	4620      	mov	r0, r4
 80016da:	f002 f992 	bl	8003a02 <HAL_EXTI_GetHandle>
 80016de:	4a0c      	ldr	r2, [pc, #48]	; (8001710 <BSP_PB_Init+0x8c>)
 80016e0:	2100      	movs	r1, #0
 80016e2:	4620      	mov	r0, r4
 80016e4:	f002 f986 	bl	80039f4 <HAL_EXTI_RegisterCallback>
 80016e8:	2200      	movs	r2, #0
 80016ea:	210f      	movs	r1, #15
 80016ec:	2028      	movs	r0, #40	; 0x28
 80016ee:	f000 f94d 	bl	800198c <HAL_NVIC_SetPriority>
 80016f2:	2028      	movs	r0, #40	; 0x28
 80016f4:	f000 f97a 	bl	80019ec <HAL_NVIC_EnableIRQ>
 80016f8:	e7e0      	b.n	80016bc <BSP_PB_Init+0x38>
 80016fa:	bf00      	nop
 80016fc:	58024400 	.word	0x58024400
 8001700:	58020800 	.word	0x58020800
 8001704:	11110000 	.word	0x11110000
 8001708:	24009c9c 	.word	0x24009c9c
 800170c:	1630000d 	.word	0x1630000d
 8001710:	08001717 	.word	0x08001717

08001714 <BSP_PB_Callback>:
 8001714:	4770      	bx	lr

08001716 <BUTTON_USER_EXTI_Callback>:
 8001716:	b508      	push	{r3, lr}
 8001718:	2000      	movs	r0, #0
 800171a:	f7ff fffb 	bl	8001714 <BSP_PB_Callback>
 800171e:	bd08      	pop	{r3, pc}

08001720 <SystemInit>:
 8001720:	4a29      	ldr	r2, [pc, #164]	; (80017c8 <SystemInit+0xa8>)
 8001722:	f8d2 3088 	ldr.w	r3, [r2, #136]	; 0x88
 8001726:	f443 0370 	orr.w	r3, r3, #15728640	; 0xf00000
 800172a:	f8c2 3088 	str.w	r3, [r2, #136]	; 0x88
 800172e:	4b27      	ldr	r3, [pc, #156]	; (80017cc <SystemInit+0xac>)
 8001730:	681b      	ldr	r3, [r3, #0]
 8001732:	f003 030f 	and.w	r3, r3, #15
 8001736:	2b06      	cmp	r3, #6
 8001738:	d806      	bhi.n	8001748 <SystemInit+0x28>
 800173a:	4a24      	ldr	r2, [pc, #144]	; (80017cc <SystemInit+0xac>)
 800173c:	6813      	ldr	r3, [r2, #0]
 800173e:	f023 030f 	bic.w	r3, r3, #15
 8001742:	f043 0307 	orr.w	r3, r3, #7
 8001746:	6013      	str	r3, [r2, #0]
 8001748:	4b21      	ldr	r3, [pc, #132]	; (80017d0 <SystemInit+0xb0>)
 800174a:	681a      	ldr	r2, [r3, #0]
 800174c:	f042 0201 	orr.w	r2, r2, #1
 8001750:	601a      	str	r2, [r3, #0]
 8001752:	2200      	movs	r2, #0
 8001754:	611a      	str	r2, [r3, #16]
 8001756:	6819      	ldr	r1, [r3, #0]
 8001758:	4a1e      	ldr	r2, [pc, #120]	; (80017d4 <SystemInit+0xb4>)
 800175a:	400a      	ands	r2, r1
 800175c:	601a      	str	r2, [r3, #0]
 800175e:	4b1b      	ldr	r3, [pc, #108]	; (80017cc <SystemInit+0xac>)
 8001760:	681b      	ldr	r3, [r3, #0]
 8001762:	f013 0f08 	tst.w	r3, #8
 8001766:	d006      	beq.n	8001776 <SystemInit+0x56>
 8001768:	4a18      	ldr	r2, [pc, #96]	; (80017cc <SystemInit+0xac>)
 800176a:	6813      	ldr	r3, [r2, #0]
 800176c:	f023 030f 	bic.w	r3, r3, #15
 8001770:	f043 0307 	orr.w	r3, r3, #7
 8001774:	6013      	str	r3, [r2, #0]
 8001776:	4b16      	ldr	r3, [pc, #88]	; (80017d0 <SystemInit+0xb0>)
 8001778:	2200      	movs	r2, #0
 800177a:	619a      	str	r2, [r3, #24]
 800177c:	61da      	str	r2, [r3, #28]
 800177e:	621a      	str	r2, [r3, #32]
 8001780:	4915      	ldr	r1, [pc, #84]	; (80017d8 <SystemInit+0xb8>)
 8001782:	6299      	str	r1, [r3, #40]	; 0x28
 8001784:	4915      	ldr	r1, [pc, #84]	; (80017dc <SystemInit+0xbc>)
 8001786:	62d9      	str	r1, [r3, #44]	; 0x2c
 8001788:	4915      	ldr	r1, [pc, #84]	; (80017e0 <SystemInit+0xc0>)
 800178a:	6319      	str	r1, [r3, #48]	; 0x30
 800178c:	635a      	str	r2, [r3, #52]	; 0x34
 800178e:	6399      	str	r1, [r3, #56]	; 0x38
 8001790:	63da      	str	r2, [r3, #60]	; 0x3c
 8001792:	6419      	str	r1, [r3, #64]	; 0x40
 8001794:	645a      	str	r2, [r3, #68]	; 0x44
 8001796:	6819      	ldr	r1, [r3, #0]
 8001798:	f421 2180 	bic.w	r1, r1, #262144	; 0x40000
 800179c:	6019      	str	r1, [r3, #0]
 800179e:	661a      	str	r2, [r3, #96]	; 0x60
 80017a0:	4b10      	ldr	r3, [pc, #64]	; (80017e4 <SystemInit+0xc4>)
 80017a2:	681a      	ldr	r2, [r3, #0]
 80017a4:	4b10      	ldr	r3, [pc, #64]	; (80017e8 <SystemInit+0xc8>)
 80017a6:	4013      	ands	r3, r2
 80017a8:	f1b3 5f00 	cmp.w	r3, #536870912	; 0x20000000
 80017ac:	d202      	bcs.n	80017b4 <SystemInit+0x94>
 80017ae:	4b0f      	ldr	r3, [pc, #60]	; (80017ec <SystemInit+0xcc>)
 80017b0:	2201      	movs	r2, #1
 80017b2:	601a      	str	r2, [r3, #0]
 80017b4:	4b0e      	ldr	r3, [pc, #56]	; (80017f0 <SystemInit+0xd0>)
 80017b6:	f243 02d2 	movw	r2, #12498	; 0x30d2
 80017ba:	601a      	str	r2, [r3, #0]
 80017bc:	4b02      	ldr	r3, [pc, #8]	; (80017c8 <SystemInit+0xa8>)
 80017be:	f04f 6200 	mov.w	r2, #134217728	; 0x8000000
 80017c2:	609a      	str	r2, [r3, #8]
 80017c4:	4770      	bx	lr
 80017c6:	bf00      	nop
 80017c8:	e000ed00 	.word	0xe000ed00
 80017cc:	52002000 	.word	0x52002000
 80017d0:	58024400 	.word	0x58024400
 80017d4:	eaf6ed7f 	.word	0xeaf6ed7f
 80017d8:	02020200 	.word	0x02020200
 80017dc:	01ff0000 	.word	0x01ff0000
 80017e0:	01010280 	.word	0x01010280
 80017e4:	5c001000 	.word	0x5c001000
 80017e8:	ffff0000 	.word	0xffff0000
 80017ec:	51008108 	.word	0x51008108
 80017f0:	52004000 	.word	0x52004000

080017f4 <Reset_Handler>:
 80017f4:	f8df d034 	ldr.w	sp, [pc, #52]	; 800182c <LoopFillZerobss+0xe>
 80017f8:	f7ff ff92 	bl	8001720 <SystemInit>
 80017fc:	480c      	ldr	r0, [pc, #48]	; (8001830 <LoopFillZerobss+0x12>)
 80017fe:	490d      	ldr	r1, [pc, #52]	; (8001834 <LoopFillZerobss+0x16>)
 8001800:	4a0d      	ldr	r2, [pc, #52]	; (8001838 <LoopFillZerobss+0x1a>)
 8001802:	2300      	movs	r3, #0
 8001804:	e002      	b.n	800180c <LoopCopyDataInit>

08001806 <CopyDataInit>:
 8001806:	58d4      	ldr	r4, [r2, r3]
 8001808:	50c4      	str	r4, [r0, r3]
 800180a:	3304      	adds	r3, #4

0800180c <LoopCopyDataInit>:
 800180c:	18c4      	adds	r4, r0, r3
 800180e:	428c      	cmp	r4, r1
 8001810:	d3f9      	bcc.n	8001806 <CopyDataInit>
 8001812:	4a0a      	ldr	r2, [pc, #40]	; (800183c <LoopFillZerobss+0x1e>)
 8001814:	4c0a      	ldr	r4, [pc, #40]	; (8001840 <LoopFillZerobss+0x22>)
 8001816:	2300      	movs	r3, #0
 8001818:	e001      	b.n	800181e <LoopFillZerobss>

0800181a <FillZerobss>:
 800181a:	6013      	str	r3, [r2, #0]
 800181c:	3204      	adds	r2, #4

0800181e <LoopFillZerobss>:
 800181e:	42a2      	cmp	r2, r4
 8001820:	d3fb      	bcc.n	800181a <FillZerobss>
 8001822:	f005 f9d9 	bl	8006bd8 <__libc_init_array>
 8001826:	f7fe ff5f 	bl	80006e8 <main>
 800182a:	4770      	bx	lr
 800182c:	24080000 	.word	0x24080000
 8001830:	24000000 	.word	0x24000000
 8001834:	24000010 	.word	0x24000010
 8001838:	08006cac 	.word	0x08006cac
 800183c:	24000020 	.word	0x24000020
 8001840:	24009d38 	.word	0x24009d38

08001844 <ADC3_IRQHandler>:
 8001844:	e7fe      	b.n	8001844 <ADC3_IRQHandler>
	...

08001848 <HAL_InitTick>:
 8001848:	4b0f      	ldr	r3, [pc, #60]	; (8001888 <HAL_InitTick+0x40>)
 800184a:	781b      	ldrb	r3, [r3, #0]
 800184c:	b90b      	cbnz	r3, 8001852 <HAL_InitTick+0xa>
 800184e:	2001      	movs	r0, #1
 8001850:	4770      	bx	lr
 8001852:	b510      	push	{r4, lr}
 8001854:	4604      	mov	r4, r0
 8001856:	f44f 707a 	mov.w	r0, #1000	; 0x3e8
 800185a:	fbb0 f3f3 	udiv	r3, r0, r3
 800185e:	4a0b      	ldr	r2, [pc, #44]	; (800188c <HAL_InitTick+0x44>)
 8001860:	6810      	ldr	r0, [r2, #0]
 8001862:	fbb0 f0f3 	udiv	r0, r0, r3
 8001866:	f000 f8e3 	bl	8001a30 <HAL_SYSTICK_Config>
 800186a:	2c0f      	cmp	r4, #15
 800186c:	d800      	bhi.n	8001870 <HAL_InitTick+0x28>
 800186e:	b108      	cbz	r0, 8001874 <HAL_InitTick+0x2c>
 8001870:	2001      	movs	r0, #1
 8001872:	bd10      	pop	{r4, pc}
 8001874:	2200      	movs	r2, #0
 8001876:	4621      	mov	r1, r4
 8001878:	f04f 30ff 	mov.w	r0, #4294967295
 800187c:	f000 f886 	bl	800198c <HAL_NVIC_SetPriority>
 8001880:	4b03      	ldr	r3, [pc, #12]	; (8001890 <HAL_InitTick+0x48>)
 8001882:	601c      	str	r4, [r3, #0]
 8001884:	2000      	movs	r0, #0
 8001886:	e7f4      	b.n	8001872 <HAL_InitTick+0x2a>
 8001888:	24000008 	.word	0x24000008
 800188c:	24000000 	.word	0x24000000
 8001890:	2400000c 	.word	0x2400000c

08001894 <HAL_Init>:
 8001894:	b510      	push	{r4, lr}
 8001896:	2003      	movs	r0, #3
 8001898:	f000 f866 	bl	8001968 <HAL_NVIC_SetPriorityGrouping>
 800189c:	f002 fd26 	bl	80042ec <HAL_RCC_GetSysClockFreq>
 80018a0:	490f      	ldr	r1, [pc, #60]	; (80018e0 <HAL_Init+0x4c>)
 80018a2:	698b      	ldr	r3, [r1, #24]
 80018a4:	4a0f      	ldr	r2, [pc, #60]	; (80018e4 <HAL_Init+0x50>)
 80018a6:	f3c3 2303 	ubfx	r3, r3, #8, #4
 80018aa:	5cd3      	ldrb	r3, [r2, r3]
 80018ac:	f003 031f 	and.w	r3, r3, #31
 80018b0:	40d8      	lsrs	r0, r3
 80018b2:	698b      	ldr	r3, [r1, #24]
 80018b4:	f003 030f 	and.w	r3, r3, #15
 80018b8:	5cd3      	ldrb	r3, [r2, r3]
 80018ba:	f003 031f 	and.w	r3, r3, #31
 80018be:	fa20 f303 	lsr.w	r3, r0, r3
 80018c2:	4a09      	ldr	r2, [pc, #36]	; (80018e8 <HAL_Init+0x54>)
 80018c4:	6013      	str	r3, [r2, #0]
 80018c6:	4b09      	ldr	r3, [pc, #36]	; (80018ec <HAL_Init+0x58>)
 80018c8:	6018      	str	r0, [r3, #0]
 80018ca:	2000      	movs	r0, #0
 80018cc:	f7ff ffbc 	bl	8001848 <HAL_InitTick>
 80018d0:	b110      	cbz	r0, 80018d8 <HAL_Init+0x44>
 80018d2:	2401      	movs	r4, #1
 80018d4:	4620      	mov	r0, r4
 80018d6:	bd10      	pop	{r4, pc}
 80018d8:	4604      	mov	r4, r0
 80018da:	f7ff fba5 	bl	8001028 <HAL_MspInit>
 80018de:	e7f9      	b.n	80018d4 <HAL_Init+0x40>
 80018e0:	58024400 	.word	0x58024400
 80018e4:	08006c5c 	.word	0x08006c5c
 80018e8:	24000004 	.word	0x24000004
 80018ec:	24000000 	.word	0x24000000

080018f0 <HAL_IncTick>:
 80018f0:	4a03      	ldr	r2, [pc, #12]	; (8001900 <HAL_IncTick+0x10>)
 80018f2:	6811      	ldr	r1, [r2, #0]
 80018f4:	4b03      	ldr	r3, [pc, #12]	; (8001904 <HAL_IncTick+0x14>)
 80018f6:	781b      	ldrb	r3, [r3, #0]
 80018f8:	440b      	add	r3, r1
 80018fa:	6013      	str	r3, [r2, #0]
 80018fc:	4770      	bx	lr
 80018fe:	bf00      	nop
 8001900:	24009d34 	.word	0x24009d34
 8001904:	24000008 	.word	0x24000008

08001908 <HAL_GetTick>:
 8001908:	4b01      	ldr	r3, [pc, #4]	; (8001910 <HAL_GetTick+0x8>)
 800190a:	6818      	ldr	r0, [r3, #0]
 800190c:	4770      	bx	lr
 800190e:	bf00      	nop
 8001910:	24009d34 	.word	0x24009d34

08001914 <HAL_Delay>:
 8001914:	b538      	push	{r3, r4, r5, lr}
 8001916:	4604      	mov	r4, r0
 8001918:	f7ff fff6 	bl	8001908 <HAL_GetTick>
 800191c:	4605      	mov	r5, r0
 800191e:	f1b4 3fff 	cmp.w	r4, #4294967295
 8001922:	d002      	beq.n	800192a <HAL_Delay+0x16>
 8001924:	4b04      	ldr	r3, [pc, #16]	; (8001938 <HAL_Delay+0x24>)
 8001926:	781b      	ldrb	r3, [r3, #0]
 8001928:	441c      	add	r4, r3
 800192a:	f7ff ffed 	bl	8001908 <HAL_GetTick>
 800192e:	1b40      	subs	r0, r0, r5
 8001930:	42a0      	cmp	r0, r4
 8001932:	d3fa      	bcc.n	800192a <HAL_Delay+0x16>
 8001934:	bd38      	pop	{r3, r4, r5, pc}
 8001936:	bf00      	nop
 8001938:	24000008 	.word	0x24000008

0800193c <HAL_SuspendTick>:
 800193c:	4a02      	ldr	r2, [pc, #8]	; (8001948 <HAL_SuspendTick+0xc>)
 800193e:	6813      	ldr	r3, [r2, #0]
 8001940:	f023 0302 	bic.w	r3, r3, #2
 8001944:	6013      	str	r3, [r2, #0]
 8001946:	4770      	bx	lr
 8001948:	e000e010 	.word	0xe000e010

0800194c <HAL_GetREVID>:
 800194c:	4b01      	ldr	r3, [pc, #4]	; (8001954 <HAL_GetREVID+0x8>)
 800194e:	6818      	ldr	r0, [r3, #0]
 8001950:	0c00      	lsrs	r0, r0, #16
 8001952:	4770      	bx	lr
 8001954:	5c001000 	.word	0x5c001000

08001958 <HAL_EnableCompensationCell>:
 8001958:	4a02      	ldr	r2, [pc, #8]	; (8001964 <HAL_EnableCompensationCell+0xc>)
 800195a:	6a13      	ldr	r3, [r2, #32]
 800195c:	f043 0301 	orr.w	r3, r3, #1
 8001960:	6213      	str	r3, [r2, #32]
 8001962:	4770      	bx	lr
 8001964:	58000400 	.word	0x58000400

08001968 <HAL_NVIC_SetPriorityGrouping>:
 8001968:	4a06      	ldr	r2, [pc, #24]	; (8001984 <HAL_NVIC_SetPriorityGrouping+0x1c>)
 800196a:	68d3      	ldr	r3, [r2, #12]
 800196c:	0200      	lsls	r0, r0, #8
 800196e:	f400 60e0 	and.w	r0, r0, #1792	; 0x700
 8001972:	f423 63e0 	bic.w	r3, r3, #1792	; 0x700
 8001976:	041b      	lsls	r3, r3, #16
 8001978:	0c1b      	lsrs	r3, r3, #16
 800197a:	4318      	orrs	r0, r3
 800197c:	4b02      	ldr	r3, [pc, #8]	; (8001988 <HAL_NVIC_SetPriorityGrouping+0x20>)
 800197e:	4303      	orrs	r3, r0
 8001980:	60d3      	str	r3, [r2, #12]
 8001982:	4770      	bx	lr
 8001984:	e000ed00 	.word	0xe000ed00
 8001988:	05fa0000 	.word	0x05fa0000

0800198c <HAL_NVIC_SetPriority>:
 800198c:	b430      	push	{r4, r5}
 800198e:	4b14      	ldr	r3, [pc, #80]	; (80019e0 <HAL_NVIC_SetPriority+0x54>)
 8001990:	68db      	ldr	r3, [r3, #12]
 8001992:	f3c3 2302 	ubfx	r3, r3, #8, #3
 8001996:	f1c3 0407 	rsb	r4, r3, #7
 800199a:	2c04      	cmp	r4, #4
 800199c:	bf28      	it	cs
 800199e:	2404      	movcs	r4, #4
 80019a0:	1d1d      	adds	r5, r3, #4
 80019a2:	2d06      	cmp	r5, #6
 80019a4:	bf8c      	ite	hi
 80019a6:	3b03      	subhi	r3, #3
 80019a8:	2300      	movls	r3, #0
 80019aa:	f04f 35ff 	mov.w	r5, #4294967295
 80019ae:	fa05 f404 	lsl.w	r4, r5, r4
 80019b2:	ea21 0104 	bic.w	r1, r1, r4
 80019b6:	4099      	lsls	r1, r3
 80019b8:	fa05 f303 	lsl.w	r3, r5, r3
 80019bc:	ea22 0203 	bic.w	r2, r2, r3
 80019c0:	4311      	orrs	r1, r2
 80019c2:	2800      	cmp	r0, #0
 80019c4:	db05      	blt.n	80019d2 <HAL_NVIC_SetPriority+0x46>
 80019c6:	0109      	lsls	r1, r1, #4
 80019c8:	b2c9      	uxtb	r1, r1
 80019ca:	4b06      	ldr	r3, [pc, #24]	; (80019e4 <HAL_NVIC_SetPriority+0x58>)
 80019cc:	5419      	strb	r1, [r3, r0]
 80019ce:	bc30      	pop	{r4, r5}
 80019d0:	4770      	bx	lr
 80019d2:	f000 000f 	and.w	r0, r0, #15
 80019d6:	0109      	lsls	r1, r1, #4
 80019d8:	b2c9      	uxtb	r1, r1
 80019da:	4b03      	ldr	r3, [pc, #12]	; (80019e8 <HAL_NVIC_SetPriority+0x5c>)
 80019dc:	5419      	strb	r1, [r3, r0]
 80019de:	e7f6      	b.n	80019ce <HAL_NVIC_SetPriority+0x42>
 80019e0:	e000ed00 	.word	0xe000ed00
 80019e4:	e000e400 	.word	0xe000e400
 80019e8:	e000ed14 	.word	0xe000ed14

080019ec <HAL_NVIC_EnableIRQ>:
 80019ec:	2800      	cmp	r0, #0
 80019ee:	db08      	blt.n	8001a02 <HAL_NVIC_EnableIRQ+0x16>
 80019f0:	0942      	lsrs	r2, r0, #5
 80019f2:	f000 001f 	and.w	r0, r0, #31
 80019f6:	2301      	movs	r3, #1
 80019f8:	fa03 f000 	lsl.w	r0, r3, r0
 80019fc:	4b01      	ldr	r3, [pc, #4]	; (8001a04 <HAL_NVIC_EnableIRQ+0x18>)
 80019fe:	f843 0022 	str.w	r0, [r3, r2, lsl #2]
 8001a02:	4770      	bx	lr
 8001a04:	e000e100 	.word	0xe000e100

08001a08 <HAL_NVIC_DisableIRQ>:
 8001a08:	2800      	cmp	r0, #0
 8001a0a:	db0d      	blt.n	8001a28 <HAL_NVIC_DisableIRQ+0x20>
 8001a0c:	0943      	lsrs	r3, r0, #5
 8001a0e:	f000 001f 	and.w	r0, r0, #31
 8001a12:	2201      	movs	r2, #1
 8001a14:	fa02 f000 	lsl.w	r0, r2, r0
 8001a18:	3320      	adds	r3, #32
 8001a1a:	4a04      	ldr	r2, [pc, #16]	; (8001a2c <HAL_NVIC_DisableIRQ+0x24>)
 8001a1c:	f842 0023 	str.w	r0, [r2, r3, lsl #2]
 8001a20:	f3bf 8f4f 	dsb	sy
 8001a24:	f3bf 8f6f 	isb	sy
 8001a28:	4770      	bx	lr
 8001a2a:	bf00      	nop
 8001a2c:	e000e100 	.word	0xe000e100

08001a30 <HAL_SYSTICK_Config>:
 8001a30:	3801      	subs	r0, #1
 8001a32:	f1b0 7f80 	cmp.w	r0, #16777216	; 0x1000000
 8001a36:	d20a      	bcs.n	8001a4e <HAL_SYSTICK_Config+0x1e>
 8001a38:	4b06      	ldr	r3, [pc, #24]	; (8001a54 <HAL_SYSTICK_Config+0x24>)
 8001a3a:	6058      	str	r0, [r3, #4]
 8001a3c:	4a06      	ldr	r2, [pc, #24]	; (8001a58 <HAL_SYSTICK_Config+0x28>)
 8001a3e:	21f0      	movs	r1, #240	; 0xf0
 8001a40:	f882 1023 	strb.w	r1, [r2, #35]	; 0x23
 8001a44:	2000      	movs	r0, #0
 8001a46:	6098      	str	r0, [r3, #8]
 8001a48:	2207      	movs	r2, #7
 8001a4a:	601a      	str	r2, [r3, #0]
 8001a4c:	4770      	bx	lr
 8001a4e:	2001      	movs	r0, #1
 8001a50:	4770      	bx	lr
 8001a52:	bf00      	nop
 8001a54:	e000e010 	.word	0xe000e010
 8001a58:	e000ed00 	.word	0xe000ed00

08001a5c <DMA_SetConfig>:
 8001a5c:	b4f0      	push	{r4, r5, r6, r7}
 8001a5e:	6d86      	ldr	r6, [r0, #88]	; 0x58
 8001a60:	6805      	ldr	r5, [r0, #0]
 8001a62:	4c91      	ldr	r4, [pc, #580]	; (8001ca8 <DMA_SetConfig+0x24c>)
 8001a64:	4f91      	ldr	r7, [pc, #580]	; (8001cac <DMA_SetConfig+0x250>)
 8001a66:	42bd      	cmp	r5, r7
 8001a68:	bf18      	it	ne
 8001a6a:	42a5      	cmpne	r5, r4
 8001a6c:	bf0c      	ite	eq
 8001a6e:	2401      	moveq	r4, #1
 8001a70:	2400      	movne	r4, #0
 8001a72:	3718      	adds	r7, #24
 8001a74:	42bd      	cmp	r5, r7
 8001a76:	bf08      	it	eq
 8001a78:	f044 0401 	orreq.w	r4, r4, #1
 8001a7c:	3718      	adds	r7, #24
 8001a7e:	42bd      	cmp	r5, r7
 8001a80:	bf08      	it	eq
 8001a82:	f044 0401 	orreq.w	r4, r4, #1
 8001a86:	3718      	adds	r7, #24
 8001a88:	42bd      	cmp	r5, r7
 8001a8a:	bf08      	it	eq
 8001a8c:	f044 0401 	orreq.w	r4, r4, #1
 8001a90:	3718      	adds	r7, #24
 8001a92:	42bd      	cmp	r5, r7
 8001a94:	bf08      	it	eq
 8001a96:	f044 0401 	orreq.w	r4, r4, #1
 8001a9a:	3718      	adds	r7, #24
 8001a9c:	42bd      	cmp	r5, r7
 8001a9e:	bf08      	it	eq
 8001aa0:	f044 0401 	orreq.w	r4, r4, #1
 8001aa4:	3718      	adds	r7, #24
 8001aa6:	42bd      	cmp	r5, r7
 8001aa8:	bf08      	it	eq
 8001aaa:	f044 0401 	orreq.w	r4, r4, #1
 8001aae:	f507 7756 	add.w	r7, r7, #856	; 0x358
 8001ab2:	42bd      	cmp	r5, r7
 8001ab4:	bf08      	it	eq
 8001ab6:	f044 0401 	orreq.w	r4, r4, #1
 8001aba:	3718      	adds	r7, #24
 8001abc:	42bd      	cmp	r5, r7
 8001abe:	bf08      	it	eq
 8001ac0:	f044 0401 	orreq.w	r4, r4, #1
 8001ac4:	3718      	adds	r7, #24
 8001ac6:	42bd      	cmp	r5, r7
 8001ac8:	bf08      	it	eq
 8001aca:	f044 0401 	orreq.w	r4, r4, #1
 8001ace:	3718      	adds	r7, #24
 8001ad0:	42bd      	cmp	r5, r7
 8001ad2:	bf08      	it	eq
 8001ad4:	f044 0401 	orreq.w	r4, r4, #1
 8001ad8:	3718      	adds	r7, #24
 8001ada:	42bd      	cmp	r5, r7
 8001adc:	bf08      	it	eq
 8001ade:	f044 0401 	orreq.w	r4, r4, #1
 8001ae2:	3718      	adds	r7, #24
 8001ae4:	42bd      	cmp	r5, r7
 8001ae6:	bf08      	it	eq
 8001ae8:	f044 0401 	orreq.w	r4, r4, #1
 8001aec:	3718      	adds	r7, #24
 8001aee:	42bd      	cmp	r5, r7
 8001af0:	bf08      	it	eq
 8001af2:	f044 0401 	orreq.w	r4, r4, #1
 8001af6:	3718      	adds	r7, #24
 8001af8:	42bd      	cmp	r5, r7
 8001afa:	bf08      	it	eq
 8001afc:	f044 0401 	orreq.w	r4, r4, #1
 8001b00:	4f6b      	ldr	r7, [pc, #428]	; (8001cb0 <DMA_SetConfig+0x254>)
 8001b02:	42bd      	cmp	r5, r7
 8001b04:	bf08      	it	eq
 8001b06:	f044 0401 	orreq.w	r4, r4, #1
 8001b0a:	3714      	adds	r7, #20
 8001b0c:	42bd      	cmp	r5, r7
 8001b0e:	bf08      	it	eq
 8001b10:	f044 0401 	orreq.w	r4, r4, #1
 8001b14:	3714      	adds	r7, #20
 8001b16:	42bd      	cmp	r5, r7
 8001b18:	bf08      	it	eq
 8001b1a:	f044 0401 	orreq.w	r4, r4, #1
 8001b1e:	3714      	adds	r7, #20
 8001b20:	42bd      	cmp	r5, r7
 8001b22:	bf08      	it	eq
 8001b24:	f044 0401 	orreq.w	r4, r4, #1
 8001b28:	3714      	adds	r7, #20
 8001b2a:	42bd      	cmp	r5, r7
 8001b2c:	bf08      	it	eq
 8001b2e:	f044 0401 	orreq.w	r4, r4, #1
 8001b32:	3714      	adds	r7, #20
 8001b34:	42bd      	cmp	r5, r7
 8001b36:	bf08      	it	eq
 8001b38:	f044 0401 	orreq.w	r4, r4, #1
 8001b3c:	3714      	adds	r7, #20
 8001b3e:	42bd      	cmp	r5, r7
 8001b40:	bf08      	it	eq
 8001b42:	f044 0401 	orreq.w	r4, r4, #1
 8001b46:	b914      	cbnz	r4, 8001b4e <DMA_SetConfig+0xf2>
 8001b48:	4c5a      	ldr	r4, [pc, #360]	; (8001cb4 <DMA_SetConfig+0x258>)
 8001b4a:	42a5      	cmp	r5, r4
 8001b4c:	d107      	bne.n	8001b5e <DMA_SetConfig+0x102>
 8001b4e:	6e44      	ldr	r4, [r0, #100]	; 0x64
 8001b50:	6e85      	ldr	r5, [r0, #104]	; 0x68
 8001b52:	6065      	str	r5, [r4, #4]
 8001b54:	6ec4      	ldr	r4, [r0, #108]	; 0x6c
 8001b56:	b114      	cbz	r4, 8001b5e <DMA_SetConfig+0x102>
 8001b58:	6f04      	ldr	r4, [r0, #112]	; 0x70
 8001b5a:	6f45      	ldr	r5, [r0, #116]	; 0x74
 8001b5c:	6065      	str	r5, [r4, #4]
 8001b5e:	6805      	ldr	r5, [r0, #0]
 8001b60:	4c51      	ldr	r4, [pc, #324]	; (8001ca8 <DMA_SetConfig+0x24c>)
 8001b62:	4f52      	ldr	r7, [pc, #328]	; (8001cac <DMA_SetConfig+0x250>)
 8001b64:	42bd      	cmp	r5, r7
 8001b66:	bf18      	it	ne
 8001b68:	42a5      	cmpne	r5, r4
 8001b6a:	bf0c      	ite	eq
 8001b6c:	2401      	moveq	r4, #1
 8001b6e:	2400      	movne	r4, #0
 8001b70:	3718      	adds	r7, #24
 8001b72:	42bd      	cmp	r5, r7
 8001b74:	bf08      	it	eq
 8001b76:	f044 0401 	orreq.w	r4, r4, #1
 8001b7a:	3718      	adds	r7, #24
 8001b7c:	42bd      	cmp	r5, r7
 8001b7e:	bf08      	it	eq
 8001b80:	f044 0401 	orreq.w	r4, r4, #1
 8001b84:	3718      	adds	r7, #24
 8001b86:	42bd      	cmp	r5, r7
 8001b88:	bf08      	it	eq
 8001b8a:	f044 0401 	orreq.w	r4, r4, #1
 8001b8e:	3718      	adds	r7, #24
 8001b90:	42bd      	cmp	r5, r7
 8001b92:	bf08      	it	eq
 8001b94:	f044 0401 	orreq.w	r4, r4, #1
 8001b98:	3718      	adds	r7, #24
 8001b9a:	42bd      	cmp	r5, r7
 8001b9c:	bf08      	it	eq
 8001b9e:	f044 0401 	orreq.w	r4, r4, #1
 8001ba2:	3718      	adds	r7, #24
 8001ba4:	42bd      	cmp	r5, r7
 8001ba6:	bf08      	it	eq
 8001ba8:	f044 0401 	orreq.w	r4, r4, #1
 8001bac:	f507 7756 	add.w	r7, r7, #856	; 0x358
 8001bb0:	42bd      	cmp	r5, r7
 8001bb2:	bf08      	it	eq
 8001bb4:	f044 0401 	orreq.w	r4, r4, #1
 8001bb8:	3718      	adds	r7, #24
 8001bba:	42bd      	cmp	r5, r7
 8001bbc:	bf08      	it	eq
 8001bbe:	f044 0401 	orreq.w	r4, r4, #1
 8001bc2:	3718      	adds	r7, #24
 8001bc4:	42bd      	cmp	r5, r7
 8001bc6:	bf08      	it	eq
 8001bc8:	f044 0401 	orreq.w	r4, r4, #1
 8001bcc:	3718      	adds	r7, #24
 8001bce:	42bd      	cmp	r5, r7
 8001bd0:	bf08      	it	eq
 8001bd2:	f044 0401 	orreq.w	r4, r4, #1
 8001bd6:	3718      	adds	r7, #24
 8001bd8:	42bd      	cmp	r5, r7
 8001bda:	bf08      	it	eq
 8001bdc:	f044 0401 	orreq.w	r4, r4, #1
 8001be0:	3718      	adds	r7, #24
 8001be2:	42bd      	cmp	r5, r7
 8001be4:	bf08      	it	eq
 8001be6:	f044 0401 	orreq.w	r4, r4, #1
 8001bea:	3718      	adds	r7, #24
 8001bec:	42bd      	cmp	r5, r7
 8001bee:	bf08      	it	eq
 8001bf0:	f044 0401 	orreq.w	r4, r4, #1
 8001bf4:	b914      	cbnz	r4, 8001bfc <DMA_SetConfig+0x1a0>
 8001bf6:	4c30      	ldr	r4, [pc, #192]	; (8001cb8 <DMA_SetConfig+0x25c>)
 8001bf8:	42a5      	cmp	r5, r4
 8001bfa:	d115      	bne.n	8001c28 <DMA_SetConfig+0x1cc>
 8001bfc:	6dc4      	ldr	r4, [r0, #92]	; 0x5c
 8001bfe:	f004 051f 	and.w	r5, r4, #31
 8001c02:	243f      	movs	r4, #63	; 0x3f
 8001c04:	40ac      	lsls	r4, r5
 8001c06:	60b4      	str	r4, [r6, #8]
 8001c08:	6805      	ldr	r5, [r0, #0]
 8001c0a:	682c      	ldr	r4, [r5, #0]
 8001c0c:	f424 2480 	bic.w	r4, r4, #262144	; 0x40000
 8001c10:	602c      	str	r4, [r5, #0]
 8001c12:	6804      	ldr	r4, [r0, #0]
 8001c14:	6063      	str	r3, [r4, #4]
 8001c16:	6883      	ldr	r3, [r0, #8]
 8001c18:	2b40      	cmp	r3, #64	; 0x40
 8001c1a:	d03a      	beq.n	8001c92 <DMA_SetConfig+0x236>
 8001c1c:	6803      	ldr	r3, [r0, #0]
 8001c1e:	6099      	str	r1, [r3, #8]
 8001c20:	6803      	ldr	r3, [r0, #0]
 8001c22:	60da      	str	r2, [r3, #12]
 8001c24:	bcf0      	pop	{r4, r5, r6, r7}
 8001c26:	4770      	bx	lr
 8001c28:	4c21      	ldr	r4, [pc, #132]	; (8001cb0 <DMA_SetConfig+0x254>)
 8001c2a:	4f24      	ldr	r7, [pc, #144]	; (8001cbc <DMA_SetConfig+0x260>)
 8001c2c:	42bd      	cmp	r5, r7
 8001c2e:	bf18      	it	ne
 8001c30:	42a5      	cmpne	r5, r4
 8001c32:	bf0c      	ite	eq
 8001c34:	2401      	moveq	r4, #1
 8001c36:	2400      	movne	r4, #0
 8001c38:	3714      	adds	r7, #20
 8001c3a:	42bd      	cmp	r5, r7
 8001c3c:	bf08      	it	eq
 8001c3e:	f044 0401 	orreq.w	r4, r4, #1
 8001c42:	3714      	adds	r7, #20
 8001c44:	42bd      	cmp	r5, r7
 8001c46:	bf08      	it	eq
 8001c48:	f044 0401 	orreq.w	r4, r4, #1
 8001c4c:	3714      	adds	r7, #20
 8001c4e:	42bd      	cmp	r5, r7
 8001c50:	bf08      	it	eq
 8001c52:	f044 0401 	orreq.w	r4, r4, #1
 8001c56:	3714      	adds	r7, #20
 8001c58:	42bd      	cmp	r5, r7
 8001c5a:	bf08      	it	eq
 8001c5c:	f044 0401 	orreq.w	r4, r4, #1
 8001c60:	3714      	adds	r7, #20
 8001c62:	42bd      	cmp	r5, r7
 8001c64:	bf08      	it	eq
 8001c66:	f044 0401 	orreq.w	r4, r4, #1
 8001c6a:	b914      	cbnz	r4, 8001c72 <DMA_SetConfig+0x216>
 8001c6c:	4c11      	ldr	r4, [pc, #68]	; (8001cb4 <DMA_SetConfig+0x258>)
 8001c6e:	42a5      	cmp	r5, r4
 8001c70:	d1d8      	bne.n	8001c24 <DMA_SetConfig+0x1c8>
 8001c72:	6dc4      	ldr	r4, [r0, #92]	; 0x5c
 8001c74:	f004 051f 	and.w	r5, r4, #31
 8001c78:	2401      	movs	r4, #1
 8001c7a:	40ac      	lsls	r4, r5
 8001c7c:	6074      	str	r4, [r6, #4]
 8001c7e:	6804      	ldr	r4, [r0, #0]
 8001c80:	6063      	str	r3, [r4, #4]
 8001c82:	6883      	ldr	r3, [r0, #8]
 8001c84:	2b40      	cmp	r3, #64	; 0x40
 8001c86:	d009      	beq.n	8001c9c <DMA_SetConfig+0x240>
 8001c88:	6803      	ldr	r3, [r0, #0]
 8001c8a:	6099      	str	r1, [r3, #8]
 8001c8c:	6803      	ldr	r3, [r0, #0]
 8001c8e:	60da      	str	r2, [r3, #12]
 8001c90:	e7c8      	b.n	8001c24 <DMA_SetConfig+0x1c8>
 8001c92:	6803      	ldr	r3, [r0, #0]
 8001c94:	609a      	str	r2, [r3, #8]
 8001c96:	6803      	ldr	r3, [r0, #0]
 8001c98:	60d9      	str	r1, [r3, #12]
 8001c9a:	e7c3      	b.n	8001c24 <DMA_SetConfig+0x1c8>
 8001c9c:	6803      	ldr	r3, [r0, #0]
 8001c9e:	609a      	str	r2, [r3, #8]
 8001ca0:	6803      	ldr	r3, [r0, #0]
 8001ca2:	60d9      	str	r1, [r3, #12]
 8001ca4:	e7be      	b.n	8001c24 <DMA_SetConfig+0x1c8>
 8001ca6:	bf00      	nop
 8001ca8:	40020010 	.word	0x40020010
 8001cac:	40020028 	.word	0x40020028
 8001cb0:	58025408 	.word	0x58025408
 8001cb4:	58025494 	.word	0x58025494
 8001cb8:	400204b8 	.word	0x400204b8
 8001cbc:	5802541c 	.word	0x5802541c

08001cc0 <DMA_CalcBaseAndBitshift>:
 8001cc0:	6802      	ldr	r2, [r0, #0]
 8001cc2:	4b34      	ldr	r3, [pc, #208]	; (8001d94 <DMA_CalcBaseAndBitshift+0xd4>)
 8001cc4:	4934      	ldr	r1, [pc, #208]	; (8001d98 <DMA_CalcBaseAndBitshift+0xd8>)
 8001cc6:	428a      	cmp	r2, r1
 8001cc8:	bf18      	it	ne
 8001cca:	429a      	cmpne	r2, r3
 8001ccc:	bf0c      	ite	eq
 8001cce:	2301      	moveq	r3, #1
 8001cd0:	2300      	movne	r3, #0
 8001cd2:	3118      	adds	r1, #24
 8001cd4:	428a      	cmp	r2, r1
 8001cd6:	bf08      	it	eq
 8001cd8:	f043 0301 	orreq.w	r3, r3, #1
 8001cdc:	3118      	adds	r1, #24
 8001cde:	428a      	cmp	r2, r1
 8001ce0:	bf08      	it	eq
 8001ce2:	f043 0301 	orreq.w	r3, r3, #1
 8001ce6:	3118      	adds	r1, #24
 8001ce8:	428a      	cmp	r2, r1
 8001cea:	bf08      	it	eq
 8001cec:	f043 0301 	orreq.w	r3, r3, #1
 8001cf0:	3118      	adds	r1, #24
 8001cf2:	428a      	cmp	r2, r1
 8001cf4:	bf08      	it	eq
 8001cf6:	f043 0301 	orreq.w	r3, r3, #1
 8001cfa:	3118      	adds	r1, #24
 8001cfc:	428a      	cmp	r2, r1
 8001cfe:	bf08      	it	eq
 8001d00:	f043 0301 	orreq.w	r3, r3, #1
 8001d04:	3118      	adds	r1, #24
 8001d06:	428a      	cmp	r2, r1
 8001d08:	bf08      	it	eq
 8001d0a:	f043 0301 	orreq.w	r3, r3, #1
 8001d0e:	f501 7156 	add.w	r1, r1, #856	; 0x358
 8001d12:	428a      	cmp	r2, r1
 8001d14:	bf08      	it	eq
 8001d16:	f043 0301 	orreq.w	r3, r3, #1
 8001d1a:	3118      	adds	r1, #24
 8001d1c:	428a      	cmp	r2, r1
 8001d1e:	bf08      	it	eq
 8001d20:	f043 0301 	orreq.w	r3, r3, #1
 8001d24:	3118      	adds	r1, #24
 8001d26:	428a      	cmp	r2, r1
 8001d28:	bf08      	it	eq
 8001d2a:	f043 0301 	orreq.w	r3, r3, #1
 8001d2e:	3118      	adds	r1, #24
 8001d30:	428a      	cmp	r2, r1
 8001d32:	bf08      	it	eq
 8001d34:	f043 0301 	orreq.w	r3, r3, #1
 8001d38:	3118      	adds	r1, #24
 8001d3a:	428a      	cmp	r2, r1
 8001d3c:	bf08      	it	eq
 8001d3e:	f043 0301 	orreq.w	r3, r3, #1
 8001d42:	3118      	adds	r1, #24
 8001d44:	428a      	cmp	r2, r1
 8001d46:	bf08      	it	eq
 8001d48:	f043 0301 	orreq.w	r3, r3, #1
 8001d4c:	3118      	adds	r1, #24
 8001d4e:	428a      	cmp	r2, r1
 8001d50:	bf08      	it	eq
 8001d52:	f043 0301 	orreq.w	r3, r3, #1
 8001d56:	b913      	cbnz	r3, 8001d5e <DMA_CalcBaseAndBitshift+0x9e>
 8001d58:	4b10      	ldr	r3, [pc, #64]	; (8001d9c <DMA_CalcBaseAndBitshift+0xdc>)
 8001d5a:	429a      	cmp	r2, r3
 8001d5c:	d115      	bne.n	8001d8a <DMA_CalcBaseAndBitshift+0xca>
 8001d5e:	b410      	push	{r4}
 8001d60:	b2d1      	uxtb	r1, r2
 8001d62:	3910      	subs	r1, #16
 8001d64:	4b0e      	ldr	r3, [pc, #56]	; (8001da0 <DMA_CalcBaseAndBitshift+0xe0>)
 8001d66:	fba3 4301 	umull	r4, r3, r3, r1
 8001d6a:	f3c3 1302 	ubfx	r3, r3, #4, #3
 8001d6e:	4c0d      	ldr	r4, [pc, #52]	; (8001da4 <DMA_CalcBaseAndBitshift+0xe4>)
 8001d70:	5ce3      	ldrb	r3, [r4, r3]
 8001d72:	65c3      	str	r3, [r0, #92]	; 0x5c
 8001d74:	295f      	cmp	r1, #95	; 0x5f
 8001d76:	4b0c      	ldr	r3, [pc, #48]	; (8001da8 <DMA_CalcBaseAndBitshift+0xe8>)
 8001d78:	ea03 0302 	and.w	r3, r3, r2
 8001d7c:	bf88      	it	hi
 8001d7e:	3304      	addhi	r3, #4
 8001d80:	6583      	str	r3, [r0, #88]	; 0x58
 8001d82:	6d80      	ldr	r0, [r0, #88]	; 0x58
 8001d84:	f85d 4b04 	ldr.w	r4, [sp], #4
 8001d88:	4770      	bx	lr
 8001d8a:	f022 02ff 	bic.w	r2, r2, #255	; 0xff
 8001d8e:	6582      	str	r2, [r0, #88]	; 0x58
 8001d90:	6d80      	ldr	r0, [r0, #88]	; 0x58
 8001d92:	4770      	bx	lr
 8001d94:	40020010 	.word	0x40020010
 8001d98:	40020028 	.word	0x40020028
 8001d9c:	400204b8 	.word	0x400204b8
 8001da0:	aaaaaaab 	.word	0xaaaaaaab
 8001da4:	08006c6c 	.word	0x08006c6c
 8001da8:	fffffc00 	.word	0xfffffc00

08001dac <DMA_CalcDMAMUXChannelBaseAndMask>:
 8001dac:	6803      	ldr	r3, [r0, #0]
 8001dae:	4a28      	ldr	r2, [pc, #160]	; (8001e50 <DMA_CalcDMAMUXChannelBaseAndMask+0xa4>)
 8001db0:	4928      	ldr	r1, [pc, #160]	; (8001e54 <DMA_CalcDMAMUXChannelBaseAndMask+0xa8>)
 8001db2:	428b      	cmp	r3, r1
 8001db4:	bf18      	it	ne
 8001db6:	4293      	cmpne	r3, r2
 8001db8:	bf0c      	ite	eq
 8001dba:	2201      	moveq	r2, #1
 8001dbc:	2200      	movne	r2, #0
 8001dbe:	3114      	adds	r1, #20
 8001dc0:	428b      	cmp	r3, r1
 8001dc2:	bf08      	it	eq
 8001dc4:	f042 0201 	orreq.w	r2, r2, #1
 8001dc8:	3114      	adds	r1, #20
 8001dca:	428b      	cmp	r3, r1
 8001dcc:	bf08      	it	eq
 8001dce:	f042 0201 	orreq.w	r2, r2, #1
 8001dd2:	3114      	adds	r1, #20
 8001dd4:	428b      	cmp	r3, r1
 8001dd6:	bf08      	it	eq
 8001dd8:	f042 0201 	orreq.w	r2, r2, #1
 8001ddc:	3114      	adds	r1, #20
 8001dde:	428b      	cmp	r3, r1
 8001de0:	bf08      	it	eq
 8001de2:	f042 0201 	orreq.w	r2, r2, #1
 8001de6:	3114      	adds	r1, #20
 8001de8:	428b      	cmp	r3, r1
 8001dea:	bf08      	it	eq
 8001dec:	f042 0201 	orreq.w	r2, r2, #1
 8001df0:	b912      	cbnz	r2, 8001df8 <DMA_CalcDMAMUXChannelBaseAndMask+0x4c>
 8001df2:	4a19      	ldr	r2, [pc, #100]	; (8001e58 <DMA_CalcDMAMUXChannelBaseAndMask+0xac>)
 8001df4:	4293      	cmp	r3, r2
 8001df6:	d112      	bne.n	8001e1e <DMA_CalcDMAMUXChannelBaseAndMask+0x72>
 8001df8:	b2db      	uxtb	r3, r3
 8001dfa:	3b08      	subs	r3, #8
 8001dfc:	4a17      	ldr	r2, [pc, #92]	; (8001e5c <DMA_CalcDMAMUXChannelBaseAndMask+0xb0>)
 8001dfe:	fba2 2303 	umull	r2, r3, r2, r3
 8001e02:	4a17      	ldr	r2, [pc, #92]	; (8001e60 <DMA_CalcDMAMUXChannelBaseAndMask+0xb4>)
 8001e04:	eb02 1213 	add.w	r2, r2, r3, lsr #4
 8001e08:	0092      	lsls	r2, r2, #2
 8001e0a:	6602      	str	r2, [r0, #96]	; 0x60
 8001e0c:	4a15      	ldr	r2, [pc, #84]	; (8001e64 <DMA_CalcDMAMUXChannelBaseAndMask+0xb8>)
 8001e0e:	6642      	str	r2, [r0, #100]	; 0x64
 8001e10:	f3c3 1304 	ubfx	r3, r3, #4, #5
 8001e14:	2201      	movs	r2, #1
 8001e16:	fa02 f303 	lsl.w	r3, r2, r3
 8001e1a:	6683      	str	r3, [r0, #104]	; 0x68
 8001e1c:	4770      	bx	lr
 8001e1e:	b2da      	uxtb	r2, r3
 8001e20:	3a10      	subs	r2, #16
 8001e22:	4911      	ldr	r1, [pc, #68]	; (8001e68 <DMA_CalcDMAMUXChannelBaseAndMask+0xbc>)
 8001e24:	fba1 1202 	umull	r1, r2, r1, r2
 8001e28:	0912      	lsrs	r2, r2, #4
 8001e2a:	4910      	ldr	r1, [pc, #64]	; (8001e6c <DMA_CalcDMAMUXChannelBaseAndMask+0xc0>)
 8001e2c:	4419      	add	r1, r3
 8001e2e:	29a8      	cmp	r1, #168	; 0xa8
 8001e30:	d90c      	bls.n	8001e4c <DMA_CalcDMAMUXChannelBaseAndMask+0xa0>
 8001e32:	4b0f      	ldr	r3, [pc, #60]	; (8001e70 <DMA_CalcDMAMUXChannelBaseAndMask+0xc4>)
 8001e34:	4413      	add	r3, r2
 8001e36:	009b      	lsls	r3, r3, #2
 8001e38:	6603      	str	r3, [r0, #96]	; 0x60
 8001e3a:	4b0e      	ldr	r3, [pc, #56]	; (8001e74 <DMA_CalcDMAMUXChannelBaseAndMask+0xc8>)
 8001e3c:	6643      	str	r3, [r0, #100]	; 0x64
 8001e3e:	f002 021f 	and.w	r2, r2, #31
 8001e42:	2301      	movs	r3, #1
 8001e44:	fa03 f202 	lsl.w	r2, r3, r2
 8001e48:	6682      	str	r2, [r0, #104]	; 0x68
 8001e4a:	4770      	bx	lr
 8001e4c:	3208      	adds	r2, #8
 8001e4e:	e7f0      	b.n	8001e32 <DMA_CalcDMAMUXChannelBaseAndMask+0x86>
 8001e50:	58025408 	.word	0x58025408
 8001e54:	5802541c 	.word	0x5802541c
 8001e58:	58025494 	.word	0x58025494
 8001e5c:	cccccccd 	.word	0xcccccccd
 8001e60:	16009600 	.word	0x16009600
 8001e64:	58025880 	.word	0x58025880
 8001e68:	aaaaaaab 	.word	0xaaaaaaab
 8001e6c:	bffdfbf0 	.word	0xbffdfbf0
 8001e70:	10008200 	.word	0x10008200
 8001e74:	40020880 	.word	0x40020880

08001e78 <DMA_CalcDMAMUXRequestGenBaseAndMask>:
 8001e78:	b430      	push	{r4, r5}
 8001e7a:	7904      	ldrb	r4, [r0, #4]
 8001e7c:	1e61      	subs	r1, r4, #1
 8001e7e:	2907      	cmp	r1, #7
 8001e80:	d82f      	bhi.n	8001ee2 <DMA_CalcDMAMUXRequestGenBaseAndMask+0x6a>
 8001e82:	6802      	ldr	r2, [r0, #0]
 8001e84:	4b1b      	ldr	r3, [pc, #108]	; (8001ef4 <DMA_CalcDMAMUXRequestGenBaseAndMask+0x7c>)
 8001e86:	4d1c      	ldr	r5, [pc, #112]	; (8001ef8 <DMA_CalcDMAMUXRequestGenBaseAndMask+0x80>)
 8001e88:	42aa      	cmp	r2, r5
 8001e8a:	bf18      	it	ne
 8001e8c:	429a      	cmpne	r2, r3
 8001e8e:	bf0c      	ite	eq
 8001e90:	2301      	moveq	r3, #1
 8001e92:	2300      	movne	r3, #0
 8001e94:	3514      	adds	r5, #20
 8001e96:	42aa      	cmp	r2, r5
 8001e98:	bf08      	it	eq
 8001e9a:	f043 0301 	orreq.w	r3, r3, #1
 8001e9e:	3514      	adds	r5, #20
 8001ea0:	42aa      	cmp	r2, r5
 8001ea2:	bf08      	it	eq
 8001ea4:	f043 0301 	orreq.w	r3, r3, #1
 8001ea8:	3514      	adds	r5, #20
 8001eaa:	42aa      	cmp	r2, r5
 8001eac:	bf08      	it	eq
 8001eae:	f043 0301 	orreq.w	r3, r3, #1
 8001eb2:	3514      	adds	r5, #20
 8001eb4:	42aa      	cmp	r2, r5
 8001eb6:	bf08      	it	eq
 8001eb8:	f043 0301 	orreq.w	r3, r3, #1
 8001ebc:	3514      	adds	r5, #20
 8001ebe:	42aa      	cmp	r2, r5
 8001ec0:	bf08      	it	eq
 8001ec2:	f043 0301 	orreq.w	r3, r3, #1
 8001ec6:	b913      	cbnz	r3, 8001ece <DMA_CalcDMAMUXRequestGenBaseAndMask+0x56>
 8001ec8:	4b0c      	ldr	r3, [pc, #48]	; (8001efc <DMA_CalcDMAMUXRequestGenBaseAndMask+0x84>)
 8001eca:	429a      	cmp	r2, r3
 8001ecc:	d10b      	bne.n	8001ee6 <DMA_CalcDMAMUXRequestGenBaseAndMask+0x6e>
 8001ece:	4b0c      	ldr	r3, [pc, #48]	; (8001f00 <DMA_CalcDMAMUXRequestGenBaseAndMask+0x88>)
 8001ed0:	4423      	add	r3, r4
 8001ed2:	009b      	lsls	r3, r3, #2
 8001ed4:	66c3      	str	r3, [r0, #108]	; 0x6c
 8001ed6:	4b0b      	ldr	r3, [pc, #44]	; (8001f04 <DMA_CalcDMAMUXRequestGenBaseAndMask+0x8c>)
 8001ed8:	6703      	str	r3, [r0, #112]	; 0x70
 8001eda:	2301      	movs	r3, #1
 8001edc:	fa03 f101 	lsl.w	r1, r3, r1
 8001ee0:	6741      	str	r1, [r0, #116]	; 0x74
 8001ee2:	bc30      	pop	{r4, r5}
 8001ee4:	4770      	bx	lr
 8001ee6:	4b08      	ldr	r3, [pc, #32]	; (8001f08 <DMA_CalcDMAMUXRequestGenBaseAndMask+0x90>)
 8001ee8:	4423      	add	r3, r4
 8001eea:	009b      	lsls	r3, r3, #2
 8001eec:	66c3      	str	r3, [r0, #108]	; 0x6c
 8001eee:	4b07      	ldr	r3, [pc, #28]	; (8001f0c <DMA_CalcDMAMUXRequestGenBaseAndMask+0x94>)
 8001ef0:	6703      	str	r3, [r0, #112]	; 0x70
 8001ef2:	e7f2      	b.n	8001eda <DMA_CalcDMAMUXRequestGenBaseAndMask+0x62>
 8001ef4:	58025408 	.word	0x58025408
 8001ef8:	5802541c 	.word	0x5802541c
 8001efc:	58025494 	.word	0x58025494
 8001f00:	1600963f 	.word	0x1600963f
 8001f04:	58025940 	.word	0x58025940
 8001f08:	1000823f 	.word	0x1000823f
 8001f0c:	40020940 	.word	0x40020940

08001f10 <HAL_DMA_Init>:
 8001f10:	b538      	push	{r3, r4, r5, lr}
 8001f12:	4604      	mov	r4, r0
 8001f14:	f7ff fcf8 	bl	8001908 <HAL_GetTick>
 8001f18:	2c00      	cmp	r4, #0
 8001f1a:	f000 820a 	beq.w	8002332 <HAL_DMA_Init+0x422>
 8001f1e:	4605      	mov	r5, r0
 8001f20:	6822      	ldr	r2, [r4, #0]
 8001f22:	4b64      	ldr	r3, [pc, #400]	; (80020b4 <HAL_DMA_Init+0x1a4>)
 8001f24:	4964      	ldr	r1, [pc, #400]	; (80020b8 <HAL_DMA_Init+0x1a8>)
 8001f26:	428a      	cmp	r2, r1
 8001f28:	bf18      	it	ne
 8001f2a:	429a      	cmpne	r2, r3
 8001f2c:	bf0c      	ite	eq
 8001f2e:	2301      	moveq	r3, #1
 8001f30:	2300      	movne	r3, #0
 8001f32:	3118      	adds	r1, #24
 8001f34:	428a      	cmp	r2, r1
 8001f36:	bf08      	it	eq
 8001f38:	f043 0301 	orreq.w	r3, r3, #1
 8001f3c:	3118      	adds	r1, #24
 8001f3e:	428a      	cmp	r2, r1
 8001f40:	bf08      	it	eq
 8001f42:	f043 0301 	orreq.w	r3, r3, #1
 8001f46:	3118      	adds	r1, #24
 8001f48:	428a      	cmp	r2, r1
 8001f4a:	bf08      	it	eq
 8001f4c:	f043 0301 	orreq.w	r3, r3, #1
 8001f50:	3118      	adds	r1, #24
 8001f52:	428a      	cmp	r2, r1
 8001f54:	bf08      	it	eq
 8001f56:	f043 0301 	orreq.w	r3, r3, #1
 8001f5a:	3118      	adds	r1, #24
 8001f5c:	428a      	cmp	r2, r1
 8001f5e:	bf08      	it	eq
 8001f60:	f043 0301 	orreq.w	r3, r3, #1
 8001f64:	3118      	adds	r1, #24
 8001f66:	428a      	cmp	r2, r1
 8001f68:	bf08      	it	eq
 8001f6a:	f043 0301 	orreq.w	r3, r3, #1
 8001f6e:	f501 7156 	add.w	r1, r1, #856	; 0x358
 8001f72:	428a      	cmp	r2, r1
 8001f74:	bf08      	it	eq
 8001f76:	f043 0301 	orreq.w	r3, r3, #1
 8001f7a:	3118      	adds	r1, #24
 8001f7c:	428a      	cmp	r2, r1
 8001f7e:	bf08      	it	eq
 8001f80:	f043 0301 	orreq.w	r3, r3, #1
 8001f84:	3118      	adds	r1, #24
 8001f86:	428a      	cmp	r2, r1
 8001f88:	bf08      	it	eq
 8001f8a:	f043 0301 	orreq.w	r3, r3, #1
 8001f8e:	3118      	adds	r1, #24
 8001f90:	428a      	cmp	r2, r1
 8001f92:	bf08      	it	eq
 8001f94:	f043 0301 	orreq.w	r3, r3, #1
 8001f98:	3118      	adds	r1, #24
 8001f9a:	428a      	cmp	r2, r1
 8001f9c:	bf08      	it	eq
 8001f9e:	f043 0301 	orreq.w	r3, r3, #1
 8001fa2:	3118      	adds	r1, #24
 8001fa4:	428a      	cmp	r2, r1
 8001fa6:	bf08      	it	eq
 8001fa8:	f043 0301 	orreq.w	r3, r3, #1
 8001fac:	3118      	adds	r1, #24
 8001fae:	428a      	cmp	r2, r1
 8001fb0:	bf08      	it	eq
 8001fb2:	f043 0301 	orreq.w	r3, r3, #1
 8001fb6:	b913      	cbnz	r3, 8001fbe <HAL_DMA_Init+0xae>
 8001fb8:	4b40      	ldr	r3, [pc, #256]	; (80020bc <HAL_DMA_Init+0x1ac>)
 8001fba:	429a      	cmp	r2, r3
 8001fbc:	d11a      	bne.n	8001ff4 <HAL_DMA_Init+0xe4>
 8001fbe:	2300      	movs	r3, #0
 8001fc0:	f884 3034 	strb.w	r3, [r4, #52]	; 0x34
 8001fc4:	2302      	movs	r3, #2
 8001fc6:	f884 3035 	strb.w	r3, [r4, #53]	; 0x35
 8001fca:	6813      	ldr	r3, [r2, #0]
 8001fcc:	f023 0301 	bic.w	r3, r3, #1
 8001fd0:	6013      	str	r3, [r2, #0]
 8001fd2:	6823      	ldr	r3, [r4, #0]
 8001fd4:	681a      	ldr	r2, [r3, #0]
 8001fd6:	f012 0f01 	tst.w	r2, #1
 8001fda:	d07d      	beq.n	80020d8 <HAL_DMA_Init+0x1c8>
 8001fdc:	f7ff fc94 	bl	8001908 <HAL_GetTick>
 8001fe0:	1b43      	subs	r3, r0, r5
 8001fe2:	2b05      	cmp	r3, #5
 8001fe4:	d9f5      	bls.n	8001fd2 <HAL_DMA_Init+0xc2>
 8001fe6:	2320      	movs	r3, #32
 8001fe8:	6563      	str	r3, [r4, #84]	; 0x54
 8001fea:	2303      	movs	r3, #3
 8001fec:	f884 3035 	strb.w	r3, [r4, #53]	; 0x35
 8001ff0:	2001      	movs	r0, #1
 8001ff2:	bd38      	pop	{r3, r4, r5, pc}
 8001ff4:	4b32      	ldr	r3, [pc, #200]	; (80020c0 <HAL_DMA_Init+0x1b0>)
 8001ff6:	4933      	ldr	r1, [pc, #204]	; (80020c4 <HAL_DMA_Init+0x1b4>)
 8001ff8:	428a      	cmp	r2, r1
 8001ffa:	bf18      	it	ne
 8001ffc:	429a      	cmpne	r2, r3
 8001ffe:	bf0c      	ite	eq
 8002000:	2301      	moveq	r3, #1
 8002002:	2300      	movne	r3, #0
 8002004:	3114      	adds	r1, #20
 8002006:	428a      	cmp	r2, r1
 8002008:	bf08      	it	eq
 800200a:	f043 0301 	orreq.w	r3, r3, #1
 800200e:	3114      	adds	r1, #20
 8002010:	428a      	cmp	r2, r1
 8002012:	bf08      	it	eq
 8002014:	f043 0301 	orreq.w	r3, r3, #1
 8002018:	3114      	adds	r1, #20
 800201a:	428a      	cmp	r2, r1
 800201c:	bf08      	it	eq
 800201e:	f043 0301 	orreq.w	r3, r3, #1
 8002022:	3114      	adds	r1, #20
 8002024:	428a      	cmp	r2, r1
 8002026:	bf08      	it	eq
 8002028:	f043 0301 	orreq.w	r3, r3, #1
 800202c:	3114      	adds	r1, #20
 800202e:	428a      	cmp	r2, r1
 8002030:	bf08      	it	eq
 8002032:	f043 0301 	orreq.w	r3, r3, #1
 8002036:	b91b      	cbnz	r3, 8002040 <HAL_DMA_Init+0x130>
 8002038:	4b23      	ldr	r3, [pc, #140]	; (80020c8 <HAL_DMA_Init+0x1b8>)
 800203a:	429a      	cmp	r2, r3
 800203c:	f040 8163 	bne.w	8002306 <HAL_DMA_Init+0x3f6>
 8002040:	2300      	movs	r3, #0
 8002042:	f884 3034 	strb.w	r3, [r4, #52]	; 0x34
 8002046:	2302      	movs	r3, #2
 8002048:	f884 3035 	strb.w	r3, [r4, #53]	; 0x35
 800204c:	6813      	ldr	r3, [r2, #0]
 800204e:	481f      	ldr	r0, [pc, #124]	; (80020cc <HAL_DMA_Init+0x1bc>)
 8002050:	4018      	ands	r0, r3
 8002052:	68a3      	ldr	r3, [r4, #8]
 8002054:	2b40      	cmp	r3, #64	; 0x40
 8002056:	f000 815d 	beq.w	8002314 <HAL_DMA_Init+0x404>
 800205a:	2b80      	cmp	r3, #128	; 0x80
 800205c:	bf0c      	ite	eq
 800205e:	f44f 4180 	moveq.w	r1, #16384	; 0x4000
 8002062:	2100      	movne	r1, #0
 8002064:	68e5      	ldr	r5, [r4, #12]
 8002066:	6923      	ldr	r3, [r4, #16]
 8002068:	08db      	lsrs	r3, r3, #3
 800206a:	ea43 03d5 	orr.w	r3, r3, r5, lsr #3
 800206e:	6965      	ldr	r5, [r4, #20]
 8002070:	ea43 03d5 	orr.w	r3, r3, r5, lsr #3
 8002074:	69a5      	ldr	r5, [r4, #24]
 8002076:	ea43 03d5 	orr.w	r3, r3, r5, lsr #3
 800207a:	69e5      	ldr	r5, [r4, #28]
 800207c:	ea43 03d5 	orr.w	r3, r3, r5, lsr #3
 8002080:	6a25      	ldr	r5, [r4, #32]
 8002082:	ea43 1315 	orr.w	r3, r3, r5, lsr #4
 8002086:	4303      	orrs	r3, r0
 8002088:	430b      	orrs	r3, r1
 800208a:	6013      	str	r3, [r2, #0]
 800208c:	6822      	ldr	r2, [r4, #0]
 800208e:	4b10      	ldr	r3, [pc, #64]	; (80020d0 <HAL_DMA_Init+0x1c0>)
 8002090:	4413      	add	r3, r2
 8002092:	4a10      	ldr	r2, [pc, #64]	; (80020d4 <HAL_DMA_Init+0x1c4>)
 8002094:	fba2 2303 	umull	r2, r3, r2, r3
 8002098:	091b      	lsrs	r3, r3, #4
 800209a:	009b      	lsls	r3, r3, #2
 800209c:	65e3      	str	r3, [r4, #92]	; 0x5c
 800209e:	4620      	mov	r0, r4
 80020a0:	f7ff fe0e 	bl	8001cc0 <DMA_CalcBaseAndBitshift>
 80020a4:	6de2      	ldr	r2, [r4, #92]	; 0x5c
 80020a6:	f002 011f 	and.w	r1, r2, #31
 80020aa:	2201      	movs	r2, #1
 80020ac:	408a      	lsls	r2, r1
 80020ae:	6042      	str	r2, [r0, #4]
 80020b0:	e05e      	b.n	8002170 <HAL_DMA_Init+0x260>
 80020b2:	bf00      	nop
 80020b4:	40020010 	.word	0x40020010
 80020b8:	40020028 	.word	0x40020028
 80020bc:	400204b8 	.word	0x400204b8
 80020c0:	58025408 	.word	0x58025408
 80020c4:	5802541c 	.word	0x5802541c
 80020c8:	58025494 	.word	0x58025494
 80020cc:	fffe000f 	.word	0xfffe000f
 80020d0:	a7fdabf8 	.word	0xa7fdabf8
 80020d4:	cccccccd 	.word	0xcccccccd
 80020d8:	681a      	ldr	r2, [r3, #0]
 80020da:	4899      	ldr	r0, [pc, #612]	; (8002340 <HAL_DMA_Init+0x430>)
 80020dc:	4010      	ands	r0, r2
 80020de:	68a1      	ldr	r1, [r4, #8]
 80020e0:	68e2      	ldr	r2, [r4, #12]
 80020e2:	430a      	orrs	r2, r1
 80020e4:	6921      	ldr	r1, [r4, #16]
 80020e6:	430a      	orrs	r2, r1
 80020e8:	6961      	ldr	r1, [r4, #20]
 80020ea:	430a      	orrs	r2, r1
 80020ec:	69a1      	ldr	r1, [r4, #24]
 80020ee:	430a      	orrs	r2, r1
 80020f0:	69e1      	ldr	r1, [r4, #28]
 80020f2:	430a      	orrs	r2, r1
 80020f4:	6a21      	ldr	r1, [r4, #32]
 80020f6:	430a      	orrs	r2, r1
 80020f8:	4302      	orrs	r2, r0
 80020fa:	6a61      	ldr	r1, [r4, #36]	; 0x24
 80020fc:	2904      	cmp	r1, #4
 80020fe:	f000 80c8 	beq.w	8002292 <HAL_DMA_Init+0x382>
 8002102:	4990      	ldr	r1, [pc, #576]	; (8002344 <HAL_DMA_Init+0x434>)
 8002104:	6808      	ldr	r0, [r1, #0]
 8002106:	4990      	ldr	r1, [pc, #576]	; (8002348 <HAL_DMA_Init+0x438>)
 8002108:	4001      	ands	r1, r0
 800210a:	f1b1 5f00 	cmp.w	r1, #536870912	; 0x20000000
 800210e:	d30d      	bcc.n	800212c <HAL_DMA_Init+0x21c>
 8002110:	6861      	ldr	r1, [r4, #4]
 8002112:	f1a1 0029 	sub.w	r0, r1, #41	; 0x29
 8002116:	281f      	cmp	r0, #31
 8002118:	f200 810d 	bhi.w	8002336 <HAL_DMA_Init+0x426>
 800211c:	498b      	ldr	r1, [pc, #556]	; (800234c <HAL_DMA_Init+0x43c>)
 800211e:	fa21 f000 	lsr.w	r0, r1, r0
 8002122:	f010 0f01 	tst.w	r0, #1
 8002126:	d001      	beq.n	800212c <HAL_DMA_Init+0x21c>
 8002128:	f442 1280 	orr.w	r2, r2, #1048576	; 0x100000
 800212c:	601a      	str	r2, [r3, #0]
 800212e:	6821      	ldr	r1, [r4, #0]
 8002130:	694a      	ldr	r2, [r1, #20]
 8002132:	f022 0207 	bic.w	r2, r2, #7
 8002136:	6a63      	ldr	r3, [r4, #36]	; 0x24
 8002138:	431a      	orrs	r2, r3
 800213a:	2b04      	cmp	r3, #4
 800213c:	d10e      	bne.n	800215c <HAL_DMA_Init+0x24c>
 800213e:	6aa3      	ldr	r3, [r4, #40]	; 0x28
 8002140:	431a      	orrs	r2, r3
 8002142:	6ae0      	ldr	r0, [r4, #44]	; 0x2c
 8002144:	b150      	cbz	r0, 800215c <HAL_DMA_Init+0x24c>
 8002146:	69a5      	ldr	r5, [r4, #24]
 8002148:	2d00      	cmp	r5, #0
 800214a:	f040 80b8 	bne.w	80022be <HAL_DMA_Init+0x3ae>
 800214e:	2b01      	cmp	r3, #1
 8002150:	f000 80af 	beq.w	80022b2 <HAL_DMA_Init+0x3a2>
 8002154:	f033 0302 	bics.w	r3, r3, #2
 8002158:	f000 80a0 	beq.w	800229c <HAL_DMA_Init+0x38c>
 800215c:	614a      	str	r2, [r1, #20]
 800215e:	4620      	mov	r0, r4
 8002160:	f7ff fdae 	bl	8001cc0 <DMA_CalcBaseAndBitshift>
 8002164:	6de3      	ldr	r3, [r4, #92]	; 0x5c
 8002166:	f003 021f 	and.w	r2, r3, #31
 800216a:	233f      	movs	r3, #63	; 0x3f
 800216c:	4093      	lsls	r3, r2
 800216e:	6083      	str	r3, [r0, #8]
 8002170:	6822      	ldr	r2, [r4, #0]
 8002172:	4b77      	ldr	r3, [pc, #476]	; (8002350 <HAL_DMA_Init+0x440>)
 8002174:	4977      	ldr	r1, [pc, #476]	; (8002354 <HAL_DMA_Init+0x444>)
 8002176:	428a      	cmp	r2, r1
 8002178:	bf18      	it	ne
 800217a:	429a      	cmpne	r2, r3
 800217c:	bf0c      	ite	eq
 800217e:	2301      	moveq	r3, #1
 8002180:	2300      	movne	r3, #0
 8002182:	3118      	adds	r1, #24
 8002184:	428a      	cmp	r2, r1
 8002186:	bf08      	it	eq
 8002188:	f043 0301 	orreq.w	r3, r3, #1
 800218c:	3118      	adds	r1, #24
 800218e:	428a      	cmp	r2, r1
 8002190:	bf08      	it	eq
 8002192:	f043 0301 	orreq.w	r3, r3, #1
 8002196:	3118      	adds	r1, #24
 8002198:	428a      	cmp	r2, r1
 800219a:	bf08      	it	eq
 800219c:	f043 0301 	orreq.w	r3, r3, #1
 80021a0:	3118      	adds	r1, #24
 80021a2:	428a      	cmp	r2, r1
 80021a4:	bf08      	it	eq
 80021a6:	f043 0301 	orreq.w	r3, r3, #1
 80021aa:	3118      	adds	r1, #24
 80021ac:	428a      	cmp	r2, r1
 80021ae:	bf08      	it	eq
 80021b0:	f043 0301 	orreq.w	r3, r3, #1
 80021b4:	3118      	adds	r1, #24
 80021b6:	428a      	cmp	r2, r1
 80021b8:	bf08      	it	eq
 80021ba:	f043 0301 	orreq.w	r3, r3, #1
 80021be:	f501 7156 	add.w	r1, r1, #856	; 0x358
 80021c2:	428a      	cmp	r2, r1
 80021c4:	bf08      	it	eq
 80021c6:	f043 0301 	orreq.w	r3, r3, #1
 80021ca:	3118      	adds	r1, #24
 80021cc:	428a      	cmp	r2, r1
 80021ce:	bf08      	it	eq
 80021d0:	f043 0301 	orreq.w	r3, r3, #1
 80021d4:	3118      	adds	r1, #24
 80021d6:	428a      	cmp	r2, r1
 80021d8:	bf08      	it	eq
 80021da:	f043 0301 	orreq.w	r3, r3, #1
 80021de:	3118      	adds	r1, #24
 80021e0:	428a      	cmp	r2, r1
 80021e2:	bf08      	it	eq
 80021e4:	f043 0301 	orreq.w	r3, r3, #1
 80021e8:	3118      	adds	r1, #24
 80021ea:	428a      	cmp	r2, r1
 80021ec:	bf08      	it	eq
 80021ee:	f043 0301 	orreq.w	r3, r3, #1
 80021f2:	3118      	adds	r1, #24
 80021f4:	428a      	cmp	r2, r1
 80021f6:	bf08      	it	eq
 80021f8:	f043 0301 	orreq.w	r3, r3, #1
 80021fc:	3118      	adds	r1, #24
 80021fe:	428a      	cmp	r2, r1
 8002200:	bf08      	it	eq
 8002202:	f043 0301 	orreq.w	r3, r3, #1
 8002206:	3118      	adds	r1, #24
 8002208:	428a      	cmp	r2, r1
 800220a:	bf08      	it	eq
 800220c:	f043 0301 	orreq.w	r3, r3, #1
 8002210:	4951      	ldr	r1, [pc, #324]	; (8002358 <HAL_DMA_Init+0x448>)
 8002212:	428a      	cmp	r2, r1
 8002214:	bf08      	it	eq
 8002216:	f043 0301 	orreq.w	r3, r3, #1
 800221a:	3114      	adds	r1, #20
 800221c:	428a      	cmp	r2, r1
 800221e:	bf08      	it	eq
 8002220:	f043 0301 	orreq.w	r3, r3, #1
 8002224:	3114      	adds	r1, #20
 8002226:	428a      	cmp	r2, r1
 8002228:	bf08      	it	eq
 800222a:	f043 0301 	orreq.w	r3, r3, #1
 800222e:	3114      	adds	r1, #20
 8002230:	428a      	cmp	r2, r1
 8002232:	bf08      	it	eq
 8002234:	f043 0301 	orreq.w	r3, r3, #1
 8002238:	3114      	adds	r1, #20
 800223a:	428a      	cmp	r2, r1
 800223c:	bf08      	it	eq
 800223e:	f043 0301 	orreq.w	r3, r3, #1
 8002242:	3114      	adds	r1, #20
 8002244:	428a      	cmp	r2, r1
 8002246:	bf08      	it	eq
 8002248:	f043 0301 	orreq.w	r3, r3, #1
 800224c:	3114      	adds	r1, #20
 800224e:	428a      	cmp	r2, r1
 8002250:	bf08      	it	eq
 8002252:	f043 0301 	orreq.w	r3, r3, #1
 8002256:	b913      	cbnz	r3, 800225e <HAL_DMA_Init+0x34e>
 8002258:	4b40      	ldr	r3, [pc, #256]	; (800235c <HAL_DMA_Init+0x44c>)
 800225a:	429a      	cmp	r2, r3
 800225c:	d113      	bne.n	8002286 <HAL_DMA_Init+0x376>
 800225e:	4620      	mov	r0, r4
 8002260:	f7ff fda4 	bl	8001dac <DMA_CalcDMAMUXChannelBaseAndMask>
 8002264:	68a3      	ldr	r3, [r4, #8]
 8002266:	2b80      	cmp	r3, #128	; 0x80
 8002268:	d056      	beq.n	8002318 <HAL_DMA_Init+0x408>
 800226a:	6e23      	ldr	r3, [r4, #96]	; 0x60
 800226c:	7922      	ldrb	r2, [r4, #4]
 800226e:	601a      	str	r2, [r3, #0]
 8002270:	6e63      	ldr	r3, [r4, #100]	; 0x64
 8002272:	6ea2      	ldr	r2, [r4, #104]	; 0x68
 8002274:	605a      	str	r2, [r3, #4]
 8002276:	6863      	ldr	r3, [r4, #4]
 8002278:	3b01      	subs	r3, #1
 800227a:	2b07      	cmp	r3, #7
 800227c:	d94f      	bls.n	800231e <HAL_DMA_Init+0x40e>
 800227e:	2300      	movs	r3, #0
 8002280:	66e3      	str	r3, [r4, #108]	; 0x6c
 8002282:	6723      	str	r3, [r4, #112]	; 0x70
 8002284:	6763      	str	r3, [r4, #116]	; 0x74
 8002286:	2000      	movs	r0, #0
 8002288:	6560      	str	r0, [r4, #84]	; 0x54
 800228a:	2301      	movs	r3, #1
 800228c:	f884 3035 	strb.w	r3, [r4, #53]	; 0x35
 8002290:	e6af      	b.n	8001ff2 <HAL_DMA_Init+0xe2>
 8002292:	6ae1      	ldr	r1, [r4, #44]	; 0x2c
 8002294:	6b20      	ldr	r0, [r4, #48]	; 0x30
 8002296:	4301      	orrs	r1, r0
 8002298:	430a      	orrs	r2, r1
 800229a:	e732      	b.n	8002102 <HAL_DMA_Init+0x1f2>
 800229c:	f3c0 6000 	ubfx	r0, r0, #24, #1
 80022a0:	2800      	cmp	r0, #0
 80022a2:	f43f af5b 	beq.w	800215c <HAL_DMA_Init+0x24c>
 80022a6:	2340      	movs	r3, #64	; 0x40
 80022a8:	6563      	str	r3, [r4, #84]	; 0x54
 80022aa:	2001      	movs	r0, #1
 80022ac:	f884 0035 	strb.w	r0, [r4, #53]	; 0x35
 80022b0:	e69f      	b.n	8001ff2 <HAL_DMA_Init+0xe2>
 80022b2:	f1b0 7fc0 	cmp.w	r0, #25165824	; 0x1800000
 80022b6:	bf14      	ite	ne
 80022b8:	2000      	movne	r0, #0
 80022ba:	2001      	moveq	r0, #1
 80022bc:	e7f0      	b.n	80022a0 <HAL_DMA_Init+0x390>
 80022be:	f5b5 5f00 	cmp.w	r5, #8192	; 0x2000
 80022c2:	d007      	beq.n	80022d4 <HAL_DMA_Init+0x3c4>
 80022c4:	2b02      	cmp	r3, #2
 80022c6:	d9ee      	bls.n	80022a6 <HAL_DMA_Init+0x396>
 80022c8:	2b03      	cmp	r3, #3
 80022ca:	f47f af47 	bne.w	800215c <HAL_DMA_Init+0x24c>
 80022ce:	f3c0 6000 	ubfx	r0, r0, #24, #1
 80022d2:	e7e5      	b.n	80022a0 <HAL_DMA_Init+0x390>
 80022d4:	2b03      	cmp	r3, #3
 80022d6:	d814      	bhi.n	8002302 <HAL_DMA_Init+0x3f2>
 80022d8:	a501      	add	r5, pc, #4	; (adr r5, 80022e0 <HAL_DMA_Init+0x3d0>)
 80022da:	f855 f023 	ldr.w	pc, [r5, r3, lsl #2]
 80022de:	bf00      	nop
 80022e0:	080022a7 	.word	0x080022a7
 80022e4:	080022f1 	.word	0x080022f1
 80022e8:	080022a7 	.word	0x080022a7
 80022ec:	080022f7 	.word	0x080022f7
 80022f0:	f3c0 6000 	ubfx	r0, r0, #24, #1
 80022f4:	e7d4      	b.n	80022a0 <HAL_DMA_Init+0x390>
 80022f6:	f1b0 7fc0 	cmp.w	r0, #25165824	; 0x1800000
 80022fa:	bf14      	ite	ne
 80022fc:	2000      	movne	r0, #0
 80022fe:	2001      	moveq	r0, #1
 8002300:	e7ce      	b.n	80022a0 <HAL_DMA_Init+0x390>
 8002302:	2000      	movs	r0, #0
 8002304:	e7cc      	b.n	80022a0 <HAL_DMA_Init+0x390>
 8002306:	2340      	movs	r3, #64	; 0x40
 8002308:	6563      	str	r3, [r4, #84]	; 0x54
 800230a:	2303      	movs	r3, #3
 800230c:	f884 3035 	strb.w	r3, [r4, #53]	; 0x35
 8002310:	2001      	movs	r0, #1
 8002312:	e66e      	b.n	8001ff2 <HAL_DMA_Init+0xe2>
 8002314:	2110      	movs	r1, #16
 8002316:	e6a5      	b.n	8002064 <HAL_DMA_Init+0x154>
 8002318:	2300      	movs	r3, #0
 800231a:	6063      	str	r3, [r4, #4]
 800231c:	e7a5      	b.n	800226a <HAL_DMA_Init+0x35a>
 800231e:	4620      	mov	r0, r4
 8002320:	f7ff fdaa 	bl	8001e78 <DMA_CalcDMAMUXRequestGenBaseAndMask>
 8002324:	6ee3      	ldr	r3, [r4, #108]	; 0x6c
 8002326:	2200      	movs	r2, #0
 8002328:	601a      	str	r2, [r3, #0]
 800232a:	6f23      	ldr	r3, [r4, #112]	; 0x70
 800232c:	6f62      	ldr	r2, [r4, #116]	; 0x74
 800232e:	605a      	str	r2, [r3, #4]
 8002330:	e7a9      	b.n	8002286 <HAL_DMA_Init+0x376>
 8002332:	2001      	movs	r0, #1
 8002334:	e65d      	b.n	8001ff2 <HAL_DMA_Init+0xe2>
 8002336:	394f      	subs	r1, #79	; 0x4f
 8002338:	2903      	cmp	r1, #3
 800233a:	f67f aef5 	bls.w	8002128 <HAL_DMA_Init+0x218>
 800233e:	e6f5      	b.n	800212c <HAL_DMA_Init+0x21c>
 8002340:	fe10803f 	.word	0xfe10803f
 8002344:	5c001000 	.word	0x5c001000
 8002348:	ffff0000 	.word	0xffff0000
 800234c:	c3c0003f 	.word	0xc3c0003f
 8002350:	40020010 	.word	0x40020010
 8002354:	40020028 	.word	0x40020028
 8002358:	58025408 	.word	0x58025408
 800235c:	58025494 	.word	0x58025494

08002360 <HAL_DMA_Start>:
 8002360:	2800      	cmp	r0, #0
 8002362:	f000 80d2 	beq.w	800250a <HAL_DMA_Start+0x1aa>
 8002366:	b570      	push	{r4, r5, r6, lr}
 8002368:	4604      	mov	r4, r0
 800236a:	f890 0034 	ldrb.w	r0, [r0, #52]	; 0x34
 800236e:	2801      	cmp	r0, #1
 8002370:	f000 80cd 	beq.w	800250e <HAL_DMA_Start+0x1ae>
 8002374:	2001      	movs	r0, #1
 8002376:	f884 0034 	strb.w	r0, [r4, #52]	; 0x34
 800237a:	f894 0035 	ldrb.w	r0, [r4, #53]	; 0x35
 800237e:	b2c0      	uxtb	r0, r0
 8002380:	2801      	cmp	r0, #1
 8002382:	d007      	beq.n	8002394 <HAL_DMA_Start+0x34>
 8002384:	2300      	movs	r3, #0
 8002386:	f884 3034 	strb.w	r3, [r4, #52]	; 0x34
 800238a:	f44f 6300 	mov.w	r3, #2048	; 0x800
 800238e:	6563      	str	r3, [r4, #84]	; 0x54
 8002390:	2001      	movs	r0, #1
 8002392:	bd70      	pop	{r4, r5, r6, pc}
 8002394:	2002      	movs	r0, #2
 8002396:	f884 0035 	strb.w	r0, [r4, #53]	; 0x35
 800239a:	2000      	movs	r0, #0
 800239c:	6560      	str	r0, [r4, #84]	; 0x54
 800239e:	6825      	ldr	r5, [r4, #0]
 80023a0:	485c      	ldr	r0, [pc, #368]	; (8002514 <HAL_DMA_Start+0x1b4>)
 80023a2:	4e5d      	ldr	r6, [pc, #372]	; (8002518 <HAL_DMA_Start+0x1b8>)
 80023a4:	42b5      	cmp	r5, r6
 80023a6:	bf18      	it	ne
 80023a8:	4285      	cmpne	r5, r0
 80023aa:	bf0c      	ite	eq
 80023ac:	2001      	moveq	r0, #1
 80023ae:	2000      	movne	r0, #0
 80023b0:	3618      	adds	r6, #24
 80023b2:	42b5      	cmp	r5, r6
 80023b4:	bf08      	it	eq
 80023b6:	f040 0001 	orreq.w	r0, r0, #1
 80023ba:	3618      	adds	r6, #24
 80023bc:	42b5      	cmp	r5, r6
 80023be:	bf08      	it	eq
 80023c0:	f040 0001 	orreq.w	r0, r0, #1
 80023c4:	3618      	adds	r6, #24
 80023c6:	42b5      	cmp	r5, r6
 80023c8:	bf08      	it	eq
 80023ca:	f040 0001 	orreq.w	r0, r0, #1
 80023ce:	3618      	adds	r6, #24
 80023d0:	42b5      	cmp	r5, r6
 80023d2:	bf08      	it	eq
 80023d4:	f040 0001 	orreq.w	r0, r0, #1
 80023d8:	3618      	adds	r6, #24
 80023da:	42b5      	cmp	r5, r6
 80023dc:	bf08      	it	eq
 80023de:	f040 0001 	orreq.w	r0, r0, #1
 80023e2:	3618      	adds	r6, #24
 80023e4:	42b5      	cmp	r5, r6
 80023e6:	bf08      	it	eq
 80023e8:	f040 0001 	orreq.w	r0, r0, #1
 80023ec:	f506 7656 	add.w	r6, r6, #856	; 0x358
 80023f0:	42b5      	cmp	r5, r6
 80023f2:	bf08      	it	eq
 80023f4:	f040 0001 	orreq.w	r0, r0, #1
 80023f8:	3618      	adds	r6, #24
 80023fa:	42b5      	cmp	r5, r6
 80023fc:	bf08      	it	eq
 80023fe:	f040 0001 	orreq.w	r0, r0, #1
 8002402:	3618      	adds	r6, #24
 8002404:	42b5      	cmp	r5, r6
 8002406:	bf08      	it	eq
 8002408:	f040 0001 	orreq.w	r0, r0, #1
 800240c:	3618      	adds	r6, #24
 800240e:	42b5      	cmp	r5, r6
 8002410:	bf08      	it	eq
 8002412:	f040 0001 	orreq.w	r0, r0, #1
 8002416:	3618      	adds	r6, #24
 8002418:	42b5      	cmp	r5, r6
 800241a:	bf08      	it	eq
 800241c:	f040 0001 	orreq.w	r0, r0, #1
 8002420:	3618      	adds	r6, #24
 8002422:	42b5      	cmp	r5, r6
 8002424:	bf08      	it	eq
 8002426:	f040 0001 	orreq.w	r0, r0, #1
 800242a:	3618      	adds	r6, #24
 800242c:	42b5      	cmp	r5, r6
 800242e:	bf08      	it	eq
 8002430:	f040 0001 	orreq.w	r0, r0, #1
 8002434:	b910      	cbnz	r0, 800243c <HAL_DMA_Start+0xdc>
 8002436:	4839      	ldr	r0, [pc, #228]	; (800251c <HAL_DMA_Start+0x1bc>)
 8002438:	4285      	cmp	r5, r0
 800243a:	d15b      	bne.n	80024f4 <HAL_DMA_Start+0x194>
 800243c:	6828      	ldr	r0, [r5, #0]
 800243e:	f020 0001 	bic.w	r0, r0, #1
 8002442:	6028      	str	r0, [r5, #0]
 8002444:	4620      	mov	r0, r4
 8002446:	f7ff fb09 	bl	8001a5c <DMA_SetConfig>
 800244a:	6822      	ldr	r2, [r4, #0]
 800244c:	4b31      	ldr	r3, [pc, #196]	; (8002514 <HAL_DMA_Start+0x1b4>)
 800244e:	4932      	ldr	r1, [pc, #200]	; (8002518 <HAL_DMA_Start+0x1b8>)
 8002450:	428a      	cmp	r2, r1
 8002452:	bf18      	it	ne
 8002454:	429a      	cmpne	r2, r3
 8002456:	bf0c      	ite	eq
 8002458:	2301      	moveq	r3, #1
 800245a:	2300      	movne	r3, #0
 800245c:	3118      	adds	r1, #24
 800245e:	428a      	cmp	r2, r1
 8002460:	bf08      	it	eq
 8002462:	f043 0301 	orreq.w	r3, r3, #1
 8002466:	3118      	adds	r1, #24
 8002468:	428a      	cmp	r2, r1
 800246a:	bf08      	it	eq
 800246c:	f043 0301 	orreq.w	r3, r3, #1
 8002470:	3118      	adds	r1, #24
 8002472:	428a      	cmp	r2, r1
 8002474:	bf08      	it	eq
 8002476:	f043 0301 	orreq.w	r3, r3, #1
 800247a:	3118      	adds	r1, #24
 800247c:	428a      	cmp	r2, r1
 800247e:	bf08      	it	eq
 8002480:	f043 0301 	orreq.w	r3, r3, #1
 8002484:	3118      	adds	r1, #24
 8002486:	428a      	cmp	r2, r1
 8002488:	bf08      	it	eq
 800248a:	f043 0301 	orreq.w	r3, r3, #1
 800248e:	3118      	adds	r1, #24
 8002490:	428a      	cmp	r2, r1
 8002492:	bf08      	it	eq
 8002494:	f043 0301 	orreq.w	r3, r3, #1
 8002498:	f501 7156 	add.w	r1, r1, #856	; 0x358
 800249c:	428a      	cmp	r2, r1
 800249e:	bf08      	it	eq
 80024a0:	f043 0301 	orreq.w	r3, r3, #1
 80024a4:	3118      	adds	r1, #24
 80024a6:	428a      	cmp	r2, r1
 80024a8:	bf08      	it	eq
 80024aa:	f043 0301 	orreq.w	r3, r3, #1
 80024ae:	3118      	adds	r1, #24
 80024b0:	428a      	cmp	r2, r1
 80024b2:	bf08      	it	eq
 80024b4:	f043 0301 	orreq.w	r3, r3, #1
 80024b8:	3118      	adds	r1, #24
 80024ba:	428a      	cmp	r2, r1
 80024bc:	bf08      	it	eq
 80024be:	f043 0301 	orreq.w	r3, r3, #1
 80024c2:	3118      	adds	r1, #24
 80024c4:	428a      	cmp	r2, r1
 80024c6:	bf08      	it	eq
 80024c8:	f043 0301 	orreq.w	r3, r3, #1
 80024cc:	3118      	adds	r1, #24
 80024ce:	428a      	cmp	r2, r1
 80024d0:	bf08      	it	eq
 80024d2:	f043 0301 	orreq.w	r3, r3, #1
 80024d6:	3118      	adds	r1, #24
 80024d8:	428a      	cmp	r2, r1
 80024da:	bf08      	it	eq
 80024dc:	f043 0301 	orreq.w	r3, r3, #1
 80024e0:	b913      	cbnz	r3, 80024e8 <HAL_DMA_Start+0x188>
 80024e2:	4b0e      	ldr	r3, [pc, #56]	; (800251c <HAL_DMA_Start+0x1bc>)
 80024e4:	429a      	cmp	r2, r3
 80024e6:	d10a      	bne.n	80024fe <HAL_DMA_Start+0x19e>
 80024e8:	6813      	ldr	r3, [r2, #0]
 80024ea:	f043 0301 	orr.w	r3, r3, #1
 80024ee:	6013      	str	r3, [r2, #0]
 80024f0:	2000      	movs	r0, #0
 80024f2:	e74e      	b.n	8002392 <HAL_DMA_Start+0x32>
 80024f4:	6828      	ldr	r0, [r5, #0]
 80024f6:	f020 0001 	bic.w	r0, r0, #1
 80024fa:	6028      	str	r0, [r5, #0]
 80024fc:	e7a2      	b.n	8002444 <HAL_DMA_Start+0xe4>
 80024fe:	6813      	ldr	r3, [r2, #0]
 8002500:	f043 0301 	orr.w	r3, r3, #1
 8002504:	6013      	str	r3, [r2, #0]
 8002506:	2000      	movs	r0, #0
 8002508:	e743      	b.n	8002392 <HAL_DMA_Start+0x32>
 800250a:	2001      	movs	r0, #1
 800250c:	4770      	bx	lr
 800250e:	2002      	movs	r0, #2
 8002510:	e73f      	b.n	8002392 <HAL_DMA_Start+0x32>
 8002512:	bf00      	nop
 8002514:	40020010 	.word	0x40020010
 8002518:	40020028 	.word	0x40020028
 800251c:	400204b8 	.word	0x400204b8

08002520 <HAL_DMA_Start_IT>:
 8002520:	2800      	cmp	r0, #0
 8002522:	f000 81d2 	beq.w	80028ca <HAL_DMA_Start_IT+0x3aa>
 8002526:	b570      	push	{r4, r5, r6, lr}
 8002528:	4604      	mov	r4, r0
 800252a:	f890 0034 	ldrb.w	r0, [r0, #52]	; 0x34
 800252e:	2801      	cmp	r0, #1
 8002530:	f000 81cd 	beq.w	80028ce <HAL_DMA_Start_IT+0x3ae>
 8002534:	2001      	movs	r0, #1
 8002536:	f884 0034 	strb.w	r0, [r4, #52]	; 0x34
 800253a:	f894 0035 	ldrb.w	r0, [r4, #53]	; 0x35
 800253e:	b2c0      	uxtb	r0, r0
 8002540:	2801      	cmp	r0, #1
 8002542:	d007      	beq.n	8002554 <HAL_DMA_Start_IT+0x34>
 8002544:	2300      	movs	r3, #0
 8002546:	f884 3034 	strb.w	r3, [r4, #52]	; 0x34
 800254a:	f44f 6300 	mov.w	r3, #2048	; 0x800
 800254e:	6563      	str	r3, [r4, #84]	; 0x54
 8002550:	2001      	movs	r0, #1
 8002552:	bd70      	pop	{r4, r5, r6, pc}
 8002554:	2002      	movs	r0, #2
 8002556:	f884 0035 	strb.w	r0, [r4, #53]	; 0x35
 800255a:	2000      	movs	r0, #0
 800255c:	6560      	str	r0, [r4, #84]	; 0x54
 800255e:	6825      	ldr	r5, [r4, #0]
 8002560:	4895      	ldr	r0, [pc, #596]	; (80027b8 <HAL_DMA_Start_IT+0x298>)
 8002562:	4e96      	ldr	r6, [pc, #600]	; (80027bc <HAL_DMA_Start_IT+0x29c>)
 8002564:	42b5      	cmp	r5, r6
 8002566:	bf18      	it	ne
 8002568:	4285      	cmpne	r5, r0
 800256a:	bf0c      	ite	eq
 800256c:	2001      	moveq	r0, #1
 800256e:	2000      	movne	r0, #0
 8002570:	3618      	adds	r6, #24
 8002572:	42b5      	cmp	r5, r6
 8002574:	bf08      	it	eq
 8002576:	f040 0001 	orreq.w	r0, r0, #1
 800257a:	3618      	adds	r6, #24
 800257c:	42b5      	cmp	r5, r6
 800257e:	bf08      	it	eq
 8002580:	f040 0001 	orreq.w	r0, r0, #1
 8002584:	3618      	adds	r6, #24
 8002586:	42b5      	cmp	r5, r6
 8002588:	bf08      	it	eq
 800258a:	f040 0001 	orreq.w	r0, r0, #1
 800258e:	3618      	adds	r6, #24
 8002590:	42b5      	cmp	r5, r6
 8002592:	bf08      	it	eq
 8002594:	f040 0001 	orreq.w	r0, r0, #1
 8002598:	3618      	adds	r6, #24
 800259a:	42b5      	cmp	r5, r6
 800259c:	bf08      	it	eq
 800259e:	f040 0001 	orreq.w	r0, r0, #1
 80025a2:	3618      	adds	r6, #24
 80025a4:	42b5      	cmp	r5, r6
 80025a6:	bf08      	it	eq
 80025a8:	f040 0001 	orreq.w	r0, r0, #1
 80025ac:	f506 7656 	add.w	r6, r6, #856	; 0x358
 80025b0:	42b5      	cmp	r5, r6
 80025b2:	bf08      	it	eq
 80025b4:	f040 0001 	orreq.w	r0, r0, #1
 80025b8:	3618      	adds	r6, #24
 80025ba:	42b5      	cmp	r5, r6
 80025bc:	bf08      	it	eq
 80025be:	f040 0001 	orreq.w	r0, r0, #1
 80025c2:	3618      	adds	r6, #24
 80025c4:	42b5      	cmp	r5, r6
 80025c6:	bf08      	it	eq
 80025c8:	f040 0001 	orreq.w	r0, r0, #1
 80025cc:	3618      	adds	r6, #24
 80025ce:	42b5      	cmp	r5, r6
 80025d0:	bf08      	it	eq
 80025d2:	f040 0001 	orreq.w	r0, r0, #1
 80025d6:	3618      	adds	r6, #24
 80025d8:	42b5      	cmp	r5, r6
 80025da:	bf08      	it	eq
 80025dc:	f040 0001 	orreq.w	r0, r0, #1
 80025e0:	3618      	adds	r6, #24
 80025e2:	42b5      	cmp	r5, r6
 80025e4:	bf08      	it	eq
 80025e6:	f040 0001 	orreq.w	r0, r0, #1
 80025ea:	3618      	adds	r6, #24
 80025ec:	42b5      	cmp	r5, r6
 80025ee:	bf08      	it	eq
 80025f0:	f040 0001 	orreq.w	r0, r0, #1
 80025f4:	b918      	cbnz	r0, 80025fe <HAL_DMA_Start_IT+0xde>
 80025f6:	4872      	ldr	r0, [pc, #456]	; (80027c0 <HAL_DMA_Start_IT+0x2a0>)
 80025f8:	4285      	cmp	r5, r0
 80025fa:	f040 814b 	bne.w	8002894 <HAL_DMA_Start_IT+0x374>
 80025fe:	6828      	ldr	r0, [r5, #0]
 8002600:	f020 0001 	bic.w	r0, r0, #1
 8002604:	6028      	str	r0, [r5, #0]
 8002606:	4620      	mov	r0, r4
 8002608:	f7ff fa28 	bl	8001a5c <DMA_SetConfig>
 800260c:	6822      	ldr	r2, [r4, #0]
 800260e:	4b6a      	ldr	r3, [pc, #424]	; (80027b8 <HAL_DMA_Start_IT+0x298>)
 8002610:	496a      	ldr	r1, [pc, #424]	; (80027bc <HAL_DMA_Start_IT+0x29c>)
 8002612:	428a      	cmp	r2, r1
 8002614:	bf18      	it	ne
 8002616:	429a      	cmpne	r2, r3
 8002618:	bf0c      	ite	eq
 800261a:	2301      	moveq	r3, #1
 800261c:	2300      	movne	r3, #0
 800261e:	3118      	adds	r1, #24
 8002620:	428a      	cmp	r2, r1
 8002622:	bf08      	it	eq
 8002624:	f043 0301 	orreq.w	r3, r3, #1
 8002628:	3118      	adds	r1, #24
 800262a:	428a      	cmp	r2, r1
 800262c:	bf08      	it	eq
 800262e:	f043 0301 	orreq.w	r3, r3, #1
 8002632:	3118      	adds	r1, #24
 8002634:	428a      	cmp	r2, r1
 8002636:	bf08      	it	eq
 8002638:	f043 0301 	orreq.w	r3, r3, #1
 800263c:	3118      	adds	r1, #24
 800263e:	428a      	cmp	r2, r1
 8002640:	bf08      	it	eq
 8002642:	f043 0301 	orreq.w	r3, r3, #1
 8002646:	3118      	adds	r1, #24
 8002648:	428a      	cmp	r2, r1
 800264a:	bf08      	it	eq
 800264c:	f043 0301 	orreq.w	r3, r3, #1
 8002650:	3118      	adds	r1, #24
 8002652:	428a      	cmp	r2, r1
 8002654:	bf08      	it	eq
 8002656:	f043 0301 	orreq.w	r3, r3, #1
 800265a:	f501 7156 	add.w	r1, r1, #856	; 0x358
 800265e:	428a      	cmp	r2, r1
 8002660:	bf08      	it	eq
 8002662:	f043 0301 	orreq.w	r3, r3, #1
 8002666:	3118      	adds	r1, #24
 8002668:	428a      	cmp	r2, r1
 800266a:	bf08      	it	eq
 800266c:	f043 0301 	orreq.w	r3, r3, #1
 8002670:	3118      	adds	r1, #24
 8002672:	428a      	cmp	r2, r1
 8002674:	bf08      	it	eq
 8002676:	f043 0301 	orreq.w	r3, r3, #1
 800267a:	3118      	adds	r1, #24
 800267c:	428a      	cmp	r2, r1
 800267e:	bf08      	it	eq
 8002680:	f043 0301 	orreq.w	r3, r3, #1
 8002684:	3118      	adds	r1, #24
 8002686:	428a      	cmp	r2, r1
 8002688:	bf08      	it	eq
 800268a:	f043 0301 	orreq.w	r3, r3, #1
 800268e:	3118      	adds	r1, #24
 8002690:	428a      	cmp	r2, r1
 8002692:	bf08      	it	eq
 8002694:	f043 0301 	orreq.w	r3, r3, #1
 8002698:	3118      	adds	r1, #24
 800269a:	428a      	cmp	r2, r1
 800269c:	bf08      	it	eq
 800269e:	f043 0301 	orreq.w	r3, r3, #1
 80026a2:	b91b      	cbnz	r3, 80026ac <HAL_DMA_Start_IT+0x18c>
 80026a4:	4b46      	ldr	r3, [pc, #280]	; (80027c0 <HAL_DMA_Start_IT+0x2a0>)
 80026a6:	429a      	cmp	r2, r3
 80026a8:	f040 80f9 	bne.w	800289e <HAL_DMA_Start_IT+0x37e>
 80026ac:	6813      	ldr	r3, [r2, #0]
 80026ae:	f023 031e 	bic.w	r3, r3, #30
 80026b2:	f043 0316 	orr.w	r3, r3, #22
 80026b6:	6013      	str	r3, [r2, #0]
 80026b8:	6c23      	ldr	r3, [r4, #64]	; 0x40
 80026ba:	b123      	cbz	r3, 80026c6 <HAL_DMA_Start_IT+0x1a6>
 80026bc:	6822      	ldr	r2, [r4, #0]
 80026be:	6813      	ldr	r3, [r2, #0]
 80026c0:	f043 0308 	orr.w	r3, r3, #8
 80026c4:	6013      	str	r3, [r2, #0]
 80026c6:	6822      	ldr	r2, [r4, #0]
 80026c8:	4b3b      	ldr	r3, [pc, #236]	; (80027b8 <HAL_DMA_Start_IT+0x298>)
 80026ca:	493c      	ldr	r1, [pc, #240]	; (80027bc <HAL_DMA_Start_IT+0x29c>)
 80026cc:	428a      	cmp	r2, r1
 80026ce:	bf18      	it	ne
 80026d0:	429a      	cmpne	r2, r3
 80026d2:	bf0c      	ite	eq
 80026d4:	2301      	moveq	r3, #1
 80026d6:	2300      	movne	r3, #0
 80026d8:	3118      	adds	r1, #24
 80026da:	428a      	cmp	r2, r1
 80026dc:	bf08      	it	eq
 80026de:	f043 0301 	orreq.w	r3, r3, #1
 80026e2:	3118      	adds	r1, #24
 80026e4:	428a      	cmp	r2, r1
 80026e6:	bf08      	it	eq
 80026e8:	f043 0301 	orreq.w	r3, r3, #1
 80026ec:	3118      	adds	r1, #24
 80026ee:	428a      	cmp	r2, r1
 80026f0:	bf08      	it	eq
 80026f2:	f043 0301 	orreq.w	r3, r3, #1
 80026f6:	3118      	adds	r1, #24
 80026f8:	428a      	cmp	r2, r1
 80026fa:	bf08      	it	eq
 80026fc:	f043 0301 	orreq.w	r3, r3, #1
 8002700:	3118      	adds	r1, #24
 8002702:	428a      	cmp	r2, r1
 8002704:	bf08      	it	eq
 8002706:	f043 0301 	orreq.w	r3, r3, #1
 800270a:	3118      	adds	r1, #24
 800270c:	428a      	cmp	r2, r1
 800270e:	bf08      	it	eq
 8002710:	f043 0301 	orreq.w	r3, r3, #1
 8002714:	f501 7156 	add.w	r1, r1, #856	; 0x358
 8002718:	428a      	cmp	r2, r1
 800271a:	bf08      	it	eq
 800271c:	f043 0301 	orreq.w	r3, r3, #1
 8002720:	3118      	adds	r1, #24
 8002722:	428a      	cmp	r2, r1
 8002724:	bf08      	it	eq
 8002726:	f043 0301 	orreq.w	r3, r3, #1
 800272a:	3118      	adds	r1, #24
 800272c:	428a      	cmp	r2, r1
 800272e:	bf08      	it	eq
 8002730:	f043 0301 	orreq.w	r3, r3, #1
 8002734:	3118      	adds	r1, #24
 8002736:	428a      	cmp	r2, r1
 8002738:	bf08      	it	eq
 800273a:	f043 0301 	orreq.w	r3, r3, #1
 800273e:	3118      	adds	r1, #24
 8002740:	428a      	cmp	r2, r1
 8002742:	bf08      	it	eq
 8002744:	f043 0301 	orreq.w	r3, r3, #1
 8002748:	3118      	adds	r1, #24
 800274a:	428a      	cmp	r2, r1
 800274c:	bf08      	it	eq
 800274e:	f043 0301 	orreq.w	r3, r3, #1
 8002752:	3118      	adds	r1, #24
 8002754:	428a      	cmp	r2, r1
 8002756:	bf08      	it	eq
 8002758:	f043 0301 	orreq.w	r3, r3, #1
 800275c:	3118      	adds	r1, #24
 800275e:	428a      	cmp	r2, r1
 8002760:	bf08      	it	eq
 8002762:	f043 0301 	orreq.w	r3, r3, #1
 8002766:	4917      	ldr	r1, [pc, #92]	; (80027c4 <HAL_DMA_Start_IT+0x2a4>)
 8002768:	428a      	cmp	r2, r1
 800276a:	bf08      	it	eq
 800276c:	f043 0301 	orreq.w	r3, r3, #1
 8002770:	3114      	adds	r1, #20
 8002772:	428a      	cmp	r2, r1
 8002774:	bf08      	it	eq
 8002776:	f043 0301 	orreq.w	r3, r3, #1
 800277a:	3114      	adds	r1, #20
 800277c:	428a      	cmp	r2, r1
 800277e:	bf08      	it	eq
 8002780:	f043 0301 	orreq.w	r3, r3, #1
 8002784:	3114      	adds	r1, #20
 8002786:	428a      	cmp	r2, r1
 8002788:	bf08      	it	eq
 800278a:	f043 0301 	orreq.w	r3, r3, #1
 800278e:	3114      	adds	r1, #20
 8002790:	428a      	cmp	r2, r1
 8002792:	bf08      	it	eq
 8002794:	f043 0301 	orreq.w	r3, r3, #1
 8002798:	3114      	adds	r1, #20
 800279a:	428a      	cmp	r2, r1
 800279c:	bf08      	it	eq
 800279e:	f043 0301 	orreq.w	r3, r3, #1
 80027a2:	3114      	adds	r1, #20
 80027a4:	428a      	cmp	r2, r1
 80027a6:	bf08      	it	eq
 80027a8:	f043 0301 	orreq.w	r3, r3, #1
 80027ac:	b973      	cbnz	r3, 80027cc <HAL_DMA_Start_IT+0x2ac>
 80027ae:	4b06      	ldr	r3, [pc, #24]	; (80027c8 <HAL_DMA_Start_IT+0x2a8>)
 80027b0:	429a      	cmp	r2, r3
 80027b2:	d11a      	bne.n	80027ea <HAL_DMA_Start_IT+0x2ca>
 80027b4:	e00a      	b.n	80027cc <HAL_DMA_Start_IT+0x2ac>
 80027b6:	bf00      	nop
 80027b8:	40020010 	.word	0x40020010
 80027bc:	40020028 	.word	0x40020028
 80027c0:	400204b8 	.word	0x400204b8
 80027c4:	58025408 	.word	0x58025408
 80027c8:	58025494 	.word	0x58025494
 80027cc:	6e23      	ldr	r3, [r4, #96]	; 0x60
 80027ce:	681a      	ldr	r2, [r3, #0]
 80027d0:	f412 3f80 	tst.w	r2, #65536	; 0x10000
 80027d4:	d003      	beq.n	80027de <HAL_DMA_Start_IT+0x2be>
 80027d6:	681a      	ldr	r2, [r3, #0]
 80027d8:	f442 7280 	orr.w	r2, r2, #256	; 0x100
 80027dc:	601a      	str	r2, [r3, #0]
 80027de:	6ee3      	ldr	r3, [r4, #108]	; 0x6c
 80027e0:	b11b      	cbz	r3, 80027ea <HAL_DMA_Start_IT+0x2ca>
 80027e2:	681a      	ldr	r2, [r3, #0]
 80027e4:	f442 7280 	orr.w	r2, r2, #256	; 0x100
 80027e8:	601a      	str	r2, [r3, #0]
 80027ea:	6822      	ldr	r2, [r4, #0]
 80027ec:	4b39      	ldr	r3, [pc, #228]	; (80028d4 <HAL_DMA_Start_IT+0x3b4>)
 80027ee:	493a      	ldr	r1, [pc, #232]	; (80028d8 <HAL_DMA_Start_IT+0x3b8>)
 80027f0:	428a      	cmp	r2, r1
 80027f2:	bf18      	it	ne
 80027f4:	429a      	cmpne	r2, r3
 80027f6:	bf0c      	ite	eq
 80027f8:	2301      	moveq	r3, #1
 80027fa:	2300      	movne	r3, #0
 80027fc:	3118      	adds	r1, #24
 80027fe:	428a      	cmp	r2, r1
 8002800:	bf08      	it	eq
 8002802:	f043 0301 	orreq.w	r3, r3, #1
 8002806:	3118      	adds	r1, #24
 8002808:	428a      	cmp	r2, r1
 800280a:	bf08      	it	eq
 800280c:	f043 0301 	orreq.w	r3, r3, #1
 8002810:	3118      	adds	r1, #24
 8002812:	428a      	cmp	r2, r1
 8002814:	bf08      	it	eq
 8002816:	f043 0301 	orreq.w	r3, r3, #1
 800281a:	3118      	adds	r1, #24
 800281c:	428a      	cmp	r2, r1
 800281e:	bf08      	it	eq
 8002820:	f043 0301 	orreq.w	r3, r3, #1
 8002824:	3118      	adds	r1, #24
 8002826:	428a      	cmp	r2, r1
 8002828:	bf08      	it	eq
 800282a:	f043 0301 	orreq.w	r3, r3, #1
 800282e:	3118      	adds	r1, #24
 8002830:	428a      	cmp	r2, r1
 8002832:	bf08      	it	eq
 8002834:	f043 0301 	orreq.w	r3, r3, #1
 8002838:	f501 7156 	add.w	r1, r1, #856	; 0x358
 800283c:	428a      	cmp	r2, r1
 800283e:	bf08      	it	eq
 8002840:	f043 0301 	orreq.w	r3, r3, #1
 8002844:	3118      	adds	r1, #24
 8002846:	428a      	cmp	r2, r1
 8002848:	bf08      	it	eq
 800284a:	f043 0301 	orreq.w	r3, r3, #1
 800284e:	3118      	adds	r1, #24
 8002850:	428a      	cmp	r2, r1
 8002852:	bf08      	it	eq
 8002854:	f043 0301 	orreq.w	r3, r3, #1
 8002858:	3118      	adds	r1, #24
 800285a:	428a      	cmp	r2, r1
 800285c:	bf08      	it	eq
 800285e:	f043 0301 	orreq.w	r3, r3, #1
 8002862:	3118      	adds	r1, #24
 8002864:	428a      	cmp	r2, r1
 8002866:	bf08      	it	eq
 8002868:	f043 0301 	orreq.w	r3, r3, #1
 800286c:	3118      	adds	r1, #24
 800286e:	428a      	cmp	r2, r1
 8002870:	bf08      	it	eq
 8002872:	f043 0301 	orreq.w	r3, r3, #1
 8002876:	3118      	adds	r1, #24
 8002878:	428a      	cmp	r2, r1
 800287a:	bf08      	it	eq
 800287c:	f043 0301 	orreq.w	r3, r3, #1
 8002880:	b913      	cbnz	r3, 8002888 <HAL_DMA_Start_IT+0x368>
 8002882:	4b16      	ldr	r3, [pc, #88]	; (80028dc <HAL_DMA_Start_IT+0x3bc>)
 8002884:	429a      	cmp	r2, r3
 8002886:	d11a      	bne.n	80028be <HAL_DMA_Start_IT+0x39e>
 8002888:	6813      	ldr	r3, [r2, #0]
 800288a:	f043 0301 	orr.w	r3, r3, #1
 800288e:	6013      	str	r3, [r2, #0]
 8002890:	2000      	movs	r0, #0
 8002892:	e65e      	b.n	8002552 <HAL_DMA_Start_IT+0x32>
 8002894:	6828      	ldr	r0, [r5, #0]
 8002896:	f020 0001 	bic.w	r0, r0, #1
 800289a:	6028      	str	r0, [r5, #0]
 800289c:	e6b3      	b.n	8002606 <HAL_DMA_Start_IT+0xe6>
 800289e:	6813      	ldr	r3, [r2, #0]
 80028a0:	f023 030e 	bic.w	r3, r3, #14
 80028a4:	f043 030a 	orr.w	r3, r3, #10
 80028a8:	6013      	str	r3, [r2, #0]
 80028aa:	6c23      	ldr	r3, [r4, #64]	; 0x40
 80028ac:	2b00      	cmp	r3, #0
 80028ae:	f43f af0a 	beq.w	80026c6 <HAL_DMA_Start_IT+0x1a6>
 80028b2:	6822      	ldr	r2, [r4, #0]
 80028b4:	6813      	ldr	r3, [r2, #0]
 80028b6:	f043 0304 	orr.w	r3, r3, #4
 80028ba:	6013      	str	r3, [r2, #0]
 80028bc:	e703      	b.n	80026c6 <HAL_DMA_Start_IT+0x1a6>
 80028be:	6813      	ldr	r3, [r2, #0]
 80028c0:	f043 0301 	orr.w	r3, r3, #1
 80028c4:	6013      	str	r3, [r2, #0]
 80028c6:	2000      	movs	r0, #0
 80028c8:	e643      	b.n	8002552 <HAL_DMA_Start_IT+0x32>
 80028ca:	2001      	movs	r0, #1
 80028cc:	4770      	bx	lr
 80028ce:	2002      	movs	r0, #2
 80028d0:	e63f      	b.n	8002552 <HAL_DMA_Start_IT+0x32>
 80028d2:	bf00      	nop
 80028d4:	40020010 	.word	0x40020010
 80028d8:	40020028 	.word	0x40020028
 80028dc:	400204b8 	.word	0x400204b8

080028e0 <HAL_DMA_Abort>:
 80028e0:	b570      	push	{r4, r5, r6, lr}
 80028e2:	4604      	mov	r4, r0
 80028e4:	f7ff f810 	bl	8001908 <HAL_GetTick>
 80028e8:	2c00      	cmp	r4, #0
 80028ea:	f000 8247 	beq.w	8002d7c <HAL_DMA_Abort+0x49c>
 80028ee:	4605      	mov	r5, r0
 80028f0:	f894 3035 	ldrb.w	r3, [r4, #53]	; 0x35
 80028f4:	b2db      	uxtb	r3, r3
 80028f6:	2b02      	cmp	r3, #2
 80028f8:	d006      	beq.n	8002908 <HAL_DMA_Abort+0x28>
 80028fa:	2380      	movs	r3, #128	; 0x80
 80028fc:	6563      	str	r3, [r4, #84]	; 0x54
 80028fe:	2300      	movs	r3, #0
 8002900:	f884 3034 	strb.w	r3, [r4, #52]	; 0x34
 8002904:	2001      	movs	r0, #1
 8002906:	bd70      	pop	{r4, r5, r6, pc}
 8002908:	6822      	ldr	r2, [r4, #0]
 800290a:	4b9d      	ldr	r3, [pc, #628]	; (8002b80 <HAL_DMA_Abort+0x2a0>)
 800290c:	499d      	ldr	r1, [pc, #628]	; (8002b84 <HAL_DMA_Abort+0x2a4>)
 800290e:	428a      	cmp	r2, r1
 8002910:	bf18      	it	ne
 8002912:	429a      	cmpne	r2, r3
 8002914:	bf0c      	ite	eq
 8002916:	2301      	moveq	r3, #1
 8002918:	2300      	movne	r3, #0
 800291a:	3118      	adds	r1, #24
 800291c:	428a      	cmp	r2, r1
 800291e:	bf08      	it	eq
 8002920:	f043 0301 	orreq.w	r3, r3, #1
 8002924:	3118      	adds	r1, #24
 8002926:	428a      	cmp	r2, r1
 8002928:	bf08      	it	eq
 800292a:	f043 0301 	orreq.w	r3, r3, #1
 800292e:	3118      	adds	r1, #24
 8002930:	428a      	cmp	r2, r1
 8002932:	bf08      	it	eq
 8002934:	f043 0301 	orreq.w	r3, r3, #1
 8002938:	3118      	adds	r1, #24
 800293a:	428a      	cmp	r2, r1
 800293c:	bf08      	it	eq
 800293e:	f043 0301 	orreq.w	r3, r3, #1
 8002942:	3118      	adds	r1, #24
 8002944:	428a      	cmp	r2, r1
 8002946:	bf08      	it	eq
 8002948:	f043 0301 	orreq.w	r3, r3, #1
 800294c:	3118      	adds	r1, #24
 800294e:	428a      	cmp	r2, r1
 8002950:	bf08      	it	eq
 8002952:	f043 0301 	orreq.w	r3, r3, #1
 8002956:	f501 7156 	add.w	r1, r1, #856	; 0x358
 800295a:	428a      	cmp	r2, r1
 800295c:	bf08      	it	eq
 800295e:	f043 0301 	orreq.w	r3, r3, #1
 8002962:	3118      	adds	r1, #24
 8002964:	428a      	cmp	r2, r1
 8002966:	bf08      	it	eq
 8002968:	f043 0301 	orreq.w	r3, r3, #1
 800296c:	3118      	adds	r1, #24
 800296e:	428a      	cmp	r2, r1
 8002970:	bf08      	it	eq
 8002972:	f043 0301 	orreq.w	r3, r3, #1
 8002976:	3118      	adds	r1, #24
 8002978:	428a      	cmp	r2, r1
 800297a:	bf08      	it	eq
 800297c:	f043 0301 	orreq.w	r3, r3, #1
 8002980:	3118      	adds	r1, #24
 8002982:	428a      	cmp	r2, r1
 8002984:	bf08      	it	eq
 8002986:	f043 0301 	orreq.w	r3, r3, #1
 800298a:	3118      	adds	r1, #24
 800298c:	428a      	cmp	r2, r1
 800298e:	bf08      	it	eq
 8002990:	f043 0301 	orreq.w	r3, r3, #1
 8002994:	3118      	adds	r1, #24
 8002996:	428a      	cmp	r2, r1
 8002998:	bf08      	it	eq
 800299a:	f043 0301 	orreq.w	r3, r3, #1
 800299e:	b91b      	cbnz	r3, 80029a8 <HAL_DMA_Abort+0xc8>
 80029a0:	4b79      	ldr	r3, [pc, #484]	; (8002b88 <HAL_DMA_Abort+0x2a8>)
 80029a2:	429a      	cmp	r2, r3
 80029a4:	f040 80f6 	bne.w	8002b94 <HAL_DMA_Abort+0x2b4>
 80029a8:	6813      	ldr	r3, [r2, #0]
 80029aa:	f023 031e 	bic.w	r3, r3, #30
 80029ae:	6013      	str	r3, [r2, #0]
 80029b0:	6822      	ldr	r2, [r4, #0]
 80029b2:	6953      	ldr	r3, [r2, #20]
 80029b4:	f023 0380 	bic.w	r3, r3, #128	; 0x80
 80029b8:	6153      	str	r3, [r2, #20]
 80029ba:	6826      	ldr	r6, [r4, #0]
 80029bc:	6822      	ldr	r2, [r4, #0]
 80029be:	4b70      	ldr	r3, [pc, #448]	; (8002b80 <HAL_DMA_Abort+0x2a0>)
 80029c0:	4970      	ldr	r1, [pc, #448]	; (8002b84 <HAL_DMA_Abort+0x2a4>)
 80029c2:	428a      	cmp	r2, r1
 80029c4:	bf18      	it	ne
 80029c6:	429a      	cmpne	r2, r3
 80029c8:	bf0c      	ite	eq
 80029ca:	2301      	moveq	r3, #1
 80029cc:	2300      	movne	r3, #0
 80029ce:	3118      	adds	r1, #24
 80029d0:	428a      	cmp	r2, r1
 80029d2:	bf08      	it	eq
 80029d4:	f043 0301 	orreq.w	r3, r3, #1
 80029d8:	3118      	adds	r1, #24
 80029da:	428a      	cmp	r2, r1
 80029dc:	bf08      	it	eq
 80029de:	f043 0301 	orreq.w	r3, r3, #1
 80029e2:	3118      	adds	r1, #24
 80029e4:	428a      	cmp	r2, r1
 80029e6:	bf08      	it	eq
 80029e8:	f043 0301 	orreq.w	r3, r3, #1
 80029ec:	3118      	adds	r1, #24
 80029ee:	428a      	cmp	r2, r1
 80029f0:	bf08      	it	eq
 80029f2:	f043 0301 	orreq.w	r3, r3, #1
 80029f6:	3118      	adds	r1, #24
 80029f8:	428a      	cmp	r2, r1
 80029fa:	bf08      	it	eq
 80029fc:	f043 0301 	orreq.w	r3, r3, #1
 8002a00:	3118      	adds	r1, #24
 8002a02:	428a      	cmp	r2, r1
 8002a04:	bf08      	it	eq
 8002a06:	f043 0301 	orreq.w	r3, r3, #1
 8002a0a:	f501 7156 	add.w	r1, r1, #856	; 0x358
 8002a0e:	428a      	cmp	r2, r1
 8002a10:	bf08      	it	eq
 8002a12:	f043 0301 	orreq.w	r3, r3, #1
 8002a16:	3118      	adds	r1, #24
 8002a18:	428a      	cmp	r2, r1
 8002a1a:	bf08      	it	eq
 8002a1c:	f043 0301 	orreq.w	r3, r3, #1
 8002a20:	3118      	adds	r1, #24
 8002a22:	428a      	cmp	r2, r1
 8002a24:	bf08      	it	eq
 8002a26:	f043 0301 	orreq.w	r3, r3, #1
 8002a2a:	3118      	adds	r1, #24
 8002a2c:	428a      	cmp	r2, r1
 8002a2e:	bf08      	it	eq
 8002a30:	f043 0301 	orreq.w	r3, r3, #1
 8002a34:	3118      	adds	r1, #24
 8002a36:	428a      	cmp	r2, r1
 8002a38:	bf08      	it	eq
 8002a3a:	f043 0301 	orreq.w	r3, r3, #1
 8002a3e:	3118      	adds	r1, #24
 8002a40:	428a      	cmp	r2, r1
 8002a42:	bf08      	it	eq
 8002a44:	f043 0301 	orreq.w	r3, r3, #1
 8002a48:	3118      	adds	r1, #24
 8002a4a:	428a      	cmp	r2, r1
 8002a4c:	bf08      	it	eq
 8002a4e:	f043 0301 	orreq.w	r3, r3, #1
 8002a52:	3118      	adds	r1, #24
 8002a54:	428a      	cmp	r2, r1
 8002a56:	bf08      	it	eq
 8002a58:	f043 0301 	orreq.w	r3, r3, #1
 8002a5c:	494b      	ldr	r1, [pc, #300]	; (8002b8c <HAL_DMA_Abort+0x2ac>)
 8002a5e:	428a      	cmp	r2, r1
 8002a60:	bf08      	it	eq
 8002a62:	f043 0301 	orreq.w	r3, r3, #1
 8002a66:	3114      	adds	r1, #20
 8002a68:	428a      	cmp	r2, r1
 8002a6a:	bf08      	it	eq
 8002a6c:	f043 0301 	orreq.w	r3, r3, #1
 8002a70:	3114      	adds	r1, #20
 8002a72:	428a      	cmp	r2, r1
 8002a74:	bf08      	it	eq
 8002a76:	f043 0301 	orreq.w	r3, r3, #1
 8002a7a:	3114      	adds	r1, #20
 8002a7c:	428a      	cmp	r2, r1
 8002a7e:	bf08      	it	eq
 8002a80:	f043 0301 	orreq.w	r3, r3, #1
 8002a84:	3114      	adds	r1, #20
 8002a86:	428a      	cmp	r2, r1
 8002a88:	bf08      	it	eq
 8002a8a:	f043 0301 	orreq.w	r3, r3, #1
 8002a8e:	3114      	adds	r1, #20
 8002a90:	428a      	cmp	r2, r1
 8002a92:	bf08      	it	eq
 8002a94:	f043 0301 	orreq.w	r3, r3, #1
 8002a98:	3114      	adds	r1, #20
 8002a9a:	428a      	cmp	r2, r1
 8002a9c:	bf08      	it	eq
 8002a9e:	f043 0301 	orreq.w	r3, r3, #1
 8002aa2:	b913      	cbnz	r3, 8002aaa <HAL_DMA_Abort+0x1ca>
 8002aa4:	4b3a      	ldr	r3, [pc, #232]	; (8002b90 <HAL_DMA_Abort+0x2b0>)
 8002aa6:	429a      	cmp	r2, r3
 8002aa8:	d104      	bne.n	8002ab4 <HAL_DMA_Abort+0x1d4>
 8002aaa:	6e22      	ldr	r2, [r4, #96]	; 0x60
 8002aac:	6813      	ldr	r3, [r2, #0]
 8002aae:	f423 7380 	bic.w	r3, r3, #256	; 0x100
 8002ab2:	6013      	str	r3, [r2, #0]
 8002ab4:	6822      	ldr	r2, [r4, #0]
 8002ab6:	4b32      	ldr	r3, [pc, #200]	; (8002b80 <HAL_DMA_Abort+0x2a0>)
 8002ab8:	4932      	ldr	r1, [pc, #200]	; (8002b84 <HAL_DMA_Abort+0x2a4>)
 8002aba:	428a      	cmp	r2, r1
 8002abc:	bf18      	it	ne
 8002abe:	429a      	cmpne	r2, r3
 8002ac0:	bf0c      	ite	eq
 8002ac2:	2301      	moveq	r3, #1
 8002ac4:	2300      	movne	r3, #0
 8002ac6:	3118      	adds	r1, #24
 8002ac8:	428a      	cmp	r2, r1
 8002aca:	bf08      	it	eq
 8002acc:	f043 0301 	orreq.w	r3, r3, #1
 8002ad0:	3118      	adds	r1, #24
 8002ad2:	428a      	cmp	r2, r1
 8002ad4:	bf08      	it	eq
 8002ad6:	f043 0301 	orreq.w	r3, r3, #1
 8002ada:	3118      	adds	r1, #24
 8002adc:	428a      	cmp	r2, r1
 8002ade:	bf08      	it	eq
 8002ae0:	f043 0301 	orreq.w	r3, r3, #1
 8002ae4:	3118      	adds	r1, #24
 8002ae6:	428a      	cmp	r2, r1
 8002ae8:	bf08      	it	eq
 8002aea:	f043 0301 	orreq.w	r3, r3, #1
 8002aee:	3118      	adds	r1, #24
 8002af0:	428a      	cmp	r2, r1
 8002af2:	bf08      	it	eq
 8002af4:	f043 0301 	orreq.w	r3, r3, #1
 8002af8:	3118      	adds	r1, #24
 8002afa:	428a      	cmp	r2, r1
 8002afc:	bf08      	it	eq
 8002afe:	f043 0301 	orreq.w	r3, r3, #1
 8002b02:	f501 7156 	add.w	r1, r1, #856	; 0x358
 8002b06:	428a      	cmp	r2, r1
 8002b08:	bf08      	it	eq
 8002b0a:	f043 0301 	orreq.w	r3, r3, #1
 8002b0e:	3118      	adds	r1, #24
 8002b10:	428a      	cmp	r2, r1
 8002b12:	bf08      	it	eq
 8002b14:	f043 0301 	orreq.w	r3, r3, #1
 8002b18:	3118      	adds	r1, #24
 8002b1a:	428a      	cmp	r2, r1
 8002b1c:	bf08      	it	eq
 8002b1e:	f043 0301 	orreq.w	r3, r3, #1
 8002b22:	3118      	adds	r1, #24
 8002b24:	428a      	cmp	r2, r1
 8002b26:	bf08      	it	eq
 8002b28:	f043 0301 	orreq.w	r3, r3, #1
 8002b2c:	3118      	adds	r1, #24
 8002b2e:	428a      	cmp	r2, r1
 8002b30:	bf08      	it	eq
 8002b32:	f043 0301 	orreq.w	r3, r3, #1
 8002b36:	3118      	adds	r1, #24
 8002b38:	428a      	cmp	r2, r1
 8002b3a:	bf08      	it	eq
 8002b3c:	f043 0301 	orreq.w	r3, r3, #1
 8002b40:	3118      	adds	r1, #24
 8002b42:	428a      	cmp	r2, r1
 8002b44:	bf08      	it	eq
 8002b46:	f043 0301 	orreq.w	r3, r3, #1
 8002b4a:	b913      	cbnz	r3, 8002b52 <HAL_DMA_Abort+0x272>
 8002b4c:	4b0e      	ldr	r3, [pc, #56]	; (8002b88 <HAL_DMA_Abort+0x2a8>)
 8002b4e:	429a      	cmp	r2, r3
 8002b50:	d126      	bne.n	8002ba0 <HAL_DMA_Abort+0x2c0>
 8002b52:	6813      	ldr	r3, [r2, #0]
 8002b54:	f023 0301 	bic.w	r3, r3, #1
 8002b58:	6013      	str	r3, [r2, #0]
 8002b5a:	6833      	ldr	r3, [r6, #0]
 8002b5c:	f013 0f01 	tst.w	r3, #1
 8002b60:	d023      	beq.n	8002baa <HAL_DMA_Abort+0x2ca>
 8002b62:	f7fe fed1 	bl	8001908 <HAL_GetTick>
 8002b66:	1b40      	subs	r0, r0, r5
 8002b68:	2805      	cmp	r0, #5
 8002b6a:	d9f6      	bls.n	8002b5a <HAL_DMA_Abort+0x27a>
 8002b6c:	2320      	movs	r3, #32
 8002b6e:	6563      	str	r3, [r4, #84]	; 0x54
 8002b70:	2300      	movs	r3, #0
 8002b72:	f884 3034 	strb.w	r3, [r4, #52]	; 0x34
 8002b76:	2303      	movs	r3, #3
 8002b78:	f884 3035 	strb.w	r3, [r4, #53]	; 0x35
 8002b7c:	2001      	movs	r0, #1
 8002b7e:	e6c2      	b.n	8002906 <HAL_DMA_Abort+0x26>
 8002b80:	40020010 	.word	0x40020010
 8002b84:	40020028 	.word	0x40020028
 8002b88:	400204b8 	.word	0x400204b8
 8002b8c:	58025408 	.word	0x58025408
 8002b90:	58025494 	.word	0x58025494
 8002b94:	6813      	ldr	r3, [r2, #0]
 8002b96:	f023 030e 	bic.w	r3, r3, #14
 8002b9a:	6013      	str	r3, [r2, #0]
 8002b9c:	6826      	ldr	r6, [r4, #0]
 8002b9e:	e70d      	b.n	80029bc <HAL_DMA_Abort+0xdc>
 8002ba0:	6813      	ldr	r3, [r2, #0]
 8002ba2:	f023 0301 	bic.w	r3, r3, #1
 8002ba6:	6013      	str	r3, [r2, #0]
 8002ba8:	e7d7      	b.n	8002b5a <HAL_DMA_Abort+0x27a>
 8002baa:	6822      	ldr	r2, [r4, #0]
 8002bac:	4b74      	ldr	r3, [pc, #464]	; (8002d80 <HAL_DMA_Abort+0x4a0>)
 8002bae:	4975      	ldr	r1, [pc, #468]	; (8002d84 <HAL_DMA_Abort+0x4a4>)
 8002bb0:	428a      	cmp	r2, r1
 8002bb2:	bf18      	it	ne
 8002bb4:	429a      	cmpne	r2, r3
 8002bb6:	bf0c      	ite	eq
 8002bb8:	2301      	moveq	r3, #1
 8002bba:	2300      	movne	r3, #0
 8002bbc:	3118      	adds	r1, #24
 8002bbe:	428a      	cmp	r2, r1
 8002bc0:	bf08      	it	eq
 8002bc2:	f043 0301 	orreq.w	r3, r3, #1
 8002bc6:	3118      	adds	r1, #24
 8002bc8:	428a      	cmp	r2, r1
 8002bca:	bf08      	it	eq
 8002bcc:	f043 0301 	orreq.w	r3, r3, #1
 8002bd0:	3118      	adds	r1, #24
 8002bd2:	428a      	cmp	r2, r1
 8002bd4:	bf08      	it	eq
 8002bd6:	f043 0301 	orreq.w	r3, r3, #1
 8002bda:	3118      	adds	r1, #24
 8002bdc:	428a      	cmp	r2, r1
 8002bde:	bf08      	it	eq
 8002be0:	f043 0301 	orreq.w	r3, r3, #1
 8002be4:	3118      	adds	r1, #24
 8002be6:	428a      	cmp	r2, r1
 8002be8:	bf08      	it	eq
 8002bea:	f043 0301 	orreq.w	r3, r3, #1
 8002bee:	3118      	adds	r1, #24
 8002bf0:	428a      	cmp	r2, r1
 8002bf2:	bf08      	it	eq
 8002bf4:	f043 0301 	orreq.w	r3, r3, #1
 8002bf8:	f501 7156 	add.w	r1, r1, #856	; 0x358
 8002bfc:	428a      	cmp	r2, r1
 8002bfe:	bf08      	it	eq
 8002c00:	f043 0301 	orreq.w	r3, r3, #1
 8002c04:	3118      	adds	r1, #24
 8002c06:	428a      	cmp	r2, r1
 8002c08:	bf08      	it	eq
 8002c0a:	f043 0301 	orreq.w	r3, r3, #1
 8002c0e:	3118      	adds	r1, #24
 8002c10:	428a      	cmp	r2, r1
 8002c12:	bf08      	it	eq
 8002c14:	f043 0301 	orreq.w	r3, r3, #1
 8002c18:	3118      	adds	r1, #24
 8002c1a:	428a      	cmp	r2, r1
 8002c1c:	bf08      	it	eq
 8002c1e:	f043 0301 	orreq.w	r3, r3, #1
 8002c22:	3118      	adds	r1, #24
 8002c24:	428a      	cmp	r2, r1
 8002c26:	bf08      	it	eq
 8002c28:	f043 0301 	orreq.w	r3, r3, #1
 8002c2c:	3118      	adds	r1, #24
 8002c2e:	428a      	cmp	r2, r1
 8002c30:	bf08      	it	eq
 8002c32:	f043 0301 	orreq.w	r3, r3, #1
 8002c36:	3118      	adds	r1, #24
 8002c38:	428a      	cmp	r2, r1
 8002c3a:	bf08      	it	eq
 8002c3c:	f043 0301 	orreq.w	r3, r3, #1
 8002c40:	b91b      	cbnz	r3, 8002c4a <HAL_DMA_Abort+0x36a>
 8002c42:	4b51      	ldr	r3, [pc, #324]	; (8002d88 <HAL_DMA_Abort+0x4a8>)
 8002c44:	429a      	cmp	r2, r3
 8002c46:	f040 8091 	bne.w	8002d6c <HAL_DMA_Abort+0x48c>
 8002c4a:	6da1      	ldr	r1, [r4, #88]	; 0x58
 8002c4c:	6de3      	ldr	r3, [r4, #92]	; 0x5c
 8002c4e:	f003 021f 	and.w	r2, r3, #31
 8002c52:	233f      	movs	r3, #63	; 0x3f
 8002c54:	4093      	lsls	r3, r2
 8002c56:	608b      	str	r3, [r1, #8]
 8002c58:	6822      	ldr	r2, [r4, #0]
 8002c5a:	4b49      	ldr	r3, [pc, #292]	; (8002d80 <HAL_DMA_Abort+0x4a0>)
 8002c5c:	4949      	ldr	r1, [pc, #292]	; (8002d84 <HAL_DMA_Abort+0x4a4>)
 8002c5e:	428a      	cmp	r2, r1
 8002c60:	bf18      	it	ne
 8002c62:	429a      	cmpne	r2, r3
 8002c64:	bf0c      	ite	eq
 8002c66:	2301      	moveq	r3, #1
 8002c68:	2300      	movne	r3, #0
 8002c6a:	3118      	adds	r1, #24
 8002c6c:	428a      	cmp	r2, r1
 8002c6e:	bf08      	it	eq
 8002c70:	f043 0301 	orreq.w	r3, r3, #1
 8002c74:	3118      	adds	r1, #24
 8002c76:	428a      	cmp	r2, r1
 8002c78:	bf08      	it	eq
 8002c7a:	f043 0301 	orreq.w	r3, r3, #1
 8002c7e:	3118      	adds	r1, #24
 8002c80:	428a      	cmp	r2, r1
 8002c82:	bf08      	it	eq
 8002c84:	f043 0301 	orreq.w	r3, r3, #1
 8002c88:	3118      	adds	r1, #24
 8002c8a:	428a      	cmp	r2, r1
 8002c8c:	bf08      	it	eq
 8002c8e:	f043 0301 	orreq.w	r3, r3, #1
 8002c92:	3118      	adds	r1, #24
 8002c94:	428a      	cmp	r2, r1
 8002c96:	bf08      	it	eq
 8002c98:	f043 0301 	orreq.w	r3, r3, #1
 8002c9c:	3118      	adds	r1, #24
 8002c9e:	428a      	cmp	r2, r1
 8002ca0:	bf08      	it	eq
 8002ca2:	f043 0301 	orreq.w	r3, r3, #1
 8002ca6:	f501 7156 	add.w	r1, r1, #856	; 0x358
 8002caa:	428a      	cmp	r2, r1
 8002cac:	bf08      	it	eq
 8002cae:	f043 0301 	orreq.w	r3, r3, #1
 8002cb2:	3118      	adds	r1, #24
 8002cb4:	428a      	cmp	r2, r1
 8002cb6:	bf08      	it	eq
 8002cb8:	f043 0301 	orreq.w	r3, r3, #1
 8002cbc:	3118      	adds	r1, #24
 8002cbe:	428a      	cmp	r2, r1
 8002cc0:	bf08      	it	eq
 8002cc2:	f043 0301 	orreq.w	r3, r3, #1
 8002cc6:	3118      	adds	r1, #24
 8002cc8:	428a      	cmp	r2, r1
 8002cca:	bf08      	it	eq
 8002ccc:	f043 0301 	orreq.w	r3, r3, #1
 8002cd0:	3118      	adds	r1, #24
 8002cd2:	428a      	cmp	r2, r1
 8002cd4:	bf08      	it	eq
 8002cd6:	f043 0301 	orreq.w	r3, r3, #1
 8002cda:	3118      	adds	r1, #24
 8002cdc:	428a      	cmp	r2, r1
 8002cde:	bf08      	it	eq
 8002ce0:	f043 0301 	orreq.w	r3, r3, #1
 8002ce4:	3118      	adds	r1, #24
 8002ce6:	428a      	cmp	r2, r1
 8002ce8:	bf08      	it	eq
 8002cea:	f043 0301 	orreq.w	r3, r3, #1
 8002cee:	3118      	adds	r1, #24
 8002cf0:	428a      	cmp	r2, r1
 8002cf2:	bf08      	it	eq
 8002cf4:	f043 0301 	orreq.w	r3, r3, #1
 8002cf8:	4924      	ldr	r1, [pc, #144]	; (8002d8c <HAL_DMA_Abort+0x4ac>)
 8002cfa:	428a      	cmp	r2, r1
 8002cfc:	bf08      	it	eq
 8002cfe:	f043 0301 	orreq.w	r3, r3, #1
 8002d02:	3114      	adds	r1, #20
 8002d04:	428a      	cmp	r2, r1
 8002d06:	bf08      	it	eq
 8002d08:	f043 0301 	orreq.w	r3, r3, #1
 8002d0c:	3114      	adds	r1, #20
 8002d0e:	428a      	cmp	r2, r1
 8002d10:	bf08      	it	eq
 8002d12:	f043 0301 	orreq.w	r3, r3, #1
 8002d16:	3114      	adds	r1, #20
 8002d18:	428a      	cmp	r2, r1
 8002d1a:	bf08      	it	eq
 8002d1c:	f043 0301 	orreq.w	r3, r3, #1
 8002d20:	3114      	adds	r1, #20
 8002d22:	428a      	cmp	r2, r1
 8002d24:	bf08      	it	eq
 8002d26:	f043 0301 	orreq.w	r3, r3, #1
 8002d2a:	3114      	adds	r1, #20
 8002d2c:	428a      	cmp	r2, r1
 8002d2e:	bf08      	it	eq
 8002d30:	f043 0301 	orreq.w	r3, r3, #1
 8002d34:	3114      	adds	r1, #20
 8002d36:	428a      	cmp	r2, r1
 8002d38:	bf08      	it	eq
 8002d3a:	f043 0301 	orreq.w	r3, r3, #1
 8002d3e:	b913      	cbnz	r3, 8002d46 <HAL_DMA_Abort+0x466>
 8002d40:	4b13      	ldr	r3, [pc, #76]	; (8002d90 <HAL_DMA_Abort+0x4b0>)
 8002d42:	429a      	cmp	r2, r3
 8002d44:	d10b      	bne.n	8002d5e <HAL_DMA_Abort+0x47e>
 8002d46:	6e63      	ldr	r3, [r4, #100]	; 0x64
 8002d48:	6ea2      	ldr	r2, [r4, #104]	; 0x68
 8002d4a:	605a      	str	r2, [r3, #4]
 8002d4c:	6ee3      	ldr	r3, [r4, #108]	; 0x6c
 8002d4e:	b133      	cbz	r3, 8002d5e <HAL_DMA_Abort+0x47e>
 8002d50:	681a      	ldr	r2, [r3, #0]
 8002d52:	f422 7280 	bic.w	r2, r2, #256	; 0x100
 8002d56:	601a      	str	r2, [r3, #0]
 8002d58:	6f23      	ldr	r3, [r4, #112]	; 0x70
 8002d5a:	6f62      	ldr	r2, [r4, #116]	; 0x74
 8002d5c:	605a      	str	r2, [r3, #4]
 8002d5e:	2000      	movs	r0, #0
 8002d60:	f884 0034 	strb.w	r0, [r4, #52]	; 0x34
 8002d64:	2301      	movs	r3, #1
 8002d66:	f884 3035 	strb.w	r3, [r4, #53]	; 0x35
 8002d6a:	e5cc      	b.n	8002906 <HAL_DMA_Abort+0x26>
 8002d6c:	6da1      	ldr	r1, [r4, #88]	; 0x58
 8002d6e:	6de3      	ldr	r3, [r4, #92]	; 0x5c
 8002d70:	f003 021f 	and.w	r2, r3, #31
 8002d74:	2301      	movs	r3, #1
 8002d76:	4093      	lsls	r3, r2
 8002d78:	604b      	str	r3, [r1, #4]
 8002d7a:	e76d      	b.n	8002c58 <HAL_DMA_Abort+0x378>
 8002d7c:	2001      	movs	r0, #1
 8002d7e:	e5c2      	b.n	8002906 <HAL_DMA_Abort+0x26>
 8002d80:	40020010 	.word	0x40020010
 8002d84:	40020028 	.word	0x40020028
 8002d88:	400204b8 	.word	0x400204b8
 8002d8c:	58025408 	.word	0x58025408
 8002d90:	58025494 	.word	0x58025494

08002d94 <HAL_DMA_Abort_IT>:
 8002d94:	2800      	cmp	r0, #0
 8002d96:	f000 8162 	beq.w	800305e <HAL_DMA_Abort_IT+0x2ca>
 8002d9a:	b508      	push	{r3, lr}
 8002d9c:	4601      	mov	r1, r0
 8002d9e:	f890 3035 	ldrb.w	r3, [r0, #53]	; 0x35
 8002da2:	b2db      	uxtb	r3, r3
 8002da4:	2b02      	cmp	r3, #2
 8002da6:	d003      	beq.n	8002db0 <HAL_DMA_Abort_IT+0x1c>
 8002da8:	2380      	movs	r3, #128	; 0x80
 8002daa:	6543      	str	r3, [r0, #84]	; 0x54
 8002dac:	2001      	movs	r0, #1
 8002dae:	bd08      	pop	{r3, pc}
 8002db0:	6802      	ldr	r2, [r0, #0]
 8002db2:	4b2b      	ldr	r3, [pc, #172]	; (8002e60 <HAL_DMA_Abort_IT+0xcc>)
 8002db4:	482b      	ldr	r0, [pc, #172]	; (8002e64 <HAL_DMA_Abort_IT+0xd0>)
 8002db6:	4282      	cmp	r2, r0
 8002db8:	bf18      	it	ne
 8002dba:	429a      	cmpne	r2, r3
 8002dbc:	bf0c      	ite	eq
 8002dbe:	2301      	moveq	r3, #1
 8002dc0:	2300      	movne	r3, #0
 8002dc2:	3018      	adds	r0, #24
 8002dc4:	4282      	cmp	r2, r0
 8002dc6:	bf08      	it	eq
 8002dc8:	f043 0301 	orreq.w	r3, r3, #1
 8002dcc:	3018      	adds	r0, #24
 8002dce:	4282      	cmp	r2, r0
 8002dd0:	bf08      	it	eq
 8002dd2:	f043 0301 	orreq.w	r3, r3, #1
 8002dd6:	3018      	adds	r0, #24
 8002dd8:	4282      	cmp	r2, r0
 8002dda:	bf08      	it	eq
 8002ddc:	f043 0301 	orreq.w	r3, r3, #1
 8002de0:	3018      	adds	r0, #24
 8002de2:	4282      	cmp	r2, r0
 8002de4:	bf08      	it	eq
 8002de6:	f043 0301 	orreq.w	r3, r3, #1
 8002dea:	3018      	adds	r0, #24
 8002dec:	4282      	cmp	r2, r0
 8002dee:	bf08      	it	eq
 8002df0:	f043 0301 	orreq.w	r3, r3, #1
 8002df4:	3018      	adds	r0, #24
 8002df6:	4282      	cmp	r2, r0
 8002df8:	bf08      	it	eq
 8002dfa:	f043 0301 	orreq.w	r3, r3, #1
 8002dfe:	f500 7056 	add.w	r0, r0, #856	; 0x358
 8002e02:	4282      	cmp	r2, r0
 8002e04:	bf08      	it	eq
 8002e06:	f043 0301 	orreq.w	r3, r3, #1
 8002e0a:	3018      	adds	r0, #24
 8002e0c:	4282      	cmp	r2, r0
 8002e0e:	bf08      	it	eq
 8002e10:	f043 0301 	orreq.w	r3, r3, #1
 8002e14:	3018      	adds	r0, #24
 8002e16:	4282      	cmp	r2, r0
 8002e18:	bf08      	it	eq
 8002e1a:	f043 0301 	orreq.w	r3, r3, #1
 8002e1e:	3018      	adds	r0, #24
 8002e20:	4282      	cmp	r2, r0
 8002e22:	bf08      	it	eq
 8002e24:	f043 0301 	orreq.w	r3, r3, #1
 8002e28:	3018      	adds	r0, #24
 8002e2a:	4282      	cmp	r2, r0
 8002e2c:	bf08      	it	eq
 8002e2e:	f043 0301 	orreq.w	r3, r3, #1
 8002e32:	3018      	adds	r0, #24
 8002e34:	4282      	cmp	r2, r0
 8002e36:	bf08      	it	eq
 8002e38:	f043 0301 	orreq.w	r3, r3, #1
 8002e3c:	3018      	adds	r0, #24
 8002e3e:	4282      	cmp	r2, r0
 8002e40:	bf08      	it	eq
 8002e42:	f043 0301 	orreq.w	r3, r3, #1
 8002e46:	b913      	cbnz	r3, 8002e4e <HAL_DMA_Abort_IT+0xba>
 8002e48:	4b07      	ldr	r3, [pc, #28]	; (8002e68 <HAL_DMA_Abort_IT+0xd4>)
 8002e4a:	429a      	cmp	r2, r3
 8002e4c:	d10e      	bne.n	8002e6c <HAL_DMA_Abort_IT+0xd8>
 8002e4e:	2304      	movs	r3, #4
 8002e50:	f881 3035 	strb.w	r3, [r1, #53]	; 0x35
 8002e54:	6813      	ldr	r3, [r2, #0]
 8002e56:	f023 0301 	bic.w	r3, r3, #1
 8002e5a:	6013      	str	r3, [r2, #0]
 8002e5c:	2000      	movs	r0, #0
 8002e5e:	e7a6      	b.n	8002dae <HAL_DMA_Abort_IT+0x1a>
 8002e60:	40020010 	.word	0x40020010
 8002e64:	40020028 	.word	0x40020028
 8002e68:	400204b8 	.word	0x400204b8
 8002e6c:	6813      	ldr	r3, [r2, #0]
 8002e6e:	f023 030e 	bic.w	r3, r3, #14
 8002e72:	6013      	str	r3, [r2, #0]
 8002e74:	680a      	ldr	r2, [r1, #0]
 8002e76:	4b7c      	ldr	r3, [pc, #496]	; (8003068 <HAL_DMA_Abort_IT+0x2d4>)
 8002e78:	f5a0 608f 	sub.w	r0, r0, #1144	; 0x478
 8002e7c:	4282      	cmp	r2, r0
 8002e7e:	bf18      	it	ne
 8002e80:	429a      	cmpne	r2, r3
 8002e82:	bf0c      	ite	eq
 8002e84:	2301      	moveq	r3, #1
 8002e86:	2300      	movne	r3, #0
 8002e88:	3018      	adds	r0, #24
 8002e8a:	4282      	cmp	r2, r0
 8002e8c:	bf08      	it	eq
 8002e8e:	f043 0301 	orreq.w	r3, r3, #1
 8002e92:	3018      	adds	r0, #24
 8002e94:	4282      	cmp	r2, r0
 8002e96:	bf08      	it	eq
 8002e98:	f043 0301 	orreq.w	r3, r3, #1
 8002e9c:	3018      	adds	r0, #24
 8002e9e:	4282      	cmp	r2, r0
 8002ea0:	bf08      	it	eq
 8002ea2:	f043 0301 	orreq.w	r3, r3, #1
 8002ea6:	3018      	adds	r0, #24
 8002ea8:	4282      	cmp	r2, r0
 8002eaa:	bf08      	it	eq
 8002eac:	f043 0301 	orreq.w	r3, r3, #1
 8002eb0:	3018      	adds	r0, #24
 8002eb2:	4282      	cmp	r2, r0
 8002eb4:	bf08      	it	eq
 8002eb6:	f043 0301 	orreq.w	r3, r3, #1
 8002eba:	3018      	adds	r0, #24
 8002ebc:	4282      	cmp	r2, r0
 8002ebe:	bf08      	it	eq
 8002ec0:	f043 0301 	orreq.w	r3, r3, #1
 8002ec4:	f500 7056 	add.w	r0, r0, #856	; 0x358
 8002ec8:	4282      	cmp	r2, r0
 8002eca:	bf08      	it	eq
 8002ecc:	f043 0301 	orreq.w	r3, r3, #1
 8002ed0:	3018      	adds	r0, #24
 8002ed2:	4282      	cmp	r2, r0
 8002ed4:	bf08      	it	eq
 8002ed6:	f043 0301 	orreq.w	r3, r3, #1
 8002eda:	3018      	adds	r0, #24
 8002edc:	4282      	cmp	r2, r0
 8002ede:	bf08      	it	eq
 8002ee0:	f043 0301 	orreq.w	r3, r3, #1
 8002ee4:	3018      	adds	r0, #24
 8002ee6:	4282      	cmp	r2, r0
 8002ee8:	bf08      	it	eq
 8002eea:	f043 0301 	orreq.w	r3, r3, #1
 8002eee:	3018      	adds	r0, #24
 8002ef0:	4282      	cmp	r2, r0
 8002ef2:	bf08      	it	eq
 8002ef4:	f043 0301 	orreq.w	r3, r3, #1
 8002ef8:	3018      	adds	r0, #24
 8002efa:	4282      	cmp	r2, r0
 8002efc:	bf08      	it	eq
 8002efe:	f043 0301 	orreq.w	r3, r3, #1
 8002f02:	3018      	adds	r0, #24
 8002f04:	4282      	cmp	r2, r0
 8002f06:	bf08      	it	eq
 8002f08:	f043 0301 	orreq.w	r3, r3, #1
 8002f0c:	b91b      	cbnz	r3, 8002f16 <HAL_DMA_Abort_IT+0x182>
 8002f0e:	4b57      	ldr	r3, [pc, #348]	; (800306c <HAL_DMA_Abort_IT+0x2d8>)
 8002f10:	429a      	cmp	r2, r3
 8002f12:	f040 809f 	bne.w	8003054 <HAL_DMA_Abort_IT+0x2c0>
 8002f16:	6813      	ldr	r3, [r2, #0]
 8002f18:	f023 0301 	bic.w	r3, r3, #1
 8002f1c:	6013      	str	r3, [r2, #0]
 8002f1e:	680a      	ldr	r2, [r1, #0]
 8002f20:	4b51      	ldr	r3, [pc, #324]	; (8003068 <HAL_DMA_Abort_IT+0x2d4>)
 8002f22:	4853      	ldr	r0, [pc, #332]	; (8003070 <HAL_DMA_Abort_IT+0x2dc>)
 8002f24:	4282      	cmp	r2, r0
 8002f26:	bf18      	it	ne
 8002f28:	429a      	cmpne	r2, r3
 8002f2a:	bf0c      	ite	eq
 8002f2c:	2301      	moveq	r3, #1
 8002f2e:	2300      	movne	r3, #0
 8002f30:	3018      	adds	r0, #24
 8002f32:	4282      	cmp	r2, r0
 8002f34:	bf08      	it	eq
 8002f36:	f043 0301 	orreq.w	r3, r3, #1
 8002f3a:	3018      	adds	r0, #24
 8002f3c:	4282      	cmp	r2, r0
 8002f3e:	bf08      	it	eq
 8002f40:	f043 0301 	orreq.w	r3, r3, #1
 8002f44:	3018      	adds	r0, #24
 8002f46:	4282      	cmp	r2, r0
 8002f48:	bf08      	it	eq
 8002f4a:	f043 0301 	orreq.w	r3, r3, #1
 8002f4e:	3018      	adds	r0, #24
 8002f50:	4282      	cmp	r2, r0
 8002f52:	bf08      	it	eq
 8002f54:	f043 0301 	orreq.w	r3, r3, #1
 8002f58:	3018      	adds	r0, #24
 8002f5a:	4282      	cmp	r2, r0
 8002f5c:	bf08      	it	eq
 8002f5e:	f043 0301 	orreq.w	r3, r3, #1
 8002f62:	3018      	adds	r0, #24
 8002f64:	4282      	cmp	r2, r0
 8002f66:	bf08      	it	eq
 8002f68:	f043 0301 	orreq.w	r3, r3, #1
 8002f6c:	f500 7056 	add.w	r0, r0, #856	; 0x358
 8002f70:	4282      	cmp	r2, r0
 8002f72:	bf08      	it	eq
 8002f74:	f043 0301 	orreq.w	r3, r3, #1
 8002f78:	3018      	adds	r0, #24
 8002f7a:	4282      	cmp	r2, r0
 8002f7c:	bf08      	it	eq
 8002f7e:	f043 0301 	orreq.w	r3, r3, #1
 8002f82:	3018      	adds	r0, #24
 8002f84:	4282      	cmp	r2, r0
 8002f86:	bf08      	it	eq
 8002f88:	f043 0301 	orreq.w	r3, r3, #1
 8002f8c:	3018      	adds	r0, #24
 8002f8e:	4282      	cmp	r2, r0
 8002f90:	bf08      	it	eq
 8002f92:	f043 0301 	orreq.w	r3, r3, #1
 8002f96:	3018      	adds	r0, #24
 8002f98:	4282      	cmp	r2, r0
 8002f9a:	bf08      	it	eq
 8002f9c:	f043 0301 	orreq.w	r3, r3, #1
 8002fa0:	3018      	adds	r0, #24
 8002fa2:	4282      	cmp	r2, r0
 8002fa4:	bf08      	it	eq
 8002fa6:	f043 0301 	orreq.w	r3, r3, #1
 8002faa:	3018      	adds	r0, #24
 8002fac:	4282      	cmp	r2, r0
 8002fae:	bf08      	it	eq
 8002fb0:	f043 0301 	orreq.w	r3, r3, #1
 8002fb4:	3018      	adds	r0, #24
 8002fb6:	4282      	cmp	r2, r0
 8002fb8:	bf08      	it	eq
 8002fba:	f043 0301 	orreq.w	r3, r3, #1
 8002fbe:	482d      	ldr	r0, [pc, #180]	; (8003074 <HAL_DMA_Abort_IT+0x2e0>)
 8002fc0:	4282      	cmp	r2, r0
 8002fc2:	bf08      	it	eq
 8002fc4:	f043 0301 	orreq.w	r3, r3, #1
 8002fc8:	3014      	adds	r0, #20
 8002fca:	4282      	cmp	r2, r0
 8002fcc:	bf08      	it	eq
 8002fce:	f043 0301 	orreq.w	r3, r3, #1
 8002fd2:	3014      	adds	r0, #20
 8002fd4:	4282      	cmp	r2, r0
 8002fd6:	bf08      	it	eq
 8002fd8:	f043 0301 	orreq.w	r3, r3, #1
 8002fdc:	3014      	adds	r0, #20
 8002fde:	4282      	cmp	r2, r0
 8002fe0:	bf08      	it	eq
 8002fe2:	f043 0301 	orreq.w	r3, r3, #1
 8002fe6:	3014      	adds	r0, #20
 8002fe8:	4282      	cmp	r2, r0
 8002fea:	bf08      	it	eq
 8002fec:	f043 0301 	orreq.w	r3, r3, #1
 8002ff0:	3014      	adds	r0, #20
 8002ff2:	4282      	cmp	r2, r0
 8002ff4:	bf08      	it	eq
 8002ff6:	f043 0301 	orreq.w	r3, r3, #1
 8002ffa:	3014      	adds	r0, #20
 8002ffc:	4282      	cmp	r2, r0
 8002ffe:	bf08      	it	eq
 8003000:	f043 0301 	orreq.w	r3, r3, #1
 8003004:	b913      	cbnz	r3, 800300c <HAL_DMA_Abort_IT+0x278>
 8003006:	4b1c      	ldr	r3, [pc, #112]	; (8003078 <HAL_DMA_Abort_IT+0x2e4>)
 8003008:	429a      	cmp	r2, r3
 800300a:	d117      	bne.n	800303c <HAL_DMA_Abort_IT+0x2a8>
 800300c:	6e0a      	ldr	r2, [r1, #96]	; 0x60
 800300e:	6813      	ldr	r3, [r2, #0]
 8003010:	f423 7380 	bic.w	r3, r3, #256	; 0x100
 8003014:	6013      	str	r3, [r2, #0]
 8003016:	6d88      	ldr	r0, [r1, #88]	; 0x58
 8003018:	6dcb      	ldr	r3, [r1, #92]	; 0x5c
 800301a:	f003 021f 	and.w	r2, r3, #31
 800301e:	2301      	movs	r3, #1
 8003020:	4093      	lsls	r3, r2
 8003022:	6043      	str	r3, [r0, #4]
 8003024:	6e4b      	ldr	r3, [r1, #100]	; 0x64
 8003026:	6e8a      	ldr	r2, [r1, #104]	; 0x68
 8003028:	605a      	str	r2, [r3, #4]
 800302a:	6ecb      	ldr	r3, [r1, #108]	; 0x6c
 800302c:	b133      	cbz	r3, 800303c <HAL_DMA_Abort_IT+0x2a8>
 800302e:	681a      	ldr	r2, [r3, #0]
 8003030:	f422 7280 	bic.w	r2, r2, #256	; 0x100
 8003034:	601a      	str	r2, [r3, #0]
 8003036:	6f0b      	ldr	r3, [r1, #112]	; 0x70
 8003038:	6f4a      	ldr	r2, [r1, #116]	; 0x74
 800303a:	605a      	str	r2, [r3, #4]
 800303c:	2300      	movs	r3, #0
 800303e:	f881 3034 	strb.w	r3, [r1, #52]	; 0x34
 8003042:	2301      	movs	r3, #1
 8003044:	f881 3035 	strb.w	r3, [r1, #53]	; 0x35
 8003048:	6d0b      	ldr	r3, [r1, #80]	; 0x50
 800304a:	b153      	cbz	r3, 8003062 <HAL_DMA_Abort_IT+0x2ce>
 800304c:	4608      	mov	r0, r1
 800304e:	4798      	blx	r3
 8003050:	2000      	movs	r0, #0
 8003052:	e6ac      	b.n	8002dae <HAL_DMA_Abort_IT+0x1a>
 8003054:	6813      	ldr	r3, [r2, #0]
 8003056:	f023 0301 	bic.w	r3, r3, #1
 800305a:	6013      	str	r3, [r2, #0]
 800305c:	e75f      	b.n	8002f1e <HAL_DMA_Abort_IT+0x18a>
 800305e:	2001      	movs	r0, #1
 8003060:	4770      	bx	lr
 8003062:	2000      	movs	r0, #0
 8003064:	e6a3      	b.n	8002dae <HAL_DMA_Abort_IT+0x1a>
 8003066:	bf00      	nop
 8003068:	40020010 	.word	0x40020010
 800306c:	400204b8 	.word	0x400204b8
 8003070:	40020028 	.word	0x40020028
 8003074:	58025408 	.word	0x58025408
 8003078:	58025494 	.word	0x58025494

0800307c <HAL_DMA_IRQHandler>:
 800307c:	b5f0      	push	{r4, r5, r6, r7, lr}
 800307e:	b083      	sub	sp, #12
 8003080:	4604      	mov	r4, r0
 8003082:	2300      	movs	r3, #0
 8003084:	9301      	str	r3, [sp, #4]
 8003086:	4b95      	ldr	r3, [pc, #596]	; (80032dc <HAL_DMA_IRQHandler+0x260>)
 8003088:	681f      	ldr	r7, [r3, #0]
 800308a:	6d86      	ldr	r6, [r0, #88]	; 0x58
 800308c:	6835      	ldr	r5, [r6, #0]
 800308e:	6831      	ldr	r1, [r6, #0]
 8003090:	6802      	ldr	r2, [r0, #0]
 8003092:	4b93      	ldr	r3, [pc, #588]	; (80032e0 <HAL_DMA_IRQHandler+0x264>)
 8003094:	4893      	ldr	r0, [pc, #588]	; (80032e4 <HAL_DMA_IRQHandler+0x268>)
 8003096:	4282      	cmp	r2, r0
 8003098:	bf18      	it	ne
 800309a:	429a      	cmpne	r2, r3
 800309c:	bf0c      	ite	eq
 800309e:	2301      	moveq	r3, #1
 80030a0:	2300      	movne	r3, #0
 80030a2:	3018      	adds	r0, #24
 80030a4:	4282      	cmp	r2, r0
 80030a6:	bf08      	it	eq
 80030a8:	f043 0301 	orreq.w	r3, r3, #1
 80030ac:	3018      	adds	r0, #24
 80030ae:	4282      	cmp	r2, r0
 80030b0:	bf08      	it	eq
 80030b2:	f043 0301 	orreq.w	r3, r3, #1
 80030b6:	3018      	adds	r0, #24
 80030b8:	4282      	cmp	r2, r0
 80030ba:	bf08      	it	eq
 80030bc:	f043 0301 	orreq.w	r3, r3, #1
 80030c0:	3018      	adds	r0, #24
 80030c2:	4282      	cmp	r2, r0
 80030c4:	bf08      	it	eq
 80030c6:	f043 0301 	orreq.w	r3, r3, #1
 80030ca:	3018      	adds	r0, #24
 80030cc:	4282      	cmp	r2, r0
 80030ce:	bf08      	it	eq
 80030d0:	f043 0301 	orreq.w	r3, r3, #1
 80030d4:	3018      	adds	r0, #24
 80030d6:	4282      	cmp	r2, r0
 80030d8:	bf08      	it	eq
 80030da:	f043 0301 	orreq.w	r3, r3, #1
 80030de:	f500 7056 	add.w	r0, r0, #856	; 0x358
 80030e2:	4282      	cmp	r2, r0
 80030e4:	bf08      	it	eq
 80030e6:	f043 0301 	orreq.w	r3, r3, #1
 80030ea:	3018      	adds	r0, #24
 80030ec:	4282      	cmp	r2, r0
 80030ee:	bf08      	it	eq
 80030f0:	f043 0301 	orreq.w	r3, r3, #1
 80030f4:	3018      	adds	r0, #24
 80030f6:	4282      	cmp	r2, r0
 80030f8:	bf08      	it	eq
 80030fa:	f043 0301 	orreq.w	r3, r3, #1
 80030fe:	3018      	adds	r0, #24
 8003100:	4282      	cmp	r2, r0
 8003102:	bf08      	it	eq
 8003104:	f043 0301 	orreq.w	r3, r3, #1
 8003108:	3018      	adds	r0, #24
 800310a:	4282      	cmp	r2, r0
 800310c:	bf08      	it	eq
 800310e:	f043 0301 	orreq.w	r3, r3, #1
 8003112:	3018      	adds	r0, #24
 8003114:	4282      	cmp	r2, r0
 8003116:	bf08      	it	eq
 8003118:	f043 0301 	orreq.w	r3, r3, #1
 800311c:	3018      	adds	r0, #24
 800311e:	4282      	cmp	r2, r0
 8003120:	bf08      	it	eq
 8003122:	f043 0301 	orreq.w	r3, r3, #1
 8003126:	b91b      	cbnz	r3, 8003130 <HAL_DMA_IRQHandler+0xb4>
 8003128:	4b6f      	ldr	r3, [pc, #444]	; (80032e8 <HAL_DMA_IRQHandler+0x26c>)
 800312a:	429a      	cmp	r2, r3
 800312c:	f040 8082 	bne.w	8003234 <HAL_DMA_IRQHandler+0x1b8>
 8003130:	6de3      	ldr	r3, [r4, #92]	; 0x5c
 8003132:	f003 031f 	and.w	r3, r3, #31
 8003136:	2108      	movs	r1, #8
 8003138:	4099      	lsls	r1, r3
 800313a:	4229      	tst	r1, r5
 800313c:	f000 83be 	beq.w	80038bc <HAL_DMA_IRQHandler+0x840>
 8003140:	6811      	ldr	r1, [r2, #0]
 8003142:	f011 0f04 	tst.w	r1, #4
 8003146:	f000 83b9 	beq.w	80038bc <HAL_DMA_IRQHandler+0x840>
 800314a:	6813      	ldr	r3, [r2, #0]
 800314c:	f023 0304 	bic.w	r3, r3, #4
 8003150:	6013      	str	r3, [r2, #0]
 8003152:	6de3      	ldr	r3, [r4, #92]	; 0x5c
 8003154:	f003 021f 	and.w	r2, r3, #31
 8003158:	2308      	movs	r3, #8
 800315a:	4093      	lsls	r3, r2
 800315c:	60b3      	str	r3, [r6, #8]
 800315e:	6d63      	ldr	r3, [r4, #84]	; 0x54
 8003160:	f043 0301 	orr.w	r3, r3, #1
 8003164:	6563      	str	r3, [r4, #84]	; 0x54
 8003166:	6de3      	ldr	r3, [r4, #92]	; 0x5c
 8003168:	f003 031f 	and.w	r3, r3, #31
 800316c:	fa25 f203 	lsr.w	r2, r5, r3
 8003170:	f012 0f01 	tst.w	r2, #1
 8003174:	f000 80c8 	beq.w	8003308 <HAL_DMA_IRQHandler+0x28c>
 8003178:	6822      	ldr	r2, [r4, #0]
 800317a:	4959      	ldr	r1, [pc, #356]	; (80032e0 <HAL_DMA_IRQHandler+0x264>)
 800317c:	4859      	ldr	r0, [pc, #356]	; (80032e4 <HAL_DMA_IRQHandler+0x268>)
 800317e:	4282      	cmp	r2, r0
 8003180:	bf18      	it	ne
 8003182:	428a      	cmpne	r2, r1
 8003184:	bf0c      	ite	eq
 8003186:	2101      	moveq	r1, #1
 8003188:	2100      	movne	r1, #0
 800318a:	3018      	adds	r0, #24
 800318c:	4282      	cmp	r2, r0
 800318e:	bf08      	it	eq
 8003190:	f041 0101 	orreq.w	r1, r1, #1
 8003194:	3018      	adds	r0, #24
 8003196:	4282      	cmp	r2, r0
 8003198:	bf08      	it	eq
 800319a:	f041 0101 	orreq.w	r1, r1, #1
 800319e:	3018      	adds	r0, #24
 80031a0:	4282      	cmp	r2, r0
 80031a2:	bf08      	it	eq
 80031a4:	f041 0101 	orreq.w	r1, r1, #1
 80031a8:	3018      	adds	r0, #24
 80031aa:	4282      	cmp	r2, r0
 80031ac:	bf08      	it	eq
 80031ae:	f041 0101 	orreq.w	r1, r1, #1
 80031b2:	3018      	adds	r0, #24
 80031b4:	4282      	cmp	r2, r0
 80031b6:	bf08      	it	eq
 80031b8:	f041 0101 	orreq.w	r1, r1, #1
 80031bc:	3018      	adds	r0, #24
 80031be:	4282      	cmp	r2, r0
 80031c0:	bf08      	it	eq
 80031c2:	f041 0101 	orreq.w	r1, r1, #1
 80031c6:	f500 7056 	add.w	r0, r0, #856	; 0x358
 80031ca:	4282      	cmp	r2, r0
 80031cc:	bf08      	it	eq
 80031ce:	f041 0101 	orreq.w	r1, r1, #1
 80031d2:	3018      	adds	r0, #24
 80031d4:	4282      	cmp	r2, r0
 80031d6:	bf08      	it	eq
 80031d8:	f041 0101 	orreq.w	r1, r1, #1
 80031dc:	3018      	adds	r0, #24
 80031de:	4282      	cmp	r2, r0
 80031e0:	bf08      	it	eq
 80031e2:	f041 0101 	orreq.w	r1, r1, #1
 80031e6:	3018      	adds	r0, #24
 80031e8:	4282      	cmp	r2, r0
 80031ea:	bf08      	it	eq
 80031ec:	f041 0101 	orreq.w	r1, r1, #1
 80031f0:	3018      	adds	r0, #24
 80031f2:	4282      	cmp	r2, r0
 80031f4:	bf08      	it	eq
 80031f6:	f041 0101 	orreq.w	r1, r1, #1
 80031fa:	3018      	adds	r0, #24
 80031fc:	4282      	cmp	r2, r0
 80031fe:	bf08      	it	eq
 8003200:	f041 0101 	orreq.w	r1, r1, #1
 8003204:	3018      	adds	r0, #24
 8003206:	4282      	cmp	r2, r0
 8003208:	bf08      	it	eq
 800320a:	f041 0101 	orreq.w	r1, r1, #1
 800320e:	b911      	cbnz	r1, 8003216 <HAL_DMA_IRQHandler+0x19a>
 8003210:	4935      	ldr	r1, [pc, #212]	; (80032e8 <HAL_DMA_IRQHandler+0x26c>)
 8003212:	428a      	cmp	r2, r1
 8003214:	d151      	bne.n	80032ba <HAL_DMA_IRQHandler+0x23e>
 8003216:	6952      	ldr	r2, [r2, #20]
 8003218:	f012 0f80 	tst.w	r2, #128	; 0x80
 800321c:	d16c      	bne.n	80032f8 <HAL_DMA_IRQHandler+0x27c>
 800321e:	6de1      	ldr	r1, [r4, #92]	; 0x5c
 8003220:	f001 011f 	and.w	r1, r1, #31
 8003224:	2304      	movs	r3, #4
 8003226:	fa03 f101 	lsl.w	r1, r3, r1
 800322a:	420d      	tst	r5, r1
 800322c:	f000 80d9 	beq.w	80033e2 <HAL_DMA_IRQHandler+0x366>
 8003230:	6822      	ldr	r2, [r4, #0]
 8003232:	e353      	b.n	80038dc <HAL_DMA_IRQHandler+0x860>
 8003234:	4b2d      	ldr	r3, [pc, #180]	; (80032ec <HAL_DMA_IRQHandler+0x270>)
 8003236:	482e      	ldr	r0, [pc, #184]	; (80032f0 <HAL_DMA_IRQHandler+0x274>)
 8003238:	4282      	cmp	r2, r0
 800323a:	bf18      	it	ne
 800323c:	429a      	cmpne	r2, r3
 800323e:	bf0c      	ite	eq
 8003240:	2301      	moveq	r3, #1
 8003242:	2300      	movne	r3, #0
 8003244:	3014      	adds	r0, #20
 8003246:	4282      	cmp	r2, r0
 8003248:	bf08      	it	eq
 800324a:	f043 0301 	orreq.w	r3, r3, #1
 800324e:	3014      	adds	r0, #20
 8003250:	4282      	cmp	r2, r0
 8003252:	bf08      	it	eq
 8003254:	f043 0301 	orreq.w	r3, r3, #1
 8003258:	3014      	adds	r0, #20
 800325a:	4282      	cmp	r2, r0
 800325c:	bf08      	it	eq
 800325e:	f043 0301 	orreq.w	r3, r3, #1
 8003262:	3014      	adds	r0, #20
 8003264:	4282      	cmp	r2, r0
 8003266:	bf08      	it	eq
 8003268:	f043 0301 	orreq.w	r3, r3, #1
 800326c:	3014      	adds	r0, #20
 800326e:	4282      	cmp	r2, r0
 8003270:	bf08      	it	eq
 8003272:	f043 0301 	orreq.w	r3, r3, #1
 8003276:	b91b      	cbnz	r3, 8003280 <HAL_DMA_IRQHandler+0x204>
 8003278:	4b1e      	ldr	r3, [pc, #120]	; (80032f4 <HAL_DMA_IRQHandler+0x278>)
 800327a:	429a      	cmp	r2, r3
 800327c:	f040 81fd 	bne.w	800367a <HAL_DMA_IRQHandler+0x5fe>
 8003280:	6813      	ldr	r3, [r2, #0]
 8003282:	6de0      	ldr	r0, [r4, #92]	; 0x5c
 8003284:	f000 001f 	and.w	r0, r0, #31
 8003288:	2504      	movs	r5, #4
 800328a:	4085      	lsls	r5, r0
 800328c:	420d      	tst	r5, r1
 800328e:	f000 8262 	beq.w	8003756 <HAL_DMA_IRQHandler+0x6da>
 8003292:	f013 0f04 	tst.w	r3, #4
 8003296:	f000 825e 	beq.w	8003756 <HAL_DMA_IRQHandler+0x6da>
 800329a:	6075      	str	r5, [r6, #4]
 800329c:	f413 4f00 	tst.w	r3, #32768	; 0x8000
 80032a0:	f000 81f8 	beq.w	8003694 <HAL_DMA_IRQHandler+0x618>
 80032a4:	f413 3f80 	tst.w	r3, #65536	; 0x10000
 80032a8:	f040 81ee 	bne.w	8003688 <HAL_DMA_IRQHandler+0x60c>
 80032ac:	6ca3      	ldr	r3, [r4, #72]	; 0x48
 80032ae:	2b00      	cmp	r3, #0
 80032b0:	f000 81e3 	beq.w	800367a <HAL_DMA_IRQHandler+0x5fe>
 80032b4:	4620      	mov	r0, r4
 80032b6:	4798      	blx	r3
 80032b8:	e1df      	b.n	800367a <HAL_DMA_IRQHandler+0x5fe>
 80032ba:	6811      	ldr	r1, [r2, #0]
 80032bc:	2104      	movs	r1, #4
 80032be:	fa01 f303 	lsl.w	r3, r1, r3
 80032c2:	422b      	tst	r3, r5
 80032c4:	d17a      	bne.n	80033bc <HAL_DMA_IRQHandler+0x340>
 80032c6:	6de3      	ldr	r3, [r4, #92]	; 0x5c
 80032c8:	f003 031f 	and.w	r3, r3, #31
 80032cc:	2110      	movs	r1, #16
 80032ce:	4099      	lsls	r1, r3
 80032d0:	420d      	tst	r5, r1
 80032d2:	f000 8310 	beq.w	80038f6 <HAL_DMA_IRQHandler+0x87a>
 80032d6:	6822      	ldr	r2, [r4, #0]
 80032d8:	e07a      	b.n	80033d0 <HAL_DMA_IRQHandler+0x354>
 80032da:	bf00      	nop
 80032dc:	24000000 	.word	0x24000000
 80032e0:	40020010 	.word	0x40020010
 80032e4:	40020028 	.word	0x40020028
 80032e8:	400204b8 	.word	0x400204b8
 80032ec:	58025408 	.word	0x58025408
 80032f0:	5802541c 	.word	0x5802541c
 80032f4:	58025494 	.word	0x58025494
 80032f8:	2201      	movs	r2, #1
 80032fa:	fa02 f303 	lsl.w	r3, r2, r3
 80032fe:	60b3      	str	r3, [r6, #8]
 8003300:	6d63      	ldr	r3, [r4, #84]	; 0x54
 8003302:	f043 0302 	orr.w	r3, r3, #2
 8003306:	6563      	str	r3, [r4, #84]	; 0x54
 8003308:	6de1      	ldr	r1, [r4, #92]	; 0x5c
 800330a:	f001 011f 	and.w	r1, r1, #31
 800330e:	2304      	movs	r3, #4
 8003310:	fa03 f101 	lsl.w	r1, r3, r1
 8003314:	4229      	tst	r1, r5
 8003316:	d064      	beq.n	80033e2 <HAL_DMA_IRQHandler+0x366>
 8003318:	6822      	ldr	r2, [r4, #0]
 800331a:	4b8e      	ldr	r3, [pc, #568]	; (8003554 <HAL_DMA_IRQHandler+0x4d8>)
 800331c:	488e      	ldr	r0, [pc, #568]	; (8003558 <HAL_DMA_IRQHandler+0x4dc>)
 800331e:	4282      	cmp	r2, r0
 8003320:	bf18      	it	ne
 8003322:	429a      	cmpne	r2, r3
 8003324:	bf0c      	ite	eq
 8003326:	2301      	moveq	r3, #1
 8003328:	2300      	movne	r3, #0
 800332a:	3018      	adds	r0, #24
 800332c:	4282      	cmp	r2, r0
 800332e:	bf08      	it	eq
 8003330:	f043 0301 	orreq.w	r3, r3, #1
 8003334:	3018      	adds	r0, #24
 8003336:	4282      	cmp	r2, r0
 8003338:	bf08      	it	eq
 800333a:	f043 0301 	orreq.w	r3, r3, #1
 800333e:	3018      	adds	r0, #24
 8003340:	4282      	cmp	r2, r0
 8003342:	bf08      	it	eq
 8003344:	f043 0301 	orreq.w	r3, r3, #1
 8003348:	3018      	adds	r0, #24
 800334a:	4282      	cmp	r2, r0
 800334c:	bf08      	it	eq
 800334e:	f043 0301 	orreq.w	r3, r3, #1
 8003352:	3018      	adds	r0, #24
 8003354:	4282      	cmp	r2, r0
 8003356:	bf08      	it	eq
 8003358:	f043 0301 	orreq.w	r3, r3, #1
 800335c:	3018      	adds	r0, #24
 800335e:	4282      	cmp	r2, r0
 8003360:	bf08      	it	eq
 8003362:	f043 0301 	orreq.w	r3, r3, #1
 8003366:	f500 7056 	add.w	r0, r0, #856	; 0x358
 800336a:	4282      	cmp	r2, r0
 800336c:	bf08      	it	eq
 800336e:	f043 0301 	orreq.w	r3, r3, #1
 8003372:	3018      	adds	r0, #24
 8003374:	4282      	cmp	r2, r0
 8003376:	bf08      	it	eq
 8003378:	f043 0301 	orreq.w	r3, r3, #1
 800337c:	3018      	adds	r0, #24
 800337e:	4282      	cmp	r2, r0
 8003380:	bf08      	it	eq
 8003382:	f043 0301 	orreq.w	r3, r3, #1
 8003386:	3018      	adds	r0, #24
 8003388:	4282      	cmp	r2, r0
 800338a:	bf08      	it	eq
 800338c:	f043 0301 	orreq.w	r3, r3, #1
 8003390:	3018      	adds	r0, #24
 8003392:	4282      	cmp	r2, r0
 8003394:	bf08      	it	eq
 8003396:	f043 0301 	orreq.w	r3, r3, #1
 800339a:	3018      	adds	r0, #24
 800339c:	4282      	cmp	r2, r0
 800339e:	bf08      	it	eq
 80033a0:	f043 0301 	orreq.w	r3, r3, #1
 80033a4:	3018      	adds	r0, #24
 80033a6:	4282      	cmp	r2, r0
 80033a8:	bf08      	it	eq
 80033aa:	f043 0301 	orreq.w	r3, r3, #1
 80033ae:	2b00      	cmp	r3, #0
 80033b0:	f040 8294 	bne.w	80038dc <HAL_DMA_IRQHandler+0x860>
 80033b4:	4b69      	ldr	r3, [pc, #420]	; (800355c <HAL_DMA_IRQHandler+0x4e0>)
 80033b6:	429a      	cmp	r2, r3
 80033b8:	f000 8290 	beq.w	80038dc <HAL_DMA_IRQHandler+0x860>
 80033bc:	6813      	ldr	r3, [r2, #0]
 80033be:	6de3      	ldr	r3, [r4, #92]	; 0x5c
 80033c0:	f003 031f 	and.w	r3, r3, #31
 80033c4:	2110      	movs	r1, #16
 80033c6:	4099      	lsls	r1, r3
 80033c8:	420d      	tst	r5, r1
 80033ca:	f000 8294 	beq.w	80038f6 <HAL_DMA_IRQHandler+0x87a>
 80033ce:	6822      	ldr	r2, [r4, #0]
 80033d0:	6813      	ldr	r3, [r2, #0]
 80033d2:	f3c3 0380 	ubfx	r3, r3, #2, #1
 80033d6:	e062      	b.n	800349e <HAL_DMA_IRQHandler+0x422>
 80033d8:	60b1      	str	r1, [r6, #8]
 80033da:	6d63      	ldr	r3, [r4, #84]	; 0x54
 80033dc:	f043 0304 	orr.w	r3, r3, #4
 80033e0:	6563      	str	r3, [r4, #84]	; 0x54
 80033e2:	6de1      	ldr	r1, [r4, #92]	; 0x5c
 80033e4:	f001 011f 	and.w	r1, r1, #31
 80033e8:	2310      	movs	r3, #16
 80033ea:	fa03 f101 	lsl.w	r1, r3, r1
 80033ee:	4229      	tst	r1, r5
 80033f0:	f000 8281 	beq.w	80038f6 <HAL_DMA_IRQHandler+0x87a>
 80033f4:	6822      	ldr	r2, [r4, #0]
 80033f6:	f103 4380 	add.w	r3, r3, #1073741824	; 0x40000000
 80033fa:	f503 3300 	add.w	r3, r3, #131072	; 0x20000
 80033fe:	4856      	ldr	r0, [pc, #344]	; (8003558 <HAL_DMA_IRQHandler+0x4dc>)
 8003400:	4282      	cmp	r2, r0
 8003402:	bf18      	it	ne
 8003404:	429a      	cmpne	r2, r3
 8003406:	bf0c      	ite	eq
 8003408:	2301      	moveq	r3, #1
 800340a:	2300      	movne	r3, #0
 800340c:	3018      	adds	r0, #24
 800340e:	4282      	cmp	r2, r0
 8003410:	bf08      	it	eq
 8003412:	f043 0301 	orreq.w	r3, r3, #1
 8003416:	3018      	adds	r0, #24
 8003418:	4282      	cmp	r2, r0
 800341a:	bf08      	it	eq
 800341c:	f043 0301 	orreq.w	r3, r3, #1
 8003420:	3018      	adds	r0, #24
 8003422:	4282      	cmp	r2, r0
 8003424:	bf08      	it	eq
 8003426:	f043 0301 	orreq.w	r3, r3, #1
 800342a:	3018      	adds	r0, #24
 800342c:	4282      	cmp	r2, r0
 800342e:	bf08      	it	eq
 8003430:	f043 0301 	orreq.w	r3, r3, #1
 8003434:	3018      	adds	r0, #24
 8003436:	4282      	cmp	r2, r0
 8003438:	bf08      	it	eq
 800343a:	f043 0301 	orreq.w	r3, r3, #1
 800343e:	3018      	adds	r0, #24
 8003440:	4282      	cmp	r2, r0
 8003442:	bf08      	it	eq
 8003444:	f043 0301 	orreq.w	r3, r3, #1
 8003448:	f500 7056 	add.w	r0, r0, #856	; 0x358
 800344c:	4282      	cmp	r2, r0
 800344e:	bf08      	it	eq
 8003450:	f043 0301 	orreq.w	r3, r3, #1
 8003454:	3018      	adds	r0, #24
 8003456:	4282      	cmp	r2, r0
 8003458:	bf08      	it	eq
 800345a:	f043 0301 	orreq.w	r3, r3, #1
 800345e:	3018      	adds	r0, #24
 8003460:	4282      	cmp	r2, r0
 8003462:	bf08      	it	eq
 8003464:	f043 0301 	orreq.w	r3, r3, #1
 8003468:	3018      	adds	r0, #24
 800346a:	4282      	cmp	r2, r0
 800346c:	bf08      	it	eq
 800346e:	f043 0301 	orreq.w	r3, r3, #1
 8003472:	3018      	adds	r0, #24
 8003474:	4282      	cmp	r2, r0
 8003476:	bf08      	it	eq
 8003478:	f043 0301 	orreq.w	r3, r3, #1
 800347c:	3018      	adds	r0, #24
 800347e:	4282      	cmp	r2, r0
 8003480:	bf08      	it	eq
 8003482:	f043 0301 	orreq.w	r3, r3, #1
 8003486:	3018      	adds	r0, #24
 8003488:	4282      	cmp	r2, r0
 800348a:	bf08      	it	eq
 800348c:	f043 0301 	orreq.w	r3, r3, #1
 8003490:	b913      	cbnz	r3, 8003498 <HAL_DMA_IRQHandler+0x41c>
 8003492:	4b32      	ldr	r3, [pc, #200]	; (800355c <HAL_DMA_IRQHandler+0x4e0>)
 8003494:	429a      	cmp	r2, r3
 8003496:	d19b      	bne.n	80033d0 <HAL_DMA_IRQHandler+0x354>
 8003498:	6813      	ldr	r3, [r2, #0]
 800349a:	f3c3 03c0 	ubfx	r3, r3, #3, #1
 800349e:	2b00      	cmp	r3, #0
 80034a0:	f000 8229 	beq.w	80038f6 <HAL_DMA_IRQHandler+0x87a>
 80034a4:	60b1      	str	r1, [r6, #8]
 80034a6:	6823      	ldr	r3, [r4, #0]
 80034a8:	681a      	ldr	r2, [r3, #0]
 80034aa:	f412 2f80 	tst.w	r2, #262144	; 0x40000
 80034ae:	d011      	beq.n	80034d4 <HAL_DMA_IRQHandler+0x458>
 80034b0:	681b      	ldr	r3, [r3, #0]
 80034b2:	f413 2f00 	tst.w	r3, #524288	; 0x80000
 80034b6:	d106      	bne.n	80034c6 <HAL_DMA_IRQHandler+0x44a>
 80034b8:	6c23      	ldr	r3, [r4, #64]	; 0x40
 80034ba:	2b00      	cmp	r3, #0
 80034bc:	f000 821b 	beq.w	80038f6 <HAL_DMA_IRQHandler+0x87a>
 80034c0:	4620      	mov	r0, r4
 80034c2:	4798      	blx	r3
 80034c4:	e217      	b.n	80038f6 <HAL_DMA_IRQHandler+0x87a>
 80034c6:	6ca3      	ldr	r3, [r4, #72]	; 0x48
 80034c8:	2b00      	cmp	r3, #0
 80034ca:	f000 8214 	beq.w	80038f6 <HAL_DMA_IRQHandler+0x87a>
 80034ce:	4620      	mov	r0, r4
 80034d0:	4798      	blx	r3
 80034d2:	e210      	b.n	80038f6 <HAL_DMA_IRQHandler+0x87a>
 80034d4:	681a      	ldr	r2, [r3, #0]
 80034d6:	f412 7f80 	tst.w	r2, #256	; 0x100
 80034da:	d103      	bne.n	80034e4 <HAL_DMA_IRQHandler+0x468>
 80034dc:	681a      	ldr	r2, [r3, #0]
 80034de:	f022 0208 	bic.w	r2, r2, #8
 80034e2:	601a      	str	r2, [r3, #0]
 80034e4:	6c23      	ldr	r3, [r4, #64]	; 0x40
 80034e6:	2b00      	cmp	r3, #0
 80034e8:	f000 8205 	beq.w	80038f6 <HAL_DMA_IRQHandler+0x87a>
 80034ec:	4620      	mov	r0, r4
 80034ee:	4798      	blx	r3
 80034f0:	e201      	b.n	80038f6 <HAL_DMA_IRQHandler+0x87a>
 80034f2:	680b      	ldr	r3, [r1, #0]
 80034f4:	f3c3 0340 	ubfx	r3, r3, #1, #1
 80034f8:	e259      	b.n	80039ae <HAL_DMA_IRQHandler+0x932>
 80034fa:	6822      	ldr	r2, [r4, #0]
 80034fc:	6813      	ldr	r3, [r2, #0]
 80034fe:	f023 0316 	bic.w	r3, r3, #22
 8003502:	6013      	str	r3, [r2, #0]
 8003504:	6822      	ldr	r2, [r4, #0]
 8003506:	6953      	ldr	r3, [r2, #20]
 8003508:	f023 0380 	bic.w	r3, r3, #128	; 0x80
 800350c:	6153      	str	r3, [r2, #20]
 800350e:	6c23      	ldr	r3, [r4, #64]	; 0x40
 8003510:	b1bb      	cbz	r3, 8003542 <HAL_DMA_IRQHandler+0x4c6>
 8003512:	6822      	ldr	r2, [r4, #0]
 8003514:	6813      	ldr	r3, [r2, #0]
 8003516:	f023 0308 	bic.w	r3, r3, #8
 800351a:	6013      	str	r3, [r2, #0]
 800351c:	6de3      	ldr	r3, [r4, #92]	; 0x5c
 800351e:	f003 021f 	and.w	r2, r3, #31
 8003522:	233f      	movs	r3, #63	; 0x3f
 8003524:	4093      	lsls	r3, r2
 8003526:	60b3      	str	r3, [r6, #8]
 8003528:	2300      	movs	r3, #0
 800352a:	f884 3034 	strb.w	r3, [r4, #52]	; 0x34
 800352e:	2301      	movs	r3, #1
 8003530:	f884 3035 	strb.w	r3, [r4, #53]	; 0x35
 8003534:	6d23      	ldr	r3, [r4, #80]	; 0x50
 8003536:	2b00      	cmp	r3, #0
 8003538:	f000 809f 	beq.w	800367a <HAL_DMA_IRQHandler+0x5fe>
 800353c:	4620      	mov	r0, r4
 800353e:	4798      	blx	r3
 8003540:	e09b      	b.n	800367a <HAL_DMA_IRQHandler+0x5fe>
 8003542:	6ca3      	ldr	r3, [r4, #72]	; 0x48
 8003544:	2b00      	cmp	r3, #0
 8003546:	d1e4      	bne.n	8003512 <HAL_DMA_IRQHandler+0x496>
 8003548:	e7e8      	b.n	800351c <HAL_DMA_IRQHandler+0x4a0>
 800354a:	6be3      	ldr	r3, [r4, #60]	; 0x3c
 800354c:	b1d3      	cbz	r3, 8003584 <HAL_DMA_IRQHandler+0x508>
 800354e:	4620      	mov	r0, r4
 8003550:	4798      	blx	r3
 8003552:	e017      	b.n	8003584 <HAL_DMA_IRQHandler+0x508>
 8003554:	40020010 	.word	0x40020010
 8003558:	40020028 	.word	0x40020028
 800355c:	400204b8 	.word	0x400204b8
 8003560:	681a      	ldr	r2, [r3, #0]
 8003562:	f412 7f80 	tst.w	r2, #256	; 0x100
 8003566:	d109      	bne.n	800357c <HAL_DMA_IRQHandler+0x500>
 8003568:	681a      	ldr	r2, [r3, #0]
 800356a:	f022 0210 	bic.w	r2, r2, #16
 800356e:	601a      	str	r2, [r3, #0]
 8003570:	2300      	movs	r3, #0
 8003572:	f884 3034 	strb.w	r3, [r4, #52]	; 0x34
 8003576:	2301      	movs	r3, #1
 8003578:	f884 3035 	strb.w	r3, [r4, #53]	; 0x35
 800357c:	6be3      	ldr	r3, [r4, #60]	; 0x3c
 800357e:	b10b      	cbz	r3, 8003584 <HAL_DMA_IRQHandler+0x508>
 8003580:	4620      	mov	r0, r4
 8003582:	4798      	blx	r3
 8003584:	6d63      	ldr	r3, [r4, #84]	; 0x54
 8003586:	2b00      	cmp	r3, #0
 8003588:	d077      	beq.n	800367a <HAL_DMA_IRQHandler+0x5fe>
 800358a:	6d63      	ldr	r3, [r4, #84]	; 0x54
 800358c:	f013 0f01 	tst.w	r3, #1
 8003590:	d06f      	beq.n	8003672 <HAL_DMA_IRQHandler+0x5f6>
 8003592:	2304      	movs	r3, #4
 8003594:	f884 3035 	strb.w	r3, [r4, #53]	; 0x35
 8003598:	6822      	ldr	r2, [r4, #0]
 800359a:	4b7e      	ldr	r3, [pc, #504]	; (8003794 <HAL_DMA_IRQHandler+0x718>)
 800359c:	497e      	ldr	r1, [pc, #504]	; (8003798 <HAL_DMA_IRQHandler+0x71c>)
 800359e:	428a      	cmp	r2, r1
 80035a0:	bf18      	it	ne
 80035a2:	429a      	cmpne	r2, r3
 80035a4:	bf0c      	ite	eq
 80035a6:	2301      	moveq	r3, #1
 80035a8:	2300      	movne	r3, #0
 80035aa:	3118      	adds	r1, #24
 80035ac:	428a      	cmp	r2, r1
 80035ae:	bf08      	it	eq
 80035b0:	f043 0301 	orreq.w	r3, r3, #1
 80035b4:	3118      	adds	r1, #24
 80035b6:	428a      	cmp	r2, r1
 80035b8:	bf08      	it	eq
 80035ba:	f043 0301 	orreq.w	r3, r3, #1
 80035be:	3118      	adds	r1, #24
 80035c0:	428a      	cmp	r2, r1
 80035c2:	bf08      	it	eq
 80035c4:	f043 0301 	orreq.w	r3, r3, #1
 80035c8:	3118      	adds	r1, #24
 80035ca:	428a      	cmp	r2, r1
 80035cc:	bf08      	it	eq
 80035ce:	f043 0301 	orreq.w	r3, r3, #1
 80035d2:	3118      	adds	r1, #24
 80035d4:	428a      	cmp	r2, r1
 80035d6:	bf08      	it	eq
 80035d8:	f043 0301 	orreq.w	r3, r3, #1
 80035dc:	3118      	adds	r1, #24
 80035de:	428a      	cmp	r2, r1
 80035e0:	bf08      	it	eq
 80035e2:	f043 0301 	orreq.w	r3, r3, #1
 80035e6:	f501 7156 	add.w	r1, r1, #856	; 0x358
 80035ea:	428a      	cmp	r2, r1
 80035ec:	bf08      	it	eq
 80035ee:	f043 0301 	orreq.w	r3, r3, #1
 80035f2:	3118      	adds	r1, #24
 80035f4:	428a      	cmp	r2, r1
 80035f6:	bf08      	it	eq
 80035f8:	f043 0301 	orreq.w	r3, r3, #1
 80035fc:	3118      	adds	r1, #24
 80035fe:	428a      	cmp	r2, r1
 8003600:	bf08      	it	eq
 8003602:	f043 0301 	orreq.w	r3, r3, #1
 8003606:	3118      	adds	r1, #24
 8003608:	428a      	cmp	r2, r1
 800360a:	bf08      	it	eq
 800360c:	f043 0301 	orreq.w	r3, r3, #1
 8003610:	3118      	adds	r1, #24
 8003612:	428a      	cmp	r2, r1
 8003614:	bf08      	it	eq
 8003616:	f043 0301 	orreq.w	r3, r3, #1
 800361a:	3118      	adds	r1, #24
 800361c:	428a      	cmp	r2, r1
 800361e:	bf08      	it	eq
 8003620:	f043 0301 	orreq.w	r3, r3, #1
 8003624:	3118      	adds	r1, #24
 8003626:	428a      	cmp	r2, r1
 8003628:	bf08      	it	eq
 800362a:	f043 0301 	orreq.w	r3, r3, #1
 800362e:	b913      	cbnz	r3, 8003636 <HAL_DMA_IRQHandler+0x5ba>
 8003630:	4b5a      	ldr	r3, [pc, #360]	; (800379c <HAL_DMA_IRQHandler+0x720>)
 8003632:	429a      	cmp	r2, r3
 8003634:	d123      	bne.n	800367e <HAL_DMA_IRQHandler+0x602>
 8003636:	6813      	ldr	r3, [r2, #0]
 8003638:	f023 0301 	bic.w	r3, r3, #1
 800363c:	6013      	str	r3, [r2, #0]
 800363e:	4b58      	ldr	r3, [pc, #352]	; (80037a0 <HAL_DMA_IRQHandler+0x724>)
 8003640:	fba3 3707 	umull	r3, r7, r3, r7
 8003644:	0abf      	lsrs	r7, r7, #10
 8003646:	9b01      	ldr	r3, [sp, #4]
 8003648:	3301      	adds	r3, #1
 800364a:	9301      	str	r3, [sp, #4]
 800364c:	42bb      	cmp	r3, r7
 800364e:	d804      	bhi.n	800365a <HAL_DMA_IRQHandler+0x5de>
 8003650:	6823      	ldr	r3, [r4, #0]
 8003652:	681b      	ldr	r3, [r3, #0]
 8003654:	f013 0f01 	tst.w	r3, #1
 8003658:	d1f5      	bne.n	8003646 <HAL_DMA_IRQHandler+0x5ca>
 800365a:	2300      	movs	r3, #0
 800365c:	f884 3034 	strb.w	r3, [r4, #52]	; 0x34
 8003660:	6823      	ldr	r3, [r4, #0]
 8003662:	681b      	ldr	r3, [r3, #0]
 8003664:	f013 0f01 	tst.w	r3, #1
 8003668:	bf14      	ite	ne
 800366a:	2303      	movne	r3, #3
 800366c:	2301      	moveq	r3, #1
 800366e:	f884 3035 	strb.w	r3, [r4, #53]	; 0x35
 8003672:	6ce3      	ldr	r3, [r4, #76]	; 0x4c
 8003674:	b10b      	cbz	r3, 800367a <HAL_DMA_IRQHandler+0x5fe>
 8003676:	4620      	mov	r0, r4
 8003678:	4798      	blx	r3
 800367a:	b003      	add	sp, #12
 800367c:	bdf0      	pop	{r4, r5, r6, r7, pc}
 800367e:	6813      	ldr	r3, [r2, #0]
 8003680:	f023 0301 	bic.w	r3, r3, #1
 8003684:	6013      	str	r3, [r2, #0]
 8003686:	e7da      	b.n	800363e <HAL_DMA_IRQHandler+0x5c2>
 8003688:	6c23      	ldr	r3, [r4, #64]	; 0x40
 800368a:	2b00      	cmp	r3, #0
 800368c:	d0f5      	beq.n	800367a <HAL_DMA_IRQHandler+0x5fe>
 800368e:	4620      	mov	r0, r4
 8003690:	4798      	blx	r3
 8003692:	e7f2      	b.n	800367a <HAL_DMA_IRQHandler+0x5fe>
 8003694:	f013 0f20 	tst.w	r3, #32
 8003698:	d152      	bne.n	8003740 <HAL_DMA_IRQHandler+0x6c4>
 800369a:	6822      	ldr	r2, [r4, #0]
 800369c:	4b3d      	ldr	r3, [pc, #244]	; (8003794 <HAL_DMA_IRQHandler+0x718>)
 800369e:	493e      	ldr	r1, [pc, #248]	; (8003798 <HAL_DMA_IRQHandler+0x71c>)
 80036a0:	428a      	cmp	r2, r1
 80036a2:	bf18      	it	ne
 80036a4:	429a      	cmpne	r2, r3
 80036a6:	bf0c      	ite	eq
 80036a8:	2301      	moveq	r3, #1
 80036aa:	2300      	movne	r3, #0
 80036ac:	3118      	adds	r1, #24
 80036ae:	428a      	cmp	r2, r1
 80036b0:	bf08      	it	eq
 80036b2:	f043 0301 	orreq.w	r3, r3, #1
 80036b6:	3118      	adds	r1, #24
 80036b8:	428a      	cmp	r2, r1
 80036ba:	bf08      	it	eq
 80036bc:	f043 0301 	orreq.w	r3, r3, #1
 80036c0:	3118      	adds	r1, #24
 80036c2:	428a      	cmp	r2, r1
 80036c4:	bf08      	it	eq
 80036c6:	f043 0301 	orreq.w	r3, r3, #1
 80036ca:	3118      	adds	r1, #24
 80036cc:	428a      	cmp	r2, r1
 80036ce:	bf08      	it	eq
 80036d0:	f043 0301 	orreq.w	r3, r3, #1
 80036d4:	3118      	adds	r1, #24
 80036d6:	428a      	cmp	r2, r1
 80036d8:	bf08      	it	eq
 80036da:	f043 0301 	orreq.w	r3, r3, #1
 80036de:	3118      	adds	r1, #24
 80036e0:	428a      	cmp	r2, r1
 80036e2:	bf08      	it	eq
 80036e4:	f043 0301 	orreq.w	r3, r3, #1
 80036e8:	f501 7156 	add.w	r1, r1, #856	; 0x358
 80036ec:	428a      	cmp	r2, r1
 80036ee:	bf08      	it	eq
 80036f0:	f043 0301 	orreq.w	r3, r3, #1
 80036f4:	3118      	adds	r1, #24
 80036f6:	428a      	cmp	r2, r1
 80036f8:	bf08      	it	eq
 80036fa:	f043 0301 	orreq.w	r3, r3, #1
 80036fe:	3118      	adds	r1, #24
 8003700:	428a      	cmp	r2, r1
 8003702:	bf08      	it	eq
 8003704:	f043 0301 	orreq.w	r3, r3, #1
 8003708:	3118      	adds	r1, #24
 800370a:	428a      	cmp	r2, r1
 800370c:	bf08      	it	eq
 800370e:	f043 0301 	orreq.w	r3, r3, #1
 8003712:	3118      	adds	r1, #24
 8003714:	428a      	cmp	r2, r1
 8003716:	bf08      	it	eq
 8003718:	f043 0301 	orreq.w	r3, r3, #1
 800371c:	3118      	adds	r1, #24
 800371e:	428a      	cmp	r2, r1
 8003720:	bf08      	it	eq
 8003722:	f043 0301 	orreq.w	r3, r3, #1
 8003726:	3118      	adds	r1, #24
 8003728:	428a      	cmp	r2, r1
 800372a:	bf08      	it	eq
 800372c:	f043 0301 	orreq.w	r3, r3, #1
 8003730:	b913      	cbnz	r3, 8003738 <HAL_DMA_IRQHandler+0x6bc>
 8003732:	4b1a      	ldr	r3, [pc, #104]	; (800379c <HAL_DMA_IRQHandler+0x720>)
 8003734:	429a      	cmp	r2, r3
 8003736:	d109      	bne.n	800374c <HAL_DMA_IRQHandler+0x6d0>
 8003738:	6813      	ldr	r3, [r2, #0]
 800373a:	f023 0308 	bic.w	r3, r3, #8
 800373e:	6013      	str	r3, [r2, #0]
 8003740:	6c23      	ldr	r3, [r4, #64]	; 0x40
 8003742:	2b00      	cmp	r3, #0
 8003744:	d099      	beq.n	800367a <HAL_DMA_IRQHandler+0x5fe>
 8003746:	4620      	mov	r0, r4
 8003748:	4798      	blx	r3
 800374a:	e796      	b.n	800367a <HAL_DMA_IRQHandler+0x5fe>
 800374c:	6813      	ldr	r3, [r2, #0]
 800374e:	f023 0304 	bic.w	r3, r3, #4
 8003752:	6013      	str	r3, [r2, #0]
 8003754:	e7f4      	b.n	8003740 <HAL_DMA_IRQHandler+0x6c4>
 8003756:	2502      	movs	r5, #2
 8003758:	4085      	lsls	r5, r0
 800375a:	420d      	tst	r5, r1
 800375c:	f000 808a 	beq.w	8003874 <HAL_DMA_IRQHandler+0x7f8>
 8003760:	f013 0f02 	tst.w	r3, #2
 8003764:	f000 8086 	beq.w	8003874 <HAL_DMA_IRQHandler+0x7f8>
 8003768:	6075      	str	r5, [r6, #4]
 800376a:	f413 4f00 	tst.w	r3, #32768	; 0x8000
 800376e:	d019      	beq.n	80037a4 <HAL_DMA_IRQHandler+0x728>
 8003770:	f413 3f80 	tst.w	r3, #65536	; 0x10000
 8003774:	d106      	bne.n	8003784 <HAL_DMA_IRQHandler+0x708>
 8003776:	6c63      	ldr	r3, [r4, #68]	; 0x44
 8003778:	2b00      	cmp	r3, #0
 800377a:	f43f af7e 	beq.w	800367a <HAL_DMA_IRQHandler+0x5fe>
 800377e:	4620      	mov	r0, r4
 8003780:	4798      	blx	r3
 8003782:	e77a      	b.n	800367a <HAL_DMA_IRQHandler+0x5fe>
 8003784:	6be3      	ldr	r3, [r4, #60]	; 0x3c
 8003786:	2b00      	cmp	r3, #0
 8003788:	f43f af77 	beq.w	800367a <HAL_DMA_IRQHandler+0x5fe>
 800378c:	4620      	mov	r0, r4
 800378e:	4798      	blx	r3
 8003790:	e773      	b.n	800367a <HAL_DMA_IRQHandler+0x5fe>
 8003792:	bf00      	nop
 8003794:	40020010 	.word	0x40020010
 8003798:	40020028 	.word	0x40020028
 800379c:	400204b8 	.word	0x400204b8
 80037a0:	1b4e81b5 	.word	0x1b4e81b5
 80037a4:	f013 0f20 	tst.w	r3, #32
 80037a8:	d158      	bne.n	800385c <HAL_DMA_IRQHandler+0x7e0>
 80037aa:	6822      	ldr	r2, [r4, #0]
 80037ac:	4b8e      	ldr	r3, [pc, #568]	; (80039e8 <HAL_DMA_IRQHandler+0x96c>)
 80037ae:	498f      	ldr	r1, [pc, #572]	; (80039ec <HAL_DMA_IRQHandler+0x970>)
 80037b0:	428a      	cmp	r2, r1
 80037b2:	bf18      	it	ne
 80037b4:	429a      	cmpne	r2, r3
 80037b6:	bf0c      	ite	eq
 80037b8:	2301      	moveq	r3, #1
 80037ba:	2300      	movne	r3, #0
 80037bc:	3118      	adds	r1, #24
 80037be:	428a      	cmp	r2, r1
 80037c0:	bf08      	it	eq
 80037c2:	f043 0301 	orreq.w	r3, r3, #1
 80037c6:	3118      	adds	r1, #24
 80037c8:	428a      	cmp	r2, r1
 80037ca:	bf08      	it	eq
 80037cc:	f043 0301 	orreq.w	r3, r3, #1
 80037d0:	3118      	adds	r1, #24
 80037d2:	428a      	cmp	r2, r1
 80037d4:	bf08      	it	eq
 80037d6:	f043 0301 	orreq.w	r3, r3, #1
 80037da:	3118      	adds	r1, #24
 80037dc:	428a      	cmp	r2, r1
 80037de:	bf08      	it	eq
 80037e0:	f043 0301 	orreq.w	r3, r3, #1
 80037e4:	3118      	adds	r1, #24
 80037e6:	428a      	cmp	r2, r1
 80037e8:	bf08      	it	eq
 80037ea:	f043 0301 	orreq.w	r3, r3, #1
 80037ee:	3118      	adds	r1, #24
 80037f0:	428a      	cmp	r2, r1
 80037f2:	bf08      	it	eq
 80037f4:	f043 0301 	orreq.w	r3, r3, #1
 80037f8:	f501 7156 	add.w	r1, r1, #856	; 0x358
 80037fc:	428a      	cmp	r2, r1
 80037fe:	bf08      	it	eq
 8003800:	f043 0301 	orreq.w	r3, r3, #1
 8003804:	3118      	adds	r1, #24
 8003806:	428a      	cmp	r2, r1
 8003808:	bf08      	it	eq
 800380a:	f043 0301 	orreq.w	r3, r3, #1
 800380e:	3118      	adds	r1, #24
 8003810:	428a      	cmp	r2, r1
 8003812:	bf08      	it	eq
 8003814:	f043 0301 	orreq.w	r3, r3, #1
 8003818:	3118      	adds	r1, #24
 800381a:	428a      	cmp	r2, r1
 800381c:	bf08      	it	eq
 800381e:	f043 0301 	orreq.w	r3, r3, #1
 8003822:	3118      	adds	r1, #24
 8003824:	428a      	cmp	r2, r1
 8003826:	bf08      	it	eq
 8003828:	f043 0301 	orreq.w	r3, r3, #1
 800382c:	3118      	adds	r1, #24
 800382e:	428a      	cmp	r2, r1
 8003830:	bf08      	it	eq
 8003832:	f043 0301 	orreq.w	r3, r3, #1
 8003836:	3118      	adds	r1, #24
 8003838:	428a      	cmp	r2, r1
 800383a:	bf08      	it	eq
 800383c:	f043 0301 	orreq.w	r3, r3, #1
 8003840:	b913      	cbnz	r3, 8003848 <HAL_DMA_IRQHandler+0x7cc>
 8003842:	4b6b      	ldr	r3, [pc, #428]	; (80039f0 <HAL_DMA_IRQHandler+0x974>)
 8003844:	429a      	cmp	r2, r3
 8003846:	d110      	bne.n	800386a <HAL_DMA_IRQHandler+0x7ee>
 8003848:	6813      	ldr	r3, [r2, #0]
 800384a:	f023 0314 	bic.w	r3, r3, #20
 800384e:	6013      	str	r3, [r2, #0]
 8003850:	2300      	movs	r3, #0
 8003852:	f884 3034 	strb.w	r3, [r4, #52]	; 0x34
 8003856:	2301      	movs	r3, #1
 8003858:	f884 3035 	strb.w	r3, [r4, #53]	; 0x35
 800385c:	6be3      	ldr	r3, [r4, #60]	; 0x3c
 800385e:	2b00      	cmp	r3, #0
 8003860:	f43f af0b 	beq.w	800367a <HAL_DMA_IRQHandler+0x5fe>
 8003864:	4620      	mov	r0, r4
 8003866:	4798      	blx	r3
 8003868:	e707      	b.n	800367a <HAL_DMA_IRQHandler+0x5fe>
 800386a:	6813      	ldr	r3, [r2, #0]
 800386c:	f023 030a 	bic.w	r3, r3, #10
 8003870:	6013      	str	r3, [r2, #0]
 8003872:	e7ed      	b.n	8003850 <HAL_DMA_IRQHandler+0x7d4>
 8003874:	2508      	movs	r5, #8
 8003876:	fa05 f000 	lsl.w	r0, r5, r0
 800387a:	4208      	tst	r0, r1
 800387c:	f43f aefd 	beq.w	800367a <HAL_DMA_IRQHandler+0x5fe>
 8003880:	f013 0f08 	tst.w	r3, #8
 8003884:	f43f aef9 	beq.w	800367a <HAL_DMA_IRQHandler+0x5fe>
 8003888:	6813      	ldr	r3, [r2, #0]
 800388a:	f023 030e 	bic.w	r3, r3, #14
 800388e:	6013      	str	r3, [r2, #0]
 8003890:	6de3      	ldr	r3, [r4, #92]	; 0x5c
 8003892:	f003 031f 	and.w	r3, r3, #31
 8003896:	2201      	movs	r2, #1
 8003898:	fa02 f303 	lsl.w	r3, r2, r3
 800389c:	6073      	str	r3, [r6, #4]
 800389e:	6562      	str	r2, [r4, #84]	; 0x54
 80038a0:	2300      	movs	r3, #0
 80038a2:	f884 3034 	strb.w	r3, [r4, #52]	; 0x34
 80038a6:	f884 2035 	strb.w	r2, [r4, #53]	; 0x35
 80038aa:	6ce3      	ldr	r3, [r4, #76]	; 0x4c
 80038ac:	2b00      	cmp	r3, #0
 80038ae:	f43f aee4 	beq.w	800367a <HAL_DMA_IRQHandler+0x5fe>
 80038b2:	4620      	mov	r0, r4
 80038b4:	4798      	blx	r3
 80038b6:	e6e0      	b.n	800367a <HAL_DMA_IRQHandler+0x5fe>
 80038b8:	6822      	ldr	r2, [r4, #0]
 80038ba:	e5ed      	b.n	8003498 <HAL_DMA_IRQHandler+0x41c>
 80038bc:	fa25 f103 	lsr.w	r1, r5, r3
 80038c0:	f011 0f01 	tst.w	r1, #1
 80038c4:	f47f aca7 	bne.w	8003216 <HAL_DMA_IRQHandler+0x19a>
 80038c8:	6de1      	ldr	r1, [r4, #92]	; 0x5c
 80038ca:	f001 011f 	and.w	r1, r1, #31
 80038ce:	2304      	movs	r3, #4
 80038d0:	fa03 f101 	lsl.w	r1, r3, r1
 80038d4:	420d      	tst	r5, r1
 80038d6:	f43f ad84 	beq.w	80033e2 <HAL_DMA_IRQHandler+0x366>
 80038da:	6822      	ldr	r2, [r4, #0]
 80038dc:	6813      	ldr	r3, [r2, #0]
 80038de:	f013 0f02 	tst.w	r3, #2
 80038e2:	f47f ad79 	bne.w	80033d8 <HAL_DMA_IRQHandler+0x35c>
 80038e6:	6de1      	ldr	r1, [r4, #92]	; 0x5c
 80038e8:	f001 011f 	and.w	r1, r1, #31
 80038ec:	2310      	movs	r3, #16
 80038ee:	fa03 f101 	lsl.w	r1, r3, r1
 80038f2:	420d      	tst	r5, r1
 80038f4:	d1e0      	bne.n	80038b8 <HAL_DMA_IRQHandler+0x83c>
 80038f6:	6de2      	ldr	r2, [r4, #92]	; 0x5c
 80038f8:	f002 021f 	and.w	r2, r2, #31
 80038fc:	2320      	movs	r3, #32
 80038fe:	fa03 f202 	lsl.w	r2, r3, r2
 8003902:	422a      	tst	r2, r5
 8003904:	f43f ae3e 	beq.w	8003584 <HAL_DMA_IRQHandler+0x508>
 8003908:	6821      	ldr	r1, [r4, #0]
 800390a:	4b37      	ldr	r3, [pc, #220]	; (80039e8 <HAL_DMA_IRQHandler+0x96c>)
 800390c:	4837      	ldr	r0, [pc, #220]	; (80039ec <HAL_DMA_IRQHandler+0x970>)
 800390e:	4281      	cmp	r1, r0
 8003910:	bf18      	it	ne
 8003912:	4299      	cmpne	r1, r3
 8003914:	bf0c      	ite	eq
 8003916:	2301      	moveq	r3, #1
 8003918:	2300      	movne	r3, #0
 800391a:	3018      	adds	r0, #24
 800391c:	4281      	cmp	r1, r0
 800391e:	bf08      	it	eq
 8003920:	f043 0301 	orreq.w	r3, r3, #1
 8003924:	3018      	adds	r0, #24
 8003926:	4281      	cmp	r1, r0
 8003928:	bf08      	it	eq
 800392a:	f043 0301 	orreq.w	r3, r3, #1
 800392e:	3018      	adds	r0, #24
 8003930:	4281      	cmp	r1, r0
 8003932:	bf08      	it	eq
 8003934:	f043 0301 	orreq.w	r3, r3, #1
 8003938:	3018      	adds	r0, #24
 800393a:	4281      	cmp	r1, r0
 800393c:	bf08      	it	eq
 800393e:	f043 0301 	orreq.w	r3, r3, #1
 8003942:	3018      	adds	r0, #24
 8003944:	4281      	cmp	r1, r0
 8003946:	bf08      	it	eq
 8003948:	f043 0301 	orreq.w	r3, r3, #1
 800394c:	3018      	adds	r0, #24
 800394e:	4281      	cmp	r1, r0
 8003950:	bf08      	it	eq
 8003952:	f043 0301 	orreq.w	r3, r3, #1
 8003956:	f500 7056 	add.w	r0, r0, #856	; 0x358
 800395a:	4281      	cmp	r1, r0
 800395c:	bf08      	it	eq
 800395e:	f043 0301 	orreq.w	r3, r3, #1
 8003962:	3018      	adds	r0, #24
 8003964:	4281      	cmp	r1, r0
 8003966:	bf08      	it	eq
 8003968:	f043 0301 	orreq.w	r3, r3, #1
 800396c:	3018      	adds	r0, #24
 800396e:	4281      	cmp	r1, r0
 8003970:	bf08      	it	eq
 8003972:	f043 0301 	orreq.w	r3, r3, #1
 8003976:	3018      	adds	r0, #24
 8003978:	4281      	cmp	r1, r0
 800397a:	bf08      	it	eq
 800397c:	f043 0301 	orreq.w	r3, r3, #1
 8003980:	3018      	adds	r0, #24
 8003982:	4281      	cmp	r1, r0
 8003984:	bf08      	it	eq
 8003986:	f043 0301 	orreq.w	r3, r3, #1
 800398a:	3018      	adds	r0, #24
 800398c:	4281      	cmp	r1, r0
 800398e:	bf08      	it	eq
 8003990:	f043 0301 	orreq.w	r3, r3, #1
 8003994:	3018      	adds	r0, #24
 8003996:	4281      	cmp	r1, r0
 8003998:	bf08      	it	eq
 800399a:	f043 0301 	orreq.w	r3, r3, #1
 800399e:	b91b      	cbnz	r3, 80039a8 <HAL_DMA_IRQHandler+0x92c>
 80039a0:	4b13      	ldr	r3, [pc, #76]	; (80039f0 <HAL_DMA_IRQHandler+0x974>)
 80039a2:	4299      	cmp	r1, r3
 80039a4:	f47f ada5 	bne.w	80034f2 <HAL_DMA_IRQHandler+0x476>
 80039a8:	680b      	ldr	r3, [r1, #0]
 80039aa:	f3c3 1300 	ubfx	r3, r3, #4, #1
 80039ae:	2b00      	cmp	r3, #0
 80039b0:	f43f ade8 	beq.w	8003584 <HAL_DMA_IRQHandler+0x508>
 80039b4:	60b2      	str	r2, [r6, #8]
 80039b6:	f894 3035 	ldrb.w	r3, [r4, #53]	; 0x35
 80039ba:	b2db      	uxtb	r3, r3
 80039bc:	2b04      	cmp	r3, #4
 80039be:	f43f ad9c 	beq.w	80034fa <HAL_DMA_IRQHandler+0x47e>
 80039c2:	6823      	ldr	r3, [r4, #0]
 80039c4:	681a      	ldr	r2, [r3, #0]
 80039c6:	f412 2f80 	tst.w	r2, #262144	; 0x40000
 80039ca:	f43f adc9 	beq.w	8003560 <HAL_DMA_IRQHandler+0x4e4>
 80039ce:	681b      	ldr	r3, [r3, #0]
 80039d0:	f413 2f00 	tst.w	r3, #524288	; 0x80000
 80039d4:	f47f adb9 	bne.w	800354a <HAL_DMA_IRQHandler+0x4ce>
 80039d8:	6c63      	ldr	r3, [r4, #68]	; 0x44
 80039da:	2b00      	cmp	r3, #0
 80039dc:	f43f add2 	beq.w	8003584 <HAL_DMA_IRQHandler+0x508>
 80039e0:	4620      	mov	r0, r4
 80039e2:	4798      	blx	r3
 80039e4:	e5ce      	b.n	8003584 <HAL_DMA_IRQHandler+0x508>
 80039e6:	bf00      	nop
 80039e8:	40020010 	.word	0x40020010
 80039ec:	40020028 	.word	0x40020028
 80039f0:	400204b8 	.word	0x400204b8

080039f4 <HAL_EXTI_RegisterCallback>:
 80039f4:	b919      	cbnz	r1, 80039fe <HAL_EXTI_RegisterCallback+0xa>
 80039f6:	b110      	cbz	r0, 80039fe <HAL_EXTI_RegisterCallback+0xa>
 80039f8:	6042      	str	r2, [r0, #4]
 80039fa:	2000      	movs	r0, #0
 80039fc:	4770      	bx	lr
 80039fe:	2001      	movs	r0, #1
 8003a00:	4770      	bx	lr

08003a02 <HAL_EXTI_GetHandle>:
 8003a02:	b110      	cbz	r0, 8003a0a <HAL_EXTI_GetHandle+0x8>
 8003a04:	6001      	str	r1, [r0, #0]
 8003a06:	2000      	movs	r0, #0
 8003a08:	4770      	bx	lr
 8003a0a:	2001      	movs	r0, #1
 8003a0c:	4770      	bx	lr
	...

08003a10 <HAL_GPIO_Init>:
 8003a10:	680a      	ldr	r2, [r1, #0]
 8003a12:	2a00      	cmp	r2, #0
 8003a14:	f000 80f5 	beq.w	8003c02 <HAL_GPIO_Init+0x1f2>
 8003a18:	e92d 4ff0 	stmdb	sp!, {r4, r5, r6, r7, r8, r9, sl, fp, lr}
 8003a1c:	b083      	sub	sp, #12
 8003a1e:	2300      	movs	r3, #0
 8003a20:	4f78      	ldr	r7, [pc, #480]	; (8003c04 <HAL_GPIO_Init+0x1f4>)
 8003a22:	f8df c1ec 	ldr.w	ip, [pc, #492]	; 8003c10 <HAL_GPIO_Init+0x200>
 8003a26:	f8df e1ec 	ldr.w	lr, [pc, #492]	; 8003c14 <HAL_GPIO_Init+0x204>
 8003a2a:	4e77      	ldr	r6, [pc, #476]	; (8003c08 <HAL_GPIO_Init+0x1f8>)
 8003a2c:	e038      	b.n	8003aa0 <HAL_GPIO_Init+0x90>
 8003a2e:	2400      	movs	r4, #0
 8003a30:	fa04 f409 	lsl.w	r4, r4, r9
 8003a34:	ea44 040a 	orr.w	r4, r4, sl
 8003a38:	f8c8 4008 	str.w	r4, [r8, #8]
 8003a3c:	6834      	ldr	r4, [r6, #0]
 8003a3e:	ea6f 0802 	mvn.w	r8, r2
 8003a42:	684d      	ldr	r5, [r1, #4]
 8003a44:	f415 3f80 	tst.w	r5, #65536	; 0x10000
 8003a48:	bf0c      	ite	eq
 8003a4a:	ea08 0404 	andeq.w	r4, r8, r4
 8003a4e:	4314      	orrne	r4, r2
 8003a50:	6034      	str	r4, [r6, #0]
 8003a52:	6874      	ldr	r4, [r6, #4]
 8003a54:	684d      	ldr	r5, [r1, #4]
 8003a56:	f415 3f00 	tst.w	r5, #131072	; 0x20000
 8003a5a:	bf0c      	ite	eq
 8003a5c:	ea08 0404 	andeq.w	r4, r8, r4
 8003a60:	4314      	orrne	r4, r2
 8003a62:	6074      	str	r4, [r6, #4]
 8003a64:	f04f 44b0 	mov.w	r4, #1476395008	; 0x58000000
 8003a68:	6824      	ldr	r4, [r4, #0]
 8003a6a:	684d      	ldr	r5, [r1, #4]
 8003a6c:	f415 1f80 	tst.w	r5, #1048576	; 0x100000
 8003a70:	bf0c      	ite	eq
 8003a72:	ea08 0404 	andeq.w	r4, r8, r4
 8003a76:	4314      	orrne	r4, r2
 8003a78:	f04f 45b0 	mov.w	r5, #1476395008	; 0x58000000
 8003a7c:	602c      	str	r4, [r5, #0]
 8003a7e:	686c      	ldr	r4, [r5, #4]
 8003a80:	684d      	ldr	r5, [r1, #4]
 8003a82:	f415 1f00 	tst.w	r5, #2097152	; 0x200000
 8003a86:	bf0c      	ite	eq
 8003a88:	ea08 0204 	andeq.w	r2, r8, r4
 8003a8c:	4322      	orrne	r2, r4
 8003a8e:	f04f 44b0 	mov.w	r4, #1476395008	; 0x58000000
 8003a92:	6062      	str	r2, [r4, #4]
 8003a94:	3301      	adds	r3, #1
 8003a96:	680a      	ldr	r2, [r1, #0]
 8003a98:	fa32 f403 	lsrs.w	r4, r2, r3
 8003a9c:	f000 80ae 	beq.w	8003bfc <HAL_GPIO_Init+0x1ec>
 8003aa0:	2401      	movs	r4, #1
 8003aa2:	409c      	lsls	r4, r3
 8003aa4:	4022      	ands	r2, r4
 8003aa6:	d0f5      	beq.n	8003a94 <HAL_GPIO_Init+0x84>
 8003aa8:	684d      	ldr	r5, [r1, #4]
 8003aaa:	f025 0510 	bic.w	r5, r5, #16
 8003aae:	3d01      	subs	r5, #1
 8003ab0:	2d01      	cmp	r5, #1
 8003ab2:	d818      	bhi.n	8003ae6 <HAL_GPIO_Init+0xd6>
 8003ab4:	6885      	ldr	r5, [r0, #8]
 8003ab6:	ea4f 0943 	mov.w	r9, r3, lsl #1
 8003aba:	f04f 0803 	mov.w	r8, #3
 8003abe:	fa08 f809 	lsl.w	r8, r8, r9
 8003ac2:	ea25 0808 	bic.w	r8, r5, r8
 8003ac6:	68cd      	ldr	r5, [r1, #12]
 8003ac8:	fa05 f509 	lsl.w	r5, r5, r9
 8003acc:	ea45 0508 	orr.w	r5, r5, r8
 8003ad0:	6085      	str	r5, [r0, #8]
 8003ad2:	6845      	ldr	r5, [r0, #4]
 8003ad4:	ea25 0804 	bic.w	r8, r5, r4
 8003ad8:	684d      	ldr	r5, [r1, #4]
 8003ada:	f3c5 1400 	ubfx	r4, r5, #4, #1
 8003ade:	409c      	lsls	r4, r3
 8003ae0:	ea44 0408 	orr.w	r4, r4, r8
 8003ae4:	6044      	str	r4, [r0, #4]
 8003ae6:	f8d0 900c 	ldr.w	r9, [r0, #12]
 8003aea:	ea4f 0843 	mov.w	r8, r3, lsl #1
 8003aee:	2503      	movs	r5, #3
 8003af0:	fa05 f508 	lsl.w	r5, r5, r8
 8003af4:	43ec      	mvns	r4, r5
 8003af6:	ea29 0905 	bic.w	r9, r9, r5
 8003afa:	688d      	ldr	r5, [r1, #8]
 8003afc:	fa05 f508 	lsl.w	r5, r5, r8
 8003b00:	ea45 0509 	orr.w	r5, r5, r9
 8003b04:	60c5      	str	r5, [r0, #12]
 8003b06:	684d      	ldr	r5, [r1, #4]
 8003b08:	f025 0510 	bic.w	r5, r5, #16
 8003b0c:	2d02      	cmp	r5, #2
 8003b0e:	d115      	bne.n	8003b3c <HAL_GPIO_Init+0x12c>
 8003b10:	ea4f 09d3 	mov.w	r9, r3, lsr #3
 8003b14:	eb00 0989 	add.w	r9, r0, r9, lsl #2
 8003b18:	f8d9 a020 	ldr.w	sl, [r9, #32]
 8003b1c:	f003 0507 	and.w	r5, r3, #7
 8003b20:	ea4f 0b85 	mov.w	fp, r5, lsl #2
 8003b24:	250f      	movs	r5, #15
 8003b26:	fa05 f50b 	lsl.w	r5, r5, fp
 8003b2a:	ea2a 0a05 	bic.w	sl, sl, r5
 8003b2e:	690d      	ldr	r5, [r1, #16]
 8003b30:	fa05 f50b 	lsl.w	r5, r5, fp
 8003b34:	ea45 050a 	orr.w	r5, r5, sl
 8003b38:	f8c9 5020 	str.w	r5, [r9, #32]
 8003b3c:	6805      	ldr	r5, [r0, #0]
 8003b3e:	4025      	ands	r5, r4
 8003b40:	684c      	ldr	r4, [r1, #4]
 8003b42:	f004 0403 	and.w	r4, r4, #3
 8003b46:	fa04 f408 	lsl.w	r4, r4, r8
 8003b4a:	432c      	orrs	r4, r5
 8003b4c:	6004      	str	r4, [r0, #0]
 8003b4e:	684c      	ldr	r4, [r1, #4]
 8003b50:	f014 5f80 	tst.w	r4, #268435456	; 0x10000000
 8003b54:	d09e      	beq.n	8003a94 <HAL_GPIO_Init+0x84>
 8003b56:	f8d7 40f4 	ldr.w	r4, [r7, #244]	; 0xf4
 8003b5a:	f044 0402 	orr.w	r4, r4, #2
 8003b5e:	f8c7 40f4 	str.w	r4, [r7, #244]	; 0xf4
 8003b62:	f8d7 40f4 	ldr.w	r4, [r7, #244]	; 0xf4
 8003b66:	f004 0402 	and.w	r4, r4, #2
 8003b6a:	9401      	str	r4, [sp, #4]
 8003b6c:	9c01      	ldr	r4, [sp, #4]
 8003b6e:	f023 0803 	bic.w	r8, r3, #3
 8003b72:	44e0      	add	r8, ip
 8003b74:	f8d8 5008 	ldr.w	r5, [r8, #8]
 8003b78:	f003 0403 	and.w	r4, r3, #3
 8003b7c:	ea4f 0984 	mov.w	r9, r4, lsl #2
 8003b80:	240f      	movs	r4, #15
 8003b82:	fa04 f409 	lsl.w	r4, r4, r9
 8003b86:	ea25 0a04 	bic.w	sl, r5, r4
 8003b8a:	4570      	cmp	r0, lr
 8003b8c:	f43f af4f 	beq.w	8003a2e <HAL_GPIO_Init+0x1e>
 8003b90:	4c1e      	ldr	r4, [pc, #120]	; (8003c0c <HAL_GPIO_Init+0x1fc>)
 8003b92:	42a0      	cmp	r0, r4
 8003b94:	d022      	beq.n	8003bdc <HAL_GPIO_Init+0x1cc>
 8003b96:	f504 6480 	add.w	r4, r4, #1024	; 0x400
 8003b9a:	42a0      	cmp	r0, r4
 8003b9c:	d020      	beq.n	8003be0 <HAL_GPIO_Init+0x1d0>
 8003b9e:	f504 6480 	add.w	r4, r4, #1024	; 0x400
 8003ba2:	42a0      	cmp	r0, r4
 8003ba4:	d01e      	beq.n	8003be4 <HAL_GPIO_Init+0x1d4>
 8003ba6:	f504 6480 	add.w	r4, r4, #1024	; 0x400
 8003baa:	42a0      	cmp	r0, r4
 8003bac:	d01c      	beq.n	8003be8 <HAL_GPIO_Init+0x1d8>
 8003bae:	f504 6480 	add.w	r4, r4, #1024	; 0x400
 8003bb2:	42a0      	cmp	r0, r4
 8003bb4:	d01a      	beq.n	8003bec <HAL_GPIO_Init+0x1dc>
 8003bb6:	f504 6480 	add.w	r4, r4, #1024	; 0x400
 8003bba:	42a0      	cmp	r0, r4
 8003bbc:	d018      	beq.n	8003bf0 <HAL_GPIO_Init+0x1e0>
 8003bbe:	f504 6480 	add.w	r4, r4, #1024	; 0x400
 8003bc2:	42a0      	cmp	r0, r4
 8003bc4:	d016      	beq.n	8003bf4 <HAL_GPIO_Init+0x1e4>
 8003bc6:	f504 6480 	add.w	r4, r4, #1024	; 0x400
 8003bca:	42a0      	cmp	r0, r4
 8003bcc:	d014      	beq.n	8003bf8 <HAL_GPIO_Init+0x1e8>
 8003bce:	f504 6480 	add.w	r4, r4, #1024	; 0x400
 8003bd2:	42a0      	cmp	r0, r4
 8003bd4:	bf0c      	ite	eq
 8003bd6:	2409      	moveq	r4, #9
 8003bd8:	240a      	movne	r4, #10
 8003bda:	e729      	b.n	8003a30 <HAL_GPIO_Init+0x20>
 8003bdc:	2401      	movs	r4, #1
 8003bde:	e727      	b.n	8003a30 <HAL_GPIO_Init+0x20>
 8003be0:	2402      	movs	r4, #2
 8003be2:	e725      	b.n	8003a30 <HAL_GPIO_Init+0x20>
 8003be4:	2403      	movs	r4, #3
 8003be6:	e723      	b.n	8003a30 <HAL_GPIO_Init+0x20>
 8003be8:	2404      	movs	r4, #4
 8003bea:	e721      	b.n	8003a30 <HAL_GPIO_Init+0x20>
 8003bec:	2405      	movs	r4, #5
 8003bee:	e71f      	b.n	8003a30 <HAL_GPIO_Init+0x20>
 8003bf0:	2406      	movs	r4, #6
 8003bf2:	e71d      	b.n	8003a30 <HAL_GPIO_Init+0x20>
 8003bf4:	2407      	movs	r4, #7
 8003bf6:	e71b      	b.n	8003a30 <HAL_GPIO_Init+0x20>
 8003bf8:	2408      	movs	r4, #8
 8003bfa:	e719      	b.n	8003a30 <HAL_GPIO_Init+0x20>
 8003bfc:	b003      	add	sp, #12
 8003bfe:	e8bd 8ff0 	ldmia.w	sp!, {r4, r5, r6, r7, r8, r9, sl, fp, pc}
 8003c02:	4770      	bx	lr
 8003c04:	58024400 	.word	0x58024400
 8003c08:	58000080 	.word	0x58000080
 8003c0c:	58020400 	.word	0x58020400
 8003c10:	58000400 	.word	0x58000400
 8003c14:	58020000 	.word	0x58020000

08003c18 <HAL_GPIO_WritePin>:
 8003c18:	b10a      	cbz	r2, 8003c1e <HAL_GPIO_WritePin+0x6>
 8003c1a:	6181      	str	r1, [r0, #24]
 8003c1c:	4770      	bx	lr
 8003c1e:	0409      	lsls	r1, r1, #16
 8003c20:	6181      	str	r1, [r0, #24]
 8003c22:	4770      	bx	lr

08003c24 <HAL_GPIO_TogglePin>:
 8003c24:	6943      	ldr	r3, [r0, #20]
 8003c26:	ea01 0203 	and.w	r2, r1, r3
 8003c2a:	ea21 0103 	bic.w	r1, r1, r3
 8003c2e:	ea41 4102 	orr.w	r1, r1, r2, lsl #16
 8003c32:	6181      	str	r1, [r0, #24]
 8003c34:	4770      	bx	lr

08003c36 <HAL_GPIO_EXTI_IRQHandler>:
 8003c36:	b508      	push	{r3, lr}
 8003c38:	f04f 43b0 	mov.w	r3, #1476395008	; 0x58000000
 8003c3c:	f8d3 3088 	ldr.w	r3, [r3, #136]	; 0x88
 8003c40:	4203      	tst	r3, r0
 8003c42:	d100      	bne.n	8003c46 <HAL_GPIO_EXTI_IRQHandler+0x10>
 8003c44:	bd08      	pop	{r3, pc}
 8003c46:	f04f 43b0 	mov.w	r3, #1476395008	; 0x58000000
 8003c4a:	f8c3 0088 	str.w	r0, [r3, #136]	; 0x88
 8003c4e:	f7fc fcc5 	bl	80005dc <HAL_GPIO_EXTI_Callback>
 8003c52:	e7f7      	b.n	8003c44 <HAL_GPIO_EXTI_IRQHandler+0xe>

08003c54 <HAL_PWREx_ConfigSupply>:
 8003c54:	b538      	push	{r3, r4, r5, lr}
 8003c56:	4b12      	ldr	r3, [pc, #72]	; (8003ca0 <HAL_PWREx_ConfigSupply+0x4c>)
 8003c58:	68db      	ldr	r3, [r3, #12]
 8003c5a:	f013 0f04 	tst.w	r3, #4
 8003c5e:	d107      	bne.n	8003c70 <HAL_PWREx_ConfigSupply+0x1c>
 8003c60:	4b0f      	ldr	r3, [pc, #60]	; (8003ca0 <HAL_PWREx_ConfigSupply+0x4c>)
 8003c62:	68db      	ldr	r3, [r3, #12]
 8003c64:	f003 0307 	and.w	r3, r3, #7
 8003c68:	1a18      	subs	r0, r3, r0
 8003c6a:	bf18      	it	ne
 8003c6c:	2001      	movne	r0, #1
 8003c6e:	bd38      	pop	{r3, r4, r5, pc}
 8003c70:	4a0b      	ldr	r2, [pc, #44]	; (8003ca0 <HAL_PWREx_ConfigSupply+0x4c>)
 8003c72:	68d3      	ldr	r3, [r2, #12]
 8003c74:	f023 0307 	bic.w	r3, r3, #7
 8003c78:	4318      	orrs	r0, r3
 8003c7a:	60d0      	str	r0, [r2, #12]
 8003c7c:	f7fd fe44 	bl	8001908 <HAL_GetTick>
 8003c80:	4604      	mov	r4, r0
 8003c82:	4d07      	ldr	r5, [pc, #28]	; (8003ca0 <HAL_PWREx_ConfigSupply+0x4c>)
 8003c84:	686b      	ldr	r3, [r5, #4]
 8003c86:	f413 5f00 	tst.w	r3, #8192	; 0x2000
 8003c8a:	d107      	bne.n	8003c9c <HAL_PWREx_ConfigSupply+0x48>
 8003c8c:	f7fd fe3c 	bl	8001908 <HAL_GetTick>
 8003c90:	1b00      	subs	r0, r0, r4
 8003c92:	f5b0 7f7a 	cmp.w	r0, #1000	; 0x3e8
 8003c96:	d9f5      	bls.n	8003c84 <HAL_PWREx_ConfigSupply+0x30>
 8003c98:	2001      	movs	r0, #1
 8003c9a:	e7e8      	b.n	8003c6e <HAL_PWREx_ConfigSupply+0x1a>
 8003c9c:	2000      	movs	r0, #0
 8003c9e:	e7e6      	b.n	8003c6e <HAL_PWREx_ConfigSupply+0x1a>
 8003ca0:	58024800 	.word	0x58024800

08003ca4 <HAL_RCC_OscConfig>:
 8003ca4:	2800      	cmp	r0, #0
 8003ca6:	f000 8304 	beq.w	80042b2 <HAL_RCC_OscConfig+0x60e>
 8003caa:	b5f8      	push	{r3, r4, r5, r6, r7, lr}
 8003cac:	4604      	mov	r4, r0
 8003cae:	6803      	ldr	r3, [r0, #0]
 8003cb0:	f013 0f01 	tst.w	r3, #1
 8003cb4:	d025      	beq.n	8003d02 <HAL_RCC_OscConfig+0x5e>
 8003cb6:	4aae      	ldr	r2, [pc, #696]	; (8003f70 <HAL_RCC_OscConfig+0x2cc>)
 8003cb8:	6913      	ldr	r3, [r2, #16]
 8003cba:	f003 0338 	and.w	r3, r3, #56	; 0x38
 8003cbe:	6a92      	ldr	r2, [r2, #40]	; 0x28
 8003cc0:	2b10      	cmp	r3, #16
 8003cc2:	d015      	beq.n	8003cf0 <HAL_RCC_OscConfig+0x4c>
 8003cc4:	2b18      	cmp	r3, #24
 8003cc6:	d00f      	beq.n	8003ce8 <HAL_RCC_OscConfig+0x44>
 8003cc8:	6863      	ldr	r3, [r4, #4]
 8003cca:	f5b3 3f80 	cmp.w	r3, #65536	; 0x10000
 8003cce:	d03f      	beq.n	8003d50 <HAL_RCC_OscConfig+0xac>
 8003cd0:	2b00      	cmp	r3, #0
 8003cd2:	d153      	bne.n	8003d7c <HAL_RCC_OscConfig+0xd8>
 8003cd4:	4ba6      	ldr	r3, [pc, #664]	; (8003f70 <HAL_RCC_OscConfig+0x2cc>)
 8003cd6:	681a      	ldr	r2, [r3, #0]
 8003cd8:	f422 3280 	bic.w	r2, r2, #65536	; 0x10000
 8003cdc:	601a      	str	r2, [r3, #0]
 8003cde:	681a      	ldr	r2, [r3, #0]
 8003ce0:	f422 2280 	bic.w	r2, r2, #262144	; 0x40000
 8003ce4:	601a      	str	r2, [r3, #0]
 8003ce6:	e038      	b.n	8003d5a <HAL_RCC_OscConfig+0xb6>
 8003ce8:	f002 0203 	and.w	r2, r2, #3
 8003cec:	2a02      	cmp	r2, #2
 8003cee:	d1eb      	bne.n	8003cc8 <HAL_RCC_OscConfig+0x24>
 8003cf0:	4b9f      	ldr	r3, [pc, #636]	; (8003f70 <HAL_RCC_OscConfig+0x2cc>)
 8003cf2:	681b      	ldr	r3, [r3, #0]
 8003cf4:	f413 3f00 	tst.w	r3, #131072	; 0x20000
 8003cf8:	d003      	beq.n	8003d02 <HAL_RCC_OscConfig+0x5e>
 8003cfa:	6863      	ldr	r3, [r4, #4]
 8003cfc:	2b00      	cmp	r3, #0
 8003cfe:	f000 82da 	beq.w	80042b6 <HAL_RCC_OscConfig+0x612>
 8003d02:	6823      	ldr	r3, [r4, #0]
 8003d04:	f013 0f02 	tst.w	r3, #2
 8003d08:	f000 808b 	beq.w	8003e22 <HAL_RCC_OscConfig+0x17e>
 8003d0c:	4a98      	ldr	r2, [pc, #608]	; (8003f70 <HAL_RCC_OscConfig+0x2cc>)
 8003d0e:	6913      	ldr	r3, [r2, #16]
 8003d10:	6a92      	ldr	r2, [r2, #40]	; 0x28
 8003d12:	f013 0338 	ands.w	r3, r3, #56	; 0x38
 8003d16:	d05a      	beq.n	8003dce <HAL_RCC_OscConfig+0x12a>
 8003d18:	2b18      	cmp	r3, #24
 8003d1a:	d055      	beq.n	8003dc8 <HAL_RCC_OscConfig+0x124>
 8003d1c:	68e2      	ldr	r2, [r4, #12]
 8003d1e:	2a00      	cmp	r2, #0
 8003d20:	f000 80c8 	beq.w	8003eb4 <HAL_RCC_OscConfig+0x210>
 8003d24:	4992      	ldr	r1, [pc, #584]	; (8003f70 <HAL_RCC_OscConfig+0x2cc>)
 8003d26:	680b      	ldr	r3, [r1, #0]
 8003d28:	f023 0319 	bic.w	r3, r3, #25
 8003d2c:	4313      	orrs	r3, r2
 8003d2e:	600b      	str	r3, [r1, #0]
 8003d30:	f7fd fdea 	bl	8001908 <HAL_GetTick>
 8003d34:	4605      	mov	r5, r0
 8003d36:	4e8e      	ldr	r6, [pc, #568]	; (8003f70 <HAL_RCC_OscConfig+0x2cc>)
 8003d38:	6833      	ldr	r3, [r6, #0]
 8003d3a:	f013 0f04 	tst.w	r3, #4
 8003d3e:	f040 8097 	bne.w	8003e70 <HAL_RCC_OscConfig+0x1cc>
 8003d42:	f7fd fde1 	bl	8001908 <HAL_GetTick>
 8003d46:	1b40      	subs	r0, r0, r5
 8003d48:	2802      	cmp	r0, #2
 8003d4a:	d9f5      	bls.n	8003d38 <HAL_RCC_OscConfig+0x94>
 8003d4c:	2003      	movs	r0, #3
 8003d4e:	e2b9      	b.n	80042c4 <HAL_RCC_OscConfig+0x620>
 8003d50:	4a87      	ldr	r2, [pc, #540]	; (8003f70 <HAL_RCC_OscConfig+0x2cc>)
 8003d52:	6813      	ldr	r3, [r2, #0]
 8003d54:	f443 3380 	orr.w	r3, r3, #65536	; 0x10000
 8003d58:	6013      	str	r3, [r2, #0]
 8003d5a:	6863      	ldr	r3, [r4, #4]
 8003d5c:	b32b      	cbz	r3, 8003daa <HAL_RCC_OscConfig+0x106>
 8003d5e:	f7fd fdd3 	bl	8001908 <HAL_GetTick>
 8003d62:	4605      	mov	r5, r0
 8003d64:	4e82      	ldr	r6, [pc, #520]	; (8003f70 <HAL_RCC_OscConfig+0x2cc>)
 8003d66:	6833      	ldr	r3, [r6, #0]
 8003d68:	f413 3f00 	tst.w	r3, #131072	; 0x20000
 8003d6c:	d1c9      	bne.n	8003d02 <HAL_RCC_OscConfig+0x5e>
 8003d6e:	f7fd fdcb 	bl	8001908 <HAL_GetTick>
 8003d72:	1b40      	subs	r0, r0, r5
 8003d74:	2864      	cmp	r0, #100	; 0x64
 8003d76:	d9f6      	bls.n	8003d66 <HAL_RCC_OscConfig+0xc2>
 8003d78:	2003      	movs	r0, #3
 8003d7a:	e2a3      	b.n	80042c4 <HAL_RCC_OscConfig+0x620>
 8003d7c:	f5b3 2fa0 	cmp.w	r3, #327680	; 0x50000
 8003d80:	d009      	beq.n	8003d96 <HAL_RCC_OscConfig+0xf2>
 8003d82:	4b7b      	ldr	r3, [pc, #492]	; (8003f70 <HAL_RCC_OscConfig+0x2cc>)
 8003d84:	681a      	ldr	r2, [r3, #0]
 8003d86:	f422 3280 	bic.w	r2, r2, #65536	; 0x10000
 8003d8a:	601a      	str	r2, [r3, #0]
 8003d8c:	681a      	ldr	r2, [r3, #0]
 8003d8e:	f422 2280 	bic.w	r2, r2, #262144	; 0x40000
 8003d92:	601a      	str	r2, [r3, #0]
 8003d94:	e7e1      	b.n	8003d5a <HAL_RCC_OscConfig+0xb6>
 8003d96:	4b76      	ldr	r3, [pc, #472]	; (8003f70 <HAL_RCC_OscConfig+0x2cc>)
 8003d98:	681a      	ldr	r2, [r3, #0]
 8003d9a:	f442 2280 	orr.w	r2, r2, #262144	; 0x40000
 8003d9e:	601a      	str	r2, [r3, #0]
 8003da0:	681a      	ldr	r2, [r3, #0]
 8003da2:	f442 3280 	orr.w	r2, r2, #65536	; 0x10000
 8003da6:	601a      	str	r2, [r3, #0]
 8003da8:	e7d7      	b.n	8003d5a <HAL_RCC_OscConfig+0xb6>
 8003daa:	f7fd fdad 	bl	8001908 <HAL_GetTick>
 8003dae:	4605      	mov	r5, r0
 8003db0:	4e6f      	ldr	r6, [pc, #444]	; (8003f70 <HAL_RCC_OscConfig+0x2cc>)
 8003db2:	6833      	ldr	r3, [r6, #0]
 8003db4:	f413 3f00 	tst.w	r3, #131072	; 0x20000
 8003db8:	d0a3      	beq.n	8003d02 <HAL_RCC_OscConfig+0x5e>
 8003dba:	f7fd fda5 	bl	8001908 <HAL_GetTick>
 8003dbe:	1b40      	subs	r0, r0, r5
 8003dc0:	2864      	cmp	r0, #100	; 0x64
 8003dc2:	d9f6      	bls.n	8003db2 <HAL_RCC_OscConfig+0x10e>
 8003dc4:	2003      	movs	r0, #3
 8003dc6:	e27d      	b.n	80042c4 <HAL_RCC_OscConfig+0x620>
 8003dc8:	f012 0f03 	tst.w	r2, #3
 8003dcc:	d1a6      	bne.n	8003d1c <HAL_RCC_OscConfig+0x78>
 8003dce:	4b68      	ldr	r3, [pc, #416]	; (8003f70 <HAL_RCC_OscConfig+0x2cc>)
 8003dd0:	681b      	ldr	r3, [r3, #0]
 8003dd2:	f013 0f04 	tst.w	r3, #4
 8003dd6:	d003      	beq.n	8003de0 <HAL_RCC_OscConfig+0x13c>
 8003dd8:	68e3      	ldr	r3, [r4, #12]
 8003dda:	2b00      	cmp	r3, #0
 8003ddc:	f000 826d 	beq.w	80042ba <HAL_RCC_OscConfig+0x616>
 8003de0:	f7fd fdb4 	bl	800194c <HAL_GetREVID>
 8003de4:	f241 0303 	movw	r3, #4099	; 0x1003
 8003de8:	4298      	cmp	r0, r3
 8003dea:	d812      	bhi.n	8003e12 <HAL_RCC_OscConfig+0x16e>
 8003dec:	6922      	ldr	r2, [r4, #16]
 8003dee:	2a40      	cmp	r2, #64	; 0x40
 8003df0:	d007      	beq.n	8003e02 <HAL_RCC_OscConfig+0x15e>
 8003df2:	495f      	ldr	r1, [pc, #380]	; (8003f70 <HAL_RCC_OscConfig+0x2cc>)
 8003df4:	684b      	ldr	r3, [r1, #4]
 8003df6:	f423 337c 	bic.w	r3, r3, #258048	; 0x3f000
 8003dfa:	ea43 3302 	orr.w	r3, r3, r2, lsl #12
 8003dfe:	604b      	str	r3, [r1, #4]
 8003e00:	e00f      	b.n	8003e22 <HAL_RCC_OscConfig+0x17e>
 8003e02:	4a5b      	ldr	r2, [pc, #364]	; (8003f70 <HAL_RCC_OscConfig+0x2cc>)
 8003e04:	6853      	ldr	r3, [r2, #4]
 8003e06:	f423 337c 	bic.w	r3, r3, #258048	; 0x3f000
 8003e0a:	f443 3300 	orr.w	r3, r3, #131072	; 0x20000
 8003e0e:	6053      	str	r3, [r2, #4]
 8003e10:	e007      	b.n	8003e22 <HAL_RCC_OscConfig+0x17e>
 8003e12:	4a57      	ldr	r2, [pc, #348]	; (8003f70 <HAL_RCC_OscConfig+0x2cc>)
 8003e14:	6853      	ldr	r3, [r2, #4]
 8003e16:	6921      	ldr	r1, [r4, #16]
 8003e18:	f023 43fe 	bic.w	r3, r3, #2130706432	; 0x7f000000
 8003e1c:	ea43 6301 	orr.w	r3, r3, r1, lsl #24
 8003e20:	6053      	str	r3, [r2, #4]
 8003e22:	6823      	ldr	r3, [r4, #0]
 8003e24:	f013 0f10 	tst.w	r3, #16
 8003e28:	f000 8086 	beq.w	8003f38 <HAL_RCC_OscConfig+0x294>
 8003e2c:	4a50      	ldr	r2, [pc, #320]	; (8003f70 <HAL_RCC_OscConfig+0x2cc>)
 8003e2e:	6913      	ldr	r3, [r2, #16]
 8003e30:	f003 0338 	and.w	r3, r3, #56	; 0x38
 8003e34:	6a92      	ldr	r2, [r2, #40]	; 0x28
 8003e36:	2b08      	cmp	r3, #8
 8003e38:	d054      	beq.n	8003ee4 <HAL_RCC_OscConfig+0x240>
 8003e3a:	2b18      	cmp	r3, #24
 8003e3c:	d04e      	beq.n	8003edc <HAL_RCC_OscConfig+0x238>
 8003e3e:	69e3      	ldr	r3, [r4, #28]
 8003e40:	2b00      	cmp	r3, #0
 8003e42:	f000 80b9 	beq.w	8003fb8 <HAL_RCC_OscConfig+0x314>
 8003e46:	4a4a      	ldr	r2, [pc, #296]	; (8003f70 <HAL_RCC_OscConfig+0x2cc>)
 8003e48:	6813      	ldr	r3, [r2, #0]
 8003e4a:	f043 0380 	orr.w	r3, r3, #128	; 0x80
 8003e4e:	6013      	str	r3, [r2, #0]
 8003e50:	f7fd fd5a 	bl	8001908 <HAL_GetTick>
 8003e54:	4605      	mov	r5, r0
 8003e56:	4e46      	ldr	r6, [pc, #280]	; (8003f70 <HAL_RCC_OscConfig+0x2cc>)
 8003e58:	6833      	ldr	r3, [r6, #0]
 8003e5a:	f413 7f80 	tst.w	r3, #256	; 0x100
 8003e5e:	f040 8089 	bne.w	8003f74 <HAL_RCC_OscConfig+0x2d0>
 8003e62:	f7fd fd51 	bl	8001908 <HAL_GetTick>
 8003e66:	1b40      	subs	r0, r0, r5
 8003e68:	2802      	cmp	r0, #2
 8003e6a:	d9f5      	bls.n	8003e58 <HAL_RCC_OscConfig+0x1b4>
 8003e6c:	2003      	movs	r0, #3
 8003e6e:	e229      	b.n	80042c4 <HAL_RCC_OscConfig+0x620>
 8003e70:	f7fd fd6c 	bl	800194c <HAL_GetREVID>
 8003e74:	f241 0303 	movw	r3, #4099	; 0x1003
 8003e78:	4298      	cmp	r0, r3
 8003e7a:	d812      	bhi.n	8003ea2 <HAL_RCC_OscConfig+0x1fe>
 8003e7c:	6922      	ldr	r2, [r4, #16]
 8003e7e:	2a40      	cmp	r2, #64	; 0x40
 8003e80:	d007      	beq.n	8003e92 <HAL_RCC_OscConfig+0x1ee>
 8003e82:	493b      	ldr	r1, [pc, #236]	; (8003f70 <HAL_RCC_OscConfig+0x2cc>)
 8003e84:	684b      	ldr	r3, [r1, #4]
 8003e86:	f423 337c 	bic.w	r3, r3, #258048	; 0x3f000
 8003e8a:	ea43 3302 	orr.w	r3, r3, r2, lsl #12
 8003e8e:	604b      	str	r3, [r1, #4]
 8003e90:	e7c7      	b.n	8003e22 <HAL_RCC_OscConfig+0x17e>
 8003e92:	4a37      	ldr	r2, [pc, #220]	; (8003f70 <HAL_RCC_OscConfig+0x2cc>)
 8003e94:	6853      	ldr	r3, [r2, #4]
 8003e96:	f423 337c 	bic.w	r3, r3, #258048	; 0x3f000
 8003e9a:	f443 3300 	orr.w	r3, r3, #131072	; 0x20000
 8003e9e:	6053      	str	r3, [r2, #4]
 8003ea0:	e7bf      	b.n	8003e22 <HAL_RCC_OscConfig+0x17e>
 8003ea2:	4a33      	ldr	r2, [pc, #204]	; (8003f70 <HAL_RCC_OscConfig+0x2cc>)
 8003ea4:	6853      	ldr	r3, [r2, #4]
 8003ea6:	6921      	ldr	r1, [r4, #16]
 8003ea8:	f023 43fe 	bic.w	r3, r3, #2130706432	; 0x7f000000
 8003eac:	ea43 6301 	orr.w	r3, r3, r1, lsl #24
 8003eb0:	6053      	str	r3, [r2, #4]
 8003eb2:	e7b6      	b.n	8003e22 <HAL_RCC_OscConfig+0x17e>
 8003eb4:	4a2e      	ldr	r2, [pc, #184]	; (8003f70 <HAL_RCC_OscConfig+0x2cc>)
 8003eb6:	6813      	ldr	r3, [r2, #0]
 8003eb8:	f023 0301 	bic.w	r3, r3, #1
 8003ebc:	6013      	str	r3, [r2, #0]
 8003ebe:	f7fd fd23 	bl	8001908 <HAL_GetTick>
 8003ec2:	4605      	mov	r5, r0
 8003ec4:	4e2a      	ldr	r6, [pc, #168]	; (8003f70 <HAL_RCC_OscConfig+0x2cc>)
 8003ec6:	6833      	ldr	r3, [r6, #0]
 8003ec8:	f013 0f04 	tst.w	r3, #4
 8003ecc:	d0a9      	beq.n	8003e22 <HAL_RCC_OscConfig+0x17e>
 8003ece:	f7fd fd1b 	bl	8001908 <HAL_GetTick>
 8003ed2:	1b40      	subs	r0, r0, r5
 8003ed4:	2802      	cmp	r0, #2
 8003ed6:	d9f6      	bls.n	8003ec6 <HAL_RCC_OscConfig+0x222>
 8003ed8:	2003      	movs	r0, #3
 8003eda:	e1f3      	b.n	80042c4 <HAL_RCC_OscConfig+0x620>
 8003edc:	f002 0203 	and.w	r2, r2, #3
 8003ee0:	2a01      	cmp	r2, #1
 8003ee2:	d1ac      	bne.n	8003e3e <HAL_RCC_OscConfig+0x19a>
 8003ee4:	4b22      	ldr	r3, [pc, #136]	; (8003f70 <HAL_RCC_OscConfig+0x2cc>)
 8003ee6:	681b      	ldr	r3, [r3, #0]
 8003ee8:	f413 7f80 	tst.w	r3, #256	; 0x100
 8003eec:	d003      	beq.n	8003ef6 <HAL_RCC_OscConfig+0x252>
 8003eee:	69e3      	ldr	r3, [r4, #28]
 8003ef0:	2b80      	cmp	r3, #128	; 0x80
 8003ef2:	f040 81e4 	bne.w	80042be <HAL_RCC_OscConfig+0x61a>
 8003ef6:	f7fd fd29 	bl	800194c <HAL_GetREVID>
 8003efa:	f241 0303 	movw	r3, #4099	; 0x1003
 8003efe:	4298      	cmp	r0, r3
 8003f00:	d812      	bhi.n	8003f28 <HAL_RCC_OscConfig+0x284>
 8003f02:	6a22      	ldr	r2, [r4, #32]
 8003f04:	2a20      	cmp	r2, #32
 8003f06:	d007      	beq.n	8003f18 <HAL_RCC_OscConfig+0x274>
 8003f08:	4919      	ldr	r1, [pc, #100]	; (8003f70 <HAL_RCC_OscConfig+0x2cc>)
 8003f0a:	684b      	ldr	r3, [r1, #4]
 8003f0c:	f023 43f8 	bic.w	r3, r3, #2080374784	; 0x7c000000
 8003f10:	ea43 6382 	orr.w	r3, r3, r2, lsl #26
 8003f14:	604b      	str	r3, [r1, #4]
 8003f16:	e00f      	b.n	8003f38 <HAL_RCC_OscConfig+0x294>
 8003f18:	4a15      	ldr	r2, [pc, #84]	; (8003f70 <HAL_RCC_OscConfig+0x2cc>)
 8003f1a:	6853      	ldr	r3, [r2, #4]
 8003f1c:	f023 43f8 	bic.w	r3, r3, #2080374784	; 0x7c000000
 8003f20:	f043 4380 	orr.w	r3, r3, #1073741824	; 0x40000000
 8003f24:	6053      	str	r3, [r2, #4]
 8003f26:	e007      	b.n	8003f38 <HAL_RCC_OscConfig+0x294>
 8003f28:	4a11      	ldr	r2, [pc, #68]	; (8003f70 <HAL_RCC_OscConfig+0x2cc>)
 8003f2a:	68d3      	ldr	r3, [r2, #12]
 8003f2c:	6a21      	ldr	r1, [r4, #32]
 8003f2e:	f023 537c 	bic.w	r3, r3, #1056964608	; 0x3f000000
 8003f32:	ea43 6301 	orr.w	r3, r3, r1, lsl #24
 8003f36:	60d3      	str	r3, [r2, #12]
 8003f38:	6823      	ldr	r3, [r4, #0]
 8003f3a:	f013 0f08 	tst.w	r3, #8
 8003f3e:	d063      	beq.n	8004008 <HAL_RCC_OscConfig+0x364>
 8003f40:	6963      	ldr	r3, [r4, #20]
 8003f42:	2b00      	cmp	r3, #0
 8003f44:	d04c      	beq.n	8003fe0 <HAL_RCC_OscConfig+0x33c>
 8003f46:	4a0a      	ldr	r2, [pc, #40]	; (8003f70 <HAL_RCC_OscConfig+0x2cc>)
 8003f48:	6f53      	ldr	r3, [r2, #116]	; 0x74
 8003f4a:	f043 0301 	orr.w	r3, r3, #1
 8003f4e:	6753      	str	r3, [r2, #116]	; 0x74
 8003f50:	f7fd fcda 	bl	8001908 <HAL_GetTick>
 8003f54:	4605      	mov	r5, r0
 8003f56:	4e06      	ldr	r6, [pc, #24]	; (8003f70 <HAL_RCC_OscConfig+0x2cc>)
 8003f58:	6f73      	ldr	r3, [r6, #116]	; 0x74
 8003f5a:	f013 0f02 	tst.w	r3, #2
 8003f5e:	d153      	bne.n	8004008 <HAL_RCC_OscConfig+0x364>
 8003f60:	f7fd fcd2 	bl	8001908 <HAL_GetTick>
 8003f64:	1b40      	subs	r0, r0, r5
 8003f66:	2802      	cmp	r0, #2
 8003f68:	d9f6      	bls.n	8003f58 <HAL_RCC_OscConfig+0x2b4>
 8003f6a:	2003      	movs	r0, #3
 8003f6c:	e1aa      	b.n	80042c4 <HAL_RCC_OscConfig+0x620>
 8003f6e:	bf00      	nop
 8003f70:	58024400 	.word	0x58024400
 8003f74:	f7fd fcea 	bl	800194c <HAL_GetREVID>
 8003f78:	f241 0303 	movw	r3, #4099	; 0x1003
 8003f7c:	4298      	cmp	r0, r3
 8003f7e:	d812      	bhi.n	8003fa6 <HAL_RCC_OscConfig+0x302>
 8003f80:	6a22      	ldr	r2, [r4, #32]
 8003f82:	2a20      	cmp	r2, #32
 8003f84:	d007      	beq.n	8003f96 <HAL_RCC_OscConfig+0x2f2>
 8003f86:	4985      	ldr	r1, [pc, #532]	; (800419c <HAL_RCC_OscConfig+0x4f8>)
 8003f88:	684b      	ldr	r3, [r1, #4]
 8003f8a:	f023 43f8 	bic.w	r3, r3, #2080374784	; 0x7c000000
 8003f8e:	ea43 6382 	orr.w	r3, r3, r2, lsl #26
 8003f92:	604b      	str	r3, [r1, #4]
 8003f94:	e7d0      	b.n	8003f38 <HAL_RCC_OscConfig+0x294>
 8003f96:	4a81      	ldr	r2, [pc, #516]	; (800419c <HAL_RCC_OscConfig+0x4f8>)
 8003f98:	6853      	ldr	r3, [r2, #4]
 8003f9a:	f023 43f8 	bic.w	r3, r3, #2080374784	; 0x7c000000
 8003f9e:	f043 4380 	orr.w	r3, r3, #1073741824	; 0x40000000
 8003fa2:	6053      	str	r3, [r2, #4]
 8003fa4:	e7c8      	b.n	8003f38 <HAL_RCC_OscConfig+0x294>
 8003fa6:	4a7d      	ldr	r2, [pc, #500]	; (800419c <HAL_RCC_OscConfig+0x4f8>)
 8003fa8:	68d3      	ldr	r3, [r2, #12]
 8003faa:	6a21      	ldr	r1, [r4, #32]
 8003fac:	f023 537c 	bic.w	r3, r3, #1056964608	; 0x3f000000
 8003fb0:	ea43 6301 	orr.w	r3, r3, r1, lsl #24
 8003fb4:	60d3      	str	r3, [r2, #12]
 8003fb6:	e7bf      	b.n	8003f38 <HAL_RCC_OscConfig+0x294>
 8003fb8:	4a78      	ldr	r2, [pc, #480]	; (800419c <HAL_RCC_OscConfig+0x4f8>)
 8003fba:	6813      	ldr	r3, [r2, #0]
 8003fbc:	f023 0380 	bic.w	r3, r3, #128	; 0x80
 8003fc0:	6013      	str	r3, [r2, #0]
 8003fc2:	f7fd fca1 	bl	8001908 <HAL_GetTick>
 8003fc6:	4605      	mov	r5, r0
 8003fc8:	4e74      	ldr	r6, [pc, #464]	; (800419c <HAL_RCC_OscConfig+0x4f8>)
 8003fca:	6833      	ldr	r3, [r6, #0]
 8003fcc:	f413 7f80 	tst.w	r3, #256	; 0x100
 8003fd0:	d0b2      	beq.n	8003f38 <HAL_RCC_OscConfig+0x294>
 8003fd2:	f7fd fc99 	bl	8001908 <HAL_GetTick>
 8003fd6:	1b40      	subs	r0, r0, r5
 8003fd8:	2802      	cmp	r0, #2
 8003fda:	d9f6      	bls.n	8003fca <HAL_RCC_OscConfig+0x326>
 8003fdc:	2003      	movs	r0, #3
 8003fde:	e171      	b.n	80042c4 <HAL_RCC_OscConfig+0x620>
 8003fe0:	4a6e      	ldr	r2, [pc, #440]	; (800419c <HAL_RCC_OscConfig+0x4f8>)
 8003fe2:	6f53      	ldr	r3, [r2, #116]	; 0x74
 8003fe4:	f023 0301 	bic.w	r3, r3, #1
 8003fe8:	6753      	str	r3, [r2, #116]	; 0x74
 8003fea:	f7fd fc8d 	bl	8001908 <HAL_GetTick>
 8003fee:	4605      	mov	r5, r0
 8003ff0:	4e6a      	ldr	r6, [pc, #424]	; (800419c <HAL_RCC_OscConfig+0x4f8>)
 8003ff2:	6f73      	ldr	r3, [r6, #116]	; 0x74
 8003ff4:	f013 0f02 	tst.w	r3, #2
 8003ff8:	d006      	beq.n	8004008 <HAL_RCC_OscConfig+0x364>
 8003ffa:	f7fd fc85 	bl	8001908 <HAL_GetTick>
 8003ffe:	1b40      	subs	r0, r0, r5
 8004000:	2802      	cmp	r0, #2
 8004002:	d9f6      	bls.n	8003ff2 <HAL_RCC_OscConfig+0x34e>
 8004004:	2003      	movs	r0, #3
 8004006:	e15d      	b.n	80042c4 <HAL_RCC_OscConfig+0x620>
 8004008:	6823      	ldr	r3, [r4, #0]
 800400a:	f013 0f20 	tst.w	r3, #32
 800400e:	d029      	beq.n	8004064 <HAL_RCC_OscConfig+0x3c0>
 8004010:	69a3      	ldr	r3, [r4, #24]
 8004012:	b19b      	cbz	r3, 800403c <HAL_RCC_OscConfig+0x398>
 8004014:	4a61      	ldr	r2, [pc, #388]	; (800419c <HAL_RCC_OscConfig+0x4f8>)
 8004016:	6813      	ldr	r3, [r2, #0]
 8004018:	f443 5380 	orr.w	r3, r3, #4096	; 0x1000
 800401c:	6013      	str	r3, [r2, #0]
 800401e:	f7fd fc73 	bl	8001908 <HAL_GetTick>
 8004022:	4605      	mov	r5, r0
 8004024:	4e5d      	ldr	r6, [pc, #372]	; (800419c <HAL_RCC_OscConfig+0x4f8>)
 8004026:	6833      	ldr	r3, [r6, #0]
 8004028:	f413 5f00 	tst.w	r3, #8192	; 0x2000
 800402c:	d11a      	bne.n	8004064 <HAL_RCC_OscConfig+0x3c0>
 800402e:	f7fd fc6b 	bl	8001908 <HAL_GetTick>
 8004032:	1b40      	subs	r0, r0, r5
 8004034:	2802      	cmp	r0, #2
 8004036:	d9f6      	bls.n	8004026 <HAL_RCC_OscConfig+0x382>
 8004038:	2003      	movs	r0, #3
 800403a:	e143      	b.n	80042c4 <HAL_RCC_OscConfig+0x620>
 800403c:	4a57      	ldr	r2, [pc, #348]	; (800419c <HAL_RCC_OscConfig+0x4f8>)
 800403e:	6813      	ldr	r3, [r2, #0]
 8004040:	f423 5380 	bic.w	r3, r3, #4096	; 0x1000
 8004044:	6013      	str	r3, [r2, #0]
 8004046:	f7fd fc5f 	bl	8001908 <HAL_GetTick>
 800404a:	4605      	mov	r5, r0
 800404c:	4e53      	ldr	r6, [pc, #332]	; (800419c <HAL_RCC_OscConfig+0x4f8>)
 800404e:	6833      	ldr	r3, [r6, #0]
 8004050:	f413 5f00 	tst.w	r3, #8192	; 0x2000
 8004054:	d006      	beq.n	8004064 <HAL_RCC_OscConfig+0x3c0>
 8004056:	f7fd fc57 	bl	8001908 <HAL_GetTick>
 800405a:	1b40      	subs	r0, r0, r5
 800405c:	2802      	cmp	r0, #2
 800405e:	d9f6      	bls.n	800404e <HAL_RCC_OscConfig+0x3aa>
 8004060:	2003      	movs	r0, #3
 8004062:	e12f      	b.n	80042c4 <HAL_RCC_OscConfig+0x620>
 8004064:	6823      	ldr	r3, [r4, #0]
 8004066:	f013 0f04 	tst.w	r3, #4
 800406a:	d121      	bne.n	80040b0 <HAL_RCC_OscConfig+0x40c>
 800406c:	6a62      	ldr	r2, [r4, #36]	; 0x24
 800406e:	2a00      	cmp	r2, #0
 8004070:	f000 8127 	beq.w	80042c2 <HAL_RCC_OscConfig+0x61e>
 8004074:	4b49      	ldr	r3, [pc, #292]	; (800419c <HAL_RCC_OscConfig+0x4f8>)
 8004076:	691b      	ldr	r3, [r3, #16]
 8004078:	f003 0338 	and.w	r3, r3, #56	; 0x38
 800407c:	2b18      	cmp	r3, #24
 800407e:	f000 80ef 	beq.w	8004260 <HAL_RCC_OscConfig+0x5bc>
 8004082:	2a02      	cmp	r2, #2
 8004084:	d075      	beq.n	8004172 <HAL_RCC_OscConfig+0x4ce>
 8004086:	4a45      	ldr	r2, [pc, #276]	; (800419c <HAL_RCC_OscConfig+0x4f8>)
 8004088:	6813      	ldr	r3, [r2, #0]
 800408a:	f023 7380 	bic.w	r3, r3, #16777216	; 0x1000000
 800408e:	6013      	str	r3, [r2, #0]
 8004090:	f7fd fc3a 	bl	8001908 <HAL_GetTick>
 8004094:	4604      	mov	r4, r0
 8004096:	4d41      	ldr	r5, [pc, #260]	; (800419c <HAL_RCC_OscConfig+0x4f8>)
 8004098:	682b      	ldr	r3, [r5, #0]
 800409a:	f013 7f00 	tst.w	r3, #33554432	; 0x2000000
 800409e:	f000 80dd 	beq.w	800425c <HAL_RCC_OscConfig+0x5b8>
 80040a2:	f7fd fc31 	bl	8001908 <HAL_GetTick>
 80040a6:	1b00      	subs	r0, r0, r4
 80040a8:	2802      	cmp	r0, #2
 80040aa:	d9f5      	bls.n	8004098 <HAL_RCC_OscConfig+0x3f4>
 80040ac:	2003      	movs	r0, #3
 80040ae:	e109      	b.n	80042c4 <HAL_RCC_OscConfig+0x620>
 80040b0:	4a3b      	ldr	r2, [pc, #236]	; (80041a0 <HAL_RCC_OscConfig+0x4fc>)
 80040b2:	6813      	ldr	r3, [r2, #0]
 80040b4:	f443 7380 	orr.w	r3, r3, #256	; 0x100
 80040b8:	6013      	str	r3, [r2, #0]
 80040ba:	f7fd fc25 	bl	8001908 <HAL_GetTick>
 80040be:	4605      	mov	r5, r0
 80040c0:	4e37      	ldr	r6, [pc, #220]	; (80041a0 <HAL_RCC_OscConfig+0x4fc>)
 80040c2:	6833      	ldr	r3, [r6, #0]
 80040c4:	f413 7f80 	tst.w	r3, #256	; 0x100
 80040c8:	d106      	bne.n	80040d8 <HAL_RCC_OscConfig+0x434>
 80040ca:	f7fd fc1d 	bl	8001908 <HAL_GetTick>
 80040ce:	1b40      	subs	r0, r0, r5
 80040d0:	2864      	cmp	r0, #100	; 0x64
 80040d2:	d9f6      	bls.n	80040c2 <HAL_RCC_OscConfig+0x41e>
 80040d4:	2003      	movs	r0, #3
 80040d6:	e0f5      	b.n	80042c4 <HAL_RCC_OscConfig+0x620>
 80040d8:	68a3      	ldr	r3, [r4, #8]
 80040da:	2b01      	cmp	r3, #1
 80040dc:	d00a      	beq.n	80040f4 <HAL_RCC_OscConfig+0x450>
 80040de:	bb0b      	cbnz	r3, 8004124 <HAL_RCC_OscConfig+0x480>
 80040e0:	4b2e      	ldr	r3, [pc, #184]	; (800419c <HAL_RCC_OscConfig+0x4f8>)
 80040e2:	6f1a      	ldr	r2, [r3, #112]	; 0x70
 80040e4:	f022 0201 	bic.w	r2, r2, #1
 80040e8:	671a      	str	r2, [r3, #112]	; 0x70
 80040ea:	6f1a      	ldr	r2, [r3, #112]	; 0x70
 80040ec:	f022 0204 	bic.w	r2, r2, #4
 80040f0:	671a      	str	r2, [r3, #112]	; 0x70
 80040f2:	e004      	b.n	80040fe <HAL_RCC_OscConfig+0x45a>
 80040f4:	4a29      	ldr	r2, [pc, #164]	; (800419c <HAL_RCC_OscConfig+0x4f8>)
 80040f6:	6f13      	ldr	r3, [r2, #112]	; 0x70
 80040f8:	f043 0301 	orr.w	r3, r3, #1
 80040fc:	6713      	str	r3, [r2, #112]	; 0x70
 80040fe:	68a3      	ldr	r3, [r4, #8]
 8004100:	b333      	cbz	r3, 8004150 <HAL_RCC_OscConfig+0x4ac>
 8004102:	f7fd fc01 	bl	8001908 <HAL_GetTick>
 8004106:	4605      	mov	r5, r0
 8004108:	4e24      	ldr	r6, [pc, #144]	; (800419c <HAL_RCC_OscConfig+0x4f8>)
 800410a:	f241 3788 	movw	r7, #5000	; 0x1388
 800410e:	6f33      	ldr	r3, [r6, #112]	; 0x70
 8004110:	f013 0f02 	tst.w	r3, #2
 8004114:	d1aa      	bne.n	800406c <HAL_RCC_OscConfig+0x3c8>
 8004116:	f7fd fbf7 	bl	8001908 <HAL_GetTick>
 800411a:	1b40      	subs	r0, r0, r5
 800411c:	42b8      	cmp	r0, r7
 800411e:	d9f6      	bls.n	800410e <HAL_RCC_OscConfig+0x46a>
 8004120:	2003      	movs	r0, #3
 8004122:	e0cf      	b.n	80042c4 <HAL_RCC_OscConfig+0x620>
 8004124:	2b05      	cmp	r3, #5
 8004126:	d009      	beq.n	800413c <HAL_RCC_OscConfig+0x498>
 8004128:	4b1c      	ldr	r3, [pc, #112]	; (800419c <HAL_RCC_OscConfig+0x4f8>)
 800412a:	6f1a      	ldr	r2, [r3, #112]	; 0x70
 800412c:	f022 0201 	bic.w	r2, r2, #1
 8004130:	671a      	str	r2, [r3, #112]	; 0x70
 8004132:	6f1a      	ldr	r2, [r3, #112]	; 0x70
 8004134:	f022 0204 	bic.w	r2, r2, #4
 8004138:	671a      	str	r2, [r3, #112]	; 0x70
 800413a:	e7e0      	b.n	80040fe <HAL_RCC_OscConfig+0x45a>
 800413c:	4b17      	ldr	r3, [pc, #92]	; (800419c <HAL_RCC_OscConfig+0x4f8>)
 800413e:	6f1a      	ldr	r2, [r3, #112]	; 0x70
 8004140:	f042 0204 	orr.w	r2, r2, #4
 8004144:	671a      	str	r2, [r3, #112]	; 0x70
 8004146:	6f1a      	ldr	r2, [r3, #112]	; 0x70
 8004148:	f042 0201 	orr.w	r2, r2, #1
 800414c:	671a      	str	r2, [r3, #112]	; 0x70
 800414e:	e7d6      	b.n	80040fe <HAL_RCC_OscConfig+0x45a>
 8004150:	f7fd fbda 	bl	8001908 <HAL_GetTick>
 8004154:	4605      	mov	r5, r0
 8004156:	4e11      	ldr	r6, [pc, #68]	; (800419c <HAL_RCC_OscConfig+0x4f8>)
 8004158:	f241 3788 	movw	r7, #5000	; 0x1388
 800415c:	6f33      	ldr	r3, [r6, #112]	; 0x70
 800415e:	f013 0f02 	tst.w	r3, #2
 8004162:	d083      	beq.n	800406c <HAL_RCC_OscConfig+0x3c8>
 8004164:	f7fd fbd0 	bl	8001908 <HAL_GetTick>
 8004168:	1b40      	subs	r0, r0, r5
 800416a:	42b8      	cmp	r0, r7
 800416c:	d9f6      	bls.n	800415c <HAL_RCC_OscConfig+0x4b8>
 800416e:	2003      	movs	r0, #3
 8004170:	e0a8      	b.n	80042c4 <HAL_RCC_OscConfig+0x620>
 8004172:	4a0a      	ldr	r2, [pc, #40]	; (800419c <HAL_RCC_OscConfig+0x4f8>)
 8004174:	6813      	ldr	r3, [r2, #0]
 8004176:	f023 7380 	bic.w	r3, r3, #16777216	; 0x1000000
 800417a:	6013      	str	r3, [r2, #0]
 800417c:	f7fd fbc4 	bl	8001908 <HAL_GetTick>
 8004180:	4605      	mov	r5, r0
 8004182:	4e06      	ldr	r6, [pc, #24]	; (800419c <HAL_RCC_OscConfig+0x4f8>)
 8004184:	6833      	ldr	r3, [r6, #0]
 8004186:	f013 7f00 	tst.w	r3, #33554432	; 0x2000000
 800418a:	d00b      	beq.n	80041a4 <HAL_RCC_OscConfig+0x500>
 800418c:	f7fd fbbc 	bl	8001908 <HAL_GetTick>
 8004190:	1b40      	subs	r0, r0, r5
 8004192:	2802      	cmp	r0, #2
 8004194:	d9f6      	bls.n	8004184 <HAL_RCC_OscConfig+0x4e0>
 8004196:	2003      	movs	r0, #3
 8004198:	e094      	b.n	80042c4 <HAL_RCC_OscConfig+0x620>
 800419a:	bf00      	nop
 800419c:	58024400 	.word	0x58024400
 80041a0:	58024800 	.word	0x58024800
 80041a4:	4b4e      	ldr	r3, [pc, #312]	; (80042e0 <HAL_RCC_OscConfig+0x63c>)
 80041a6:	6a99      	ldr	r1, [r3, #40]	; 0x28
 80041a8:	4a4e      	ldr	r2, [pc, #312]	; (80042e4 <HAL_RCC_OscConfig+0x640>)
 80041aa:	400a      	ands	r2, r1
 80041ac:	6aa1      	ldr	r1, [r4, #40]	; 0x28
 80041ae:	430a      	orrs	r2, r1
 80041b0:	6ae1      	ldr	r1, [r4, #44]	; 0x2c
 80041b2:	ea42 1201 	orr.w	r2, r2, r1, lsl #4
 80041b6:	629a      	str	r2, [r3, #40]	; 0x28
 80041b8:	6b62      	ldr	r2, [r4, #52]	; 0x34
 80041ba:	3a01      	subs	r2, #1
 80041bc:	0252      	lsls	r2, r2, #9
 80041be:	b292      	uxth	r2, r2
 80041c0:	6ba1      	ldr	r1, [r4, #56]	; 0x38
 80041c2:	3901      	subs	r1, #1
 80041c4:	0409      	lsls	r1, r1, #16
 80041c6:	f401 01fe 	and.w	r1, r1, #8323072	; 0x7f0000
 80041ca:	430a      	orrs	r2, r1
 80041cc:	6b21      	ldr	r1, [r4, #48]	; 0x30
 80041ce:	3901      	subs	r1, #1
 80041d0:	f3c1 0108 	ubfx	r1, r1, #0, #9
 80041d4:	430a      	orrs	r2, r1
 80041d6:	6be1      	ldr	r1, [r4, #60]	; 0x3c
 80041d8:	3901      	subs	r1, #1
 80041da:	0609      	lsls	r1, r1, #24
 80041dc:	f001 41fe 	and.w	r1, r1, #2130706432	; 0x7f000000
 80041e0:	430a      	orrs	r2, r1
 80041e2:	631a      	str	r2, [r3, #48]	; 0x30
 80041e4:	6ada      	ldr	r2, [r3, #44]	; 0x2c
 80041e6:	f022 0201 	bic.w	r2, r2, #1
 80041ea:	62da      	str	r2, [r3, #44]	; 0x2c
 80041ec:	6b58      	ldr	r0, [r3, #52]	; 0x34
 80041ee:	6ca1      	ldr	r1, [r4, #72]	; 0x48
 80041f0:	4a3d      	ldr	r2, [pc, #244]	; (80042e8 <HAL_RCC_OscConfig+0x644>)
 80041f2:	4002      	ands	r2, r0
 80041f4:	ea42 02c1 	orr.w	r2, r2, r1, lsl #3
 80041f8:	635a      	str	r2, [r3, #52]	; 0x34
 80041fa:	6ada      	ldr	r2, [r3, #44]	; 0x2c
 80041fc:	f022 020c 	bic.w	r2, r2, #12
 8004200:	6c21      	ldr	r1, [r4, #64]	; 0x40
 8004202:	430a      	orrs	r2, r1
 8004204:	62da      	str	r2, [r3, #44]	; 0x2c
 8004206:	6ada      	ldr	r2, [r3, #44]	; 0x2c
 8004208:	f022 0202 	bic.w	r2, r2, #2
 800420c:	6c61      	ldr	r1, [r4, #68]	; 0x44
 800420e:	430a      	orrs	r2, r1
 8004210:	62da      	str	r2, [r3, #44]	; 0x2c
 8004212:	6ada      	ldr	r2, [r3, #44]	; 0x2c
 8004214:	f442 3280 	orr.w	r2, r2, #65536	; 0x10000
 8004218:	62da      	str	r2, [r3, #44]	; 0x2c
 800421a:	6ada      	ldr	r2, [r3, #44]	; 0x2c
 800421c:	f442 3200 	orr.w	r2, r2, #131072	; 0x20000
 8004220:	62da      	str	r2, [r3, #44]	; 0x2c
 8004222:	6ada      	ldr	r2, [r3, #44]	; 0x2c
 8004224:	f442 2280 	orr.w	r2, r2, #262144	; 0x40000
 8004228:	62da      	str	r2, [r3, #44]	; 0x2c
 800422a:	6ada      	ldr	r2, [r3, #44]	; 0x2c
 800422c:	f042 0201 	orr.w	r2, r2, #1
 8004230:	62da      	str	r2, [r3, #44]	; 0x2c
 8004232:	681a      	ldr	r2, [r3, #0]
 8004234:	f042 7280 	orr.w	r2, r2, #16777216	; 0x1000000
 8004238:	601a      	str	r2, [r3, #0]
 800423a:	f7fd fb65 	bl	8001908 <HAL_GetTick>
 800423e:	4604      	mov	r4, r0
 8004240:	4d27      	ldr	r5, [pc, #156]	; (80042e0 <HAL_RCC_OscConfig+0x63c>)
 8004242:	682b      	ldr	r3, [r5, #0]
 8004244:	f013 7f00 	tst.w	r3, #33554432	; 0x2000000
 8004248:	d106      	bne.n	8004258 <HAL_RCC_OscConfig+0x5b4>
 800424a:	f7fd fb5d 	bl	8001908 <HAL_GetTick>
 800424e:	1b00      	subs	r0, r0, r4
 8004250:	2802      	cmp	r0, #2
 8004252:	d9f6      	bls.n	8004242 <HAL_RCC_OscConfig+0x59e>
 8004254:	2003      	movs	r0, #3
 8004256:	e035      	b.n	80042c4 <HAL_RCC_OscConfig+0x620>
 8004258:	2000      	movs	r0, #0
 800425a:	e033      	b.n	80042c4 <HAL_RCC_OscConfig+0x620>
 800425c:	2000      	movs	r0, #0
 800425e:	e031      	b.n	80042c4 <HAL_RCC_OscConfig+0x620>
 8004260:	4b1f      	ldr	r3, [pc, #124]	; (80042e0 <HAL_RCC_OscConfig+0x63c>)
 8004262:	6a99      	ldr	r1, [r3, #40]	; 0x28
 8004264:	6b1b      	ldr	r3, [r3, #48]	; 0x30
 8004266:	2a01      	cmp	r2, #1
 8004268:	d02d      	beq.n	80042c6 <HAL_RCC_OscConfig+0x622>
 800426a:	f001 0203 	and.w	r2, r1, #3
 800426e:	6aa0      	ldr	r0, [r4, #40]	; 0x28
 8004270:	4282      	cmp	r2, r0
 8004272:	d12a      	bne.n	80042ca <HAL_RCC_OscConfig+0x626>
 8004274:	f3c1 1105 	ubfx	r1, r1, #4, #6
 8004278:	6ae2      	ldr	r2, [r4, #44]	; 0x2c
 800427a:	4291      	cmp	r1, r2
 800427c:	d127      	bne.n	80042ce <HAL_RCC_OscConfig+0x62a>
 800427e:	f3c3 0108 	ubfx	r1, r3, #0, #9
 8004282:	6b22      	ldr	r2, [r4, #48]	; 0x30
 8004284:	3a01      	subs	r2, #1
 8004286:	4291      	cmp	r1, r2
 8004288:	d123      	bne.n	80042d2 <HAL_RCC_OscConfig+0x62e>
 800428a:	f3c3 2146 	ubfx	r1, r3, #9, #7
 800428e:	6b62      	ldr	r2, [r4, #52]	; 0x34
 8004290:	3a01      	subs	r2, #1
 8004292:	4291      	cmp	r1, r2
 8004294:	d11f      	bne.n	80042d6 <HAL_RCC_OscConfig+0x632>
 8004296:	f3c3 4106 	ubfx	r1, r3, #16, #7
 800429a:	6ba2      	ldr	r2, [r4, #56]	; 0x38
 800429c:	3a01      	subs	r2, #1
 800429e:	4291      	cmp	r1, r2
 80042a0:	d11b      	bne.n	80042da <HAL_RCC_OscConfig+0x636>
 80042a2:	f3c3 6306 	ubfx	r3, r3, #24, #7
 80042a6:	6be0      	ldr	r0, [r4, #60]	; 0x3c
 80042a8:	3801      	subs	r0, #1
 80042aa:	1a18      	subs	r0, r3, r0
 80042ac:	bf18      	it	ne
 80042ae:	2001      	movne	r0, #1
 80042b0:	e008      	b.n	80042c4 <HAL_RCC_OscConfig+0x620>
 80042b2:	2001      	movs	r0, #1
 80042b4:	4770      	bx	lr
 80042b6:	2001      	movs	r0, #1
 80042b8:	e004      	b.n	80042c4 <HAL_RCC_OscConfig+0x620>
 80042ba:	2001      	movs	r0, #1
 80042bc:	e002      	b.n	80042c4 <HAL_RCC_OscConfig+0x620>
 80042be:	2001      	movs	r0, #1
 80042c0:	e000      	b.n	80042c4 <HAL_RCC_OscConfig+0x620>
 80042c2:	2000      	movs	r0, #0
 80042c4:	bdf8      	pop	{r3, r4, r5, r6, r7, pc}
 80042c6:	2001      	movs	r0, #1
 80042c8:	e7fc      	b.n	80042c4 <HAL_RCC_OscConfig+0x620>
 80042ca:	2001      	movs	r0, #1
 80042cc:	e7fa      	b.n	80042c4 <HAL_RCC_OscConfig+0x620>
 80042ce:	2001      	movs	r0, #1
 80042d0:	e7f8      	b.n	80042c4 <HAL_RCC_OscConfig+0x620>
 80042d2:	2001      	movs	r0, #1
 80042d4:	e7f6      	b.n	80042c4 <HAL_RCC_OscConfig+0x620>
 80042d6:	2001      	movs	r0, #1
 80042d8:	e7f4      	b.n	80042c4 <HAL_RCC_OscConfig+0x620>
 80042da:	2001      	movs	r0, #1
 80042dc:	e7f2      	b.n	80042c4 <HAL_RCC_OscConfig+0x620>
 80042de:	bf00      	nop
 80042e0:	58024400 	.word	0x58024400
 80042e4:	fffffc0c 	.word	0xfffffc0c
 80042e8:	ffff0007 	.word	0xffff0007

080042ec <HAL_RCC_GetSysClockFreq>:
 80042ec:	4b74      	ldr	r3, [pc, #464]	; (80044c0 <HAL_RCC_GetSysClockFreq+0x1d4>)
 80042ee:	691b      	ldr	r3, [r3, #16]
 80042f0:	f003 0338 	and.w	r3, r3, #56	; 0x38
 80042f4:	2b10      	cmp	r3, #16
 80042f6:	f000 80df 	beq.w	80044b8 <HAL_RCC_GetSysClockFreq+0x1cc>
 80042fa:	2b18      	cmp	r3, #24
 80042fc:	d010      	beq.n	8004320 <HAL_RCC_GetSysClockFreq+0x34>
 80042fe:	b10b      	cbz	r3, 8004304 <HAL_RCC_GetSysClockFreq+0x18>
 8004300:	4870      	ldr	r0, [pc, #448]	; (80044c4 <HAL_RCC_GetSysClockFreq+0x1d8>)
 8004302:	4770      	bx	lr
 8004304:	4b6e      	ldr	r3, [pc, #440]	; (80044c0 <HAL_RCC_GetSysClockFreq+0x1d4>)
 8004306:	681b      	ldr	r3, [r3, #0]
 8004308:	f013 0f20 	tst.w	r3, #32
 800430c:	f000 80d6 	beq.w	80044bc <HAL_RCC_GetSysClockFreq+0x1d0>
 8004310:	4b6b      	ldr	r3, [pc, #428]	; (80044c0 <HAL_RCC_GetSysClockFreq+0x1d4>)
 8004312:	6818      	ldr	r0, [r3, #0]
 8004314:	f3c0 00c1 	ubfx	r0, r0, #3, #2
 8004318:	4b6b      	ldr	r3, [pc, #428]	; (80044c8 <HAL_RCC_GetSysClockFreq+0x1dc>)
 800431a:	fa23 f000 	lsr.w	r0, r3, r0
 800431e:	4770      	bx	lr
 8004320:	b410      	push	{r4}
 8004322:	4a67      	ldr	r2, [pc, #412]	; (80044c0 <HAL_RCC_GetSysClockFreq+0x1d4>)
 8004324:	6a91      	ldr	r1, [r2, #40]	; 0x28
 8004326:	6a94      	ldr	r4, [r2, #40]	; 0x28
 8004328:	f3c4 1005 	ubfx	r0, r4, #4, #6
 800432c:	6ad3      	ldr	r3, [r2, #44]	; 0x2c
 800432e:	6b52      	ldr	r2, [r2, #52]	; 0x34
 8004330:	f414 7f7c 	tst.w	r4, #1008	; 0x3f0
 8004334:	f000 80a0 	beq.w	8004478 <HAL_RCC_GetSysClockFreq+0x18c>
 8004338:	f3c2 02cc 	ubfx	r2, r2, #3, #13
 800433c:	f003 0301 	and.w	r3, r3, #1
 8004340:	fb03 f302 	mul.w	r3, r3, r2
 8004344:	ee07 3a90 	vmov	s15, r3
 8004348:	eef8 7a67 	vcvt.f32.u32	s15, s15
 800434c:	f001 0103 	and.w	r1, r1, #3
 8004350:	2901      	cmp	r1, #1
 8004352:	d066      	beq.n	8004422 <HAL_RCC_GetSysClockFreq+0x136>
 8004354:	2902      	cmp	r1, #2
 8004356:	f000 8092 	beq.w	800447e <HAL_RCC_GetSysClockFreq+0x192>
 800435a:	b1e1      	cbz	r1, 8004396 <HAL_RCC_GetSysClockFreq+0xaa>
 800435c:	4b58      	ldr	r3, [pc, #352]	; (80044c0 <HAL_RCC_GetSysClockFreq+0x1d4>)
 800435e:	6b1b      	ldr	r3, [r3, #48]	; 0x30
 8004360:	f3c3 0308 	ubfx	r3, r3, #0, #9
 8004364:	ee07 3a10 	vmov	s14, r3
 8004368:	eeb8 7a47 	vcvt.f32.u32	s14, s14
 800436c:	eddf 6a57 	vldr	s13, [pc, #348]	; 80044cc <HAL_RCC_GetSysClockFreq+0x1e0>
 8004370:	ee67 7aa6 	vmul.f32	s15, s15, s13
 8004374:	ee77 7a27 	vadd.f32	s15, s14, s15
 8004378:	eeb7 7a00 	vmov.f32	s14, #112	; 0x3f800000  1.0
 800437c:	ee77 7a87 	vadd.f32	s15, s15, s14
 8004380:	ee07 0a10 	vmov	s14, r0
 8004384:	eef8 6a47 	vcvt.f32.u32	s13, s14
 8004388:	ed9f 6a51 	vldr	s12, [pc, #324]	; 80044d0 <HAL_RCC_GetSysClockFreq+0x1e4>
 800438c:	ee86 7a26 	vdiv.f32	s14, s12, s13
 8004390:	ee67 7a87 	vmul.f32	s15, s15, s14
 8004394:	e061      	b.n	800445a <HAL_RCC_GetSysClockFreq+0x16e>
 8004396:	4b4a      	ldr	r3, [pc, #296]	; (80044c0 <HAL_RCC_GetSysClockFreq+0x1d4>)
 8004398:	681b      	ldr	r3, [r3, #0]
 800439a:	f013 0f20 	tst.w	r3, #32
 800439e:	d023      	beq.n	80043e8 <HAL_RCC_GetSysClockFreq+0xfc>
 80043a0:	4b47      	ldr	r3, [pc, #284]	; (80044c0 <HAL_RCC_GetSysClockFreq+0x1d4>)
 80043a2:	6819      	ldr	r1, [r3, #0]
 80043a4:	6b1b      	ldr	r3, [r3, #48]	; 0x30
 80043a6:	f3c1 01c1 	ubfx	r1, r1, #3, #2
 80043aa:	4a47      	ldr	r2, [pc, #284]	; (80044c8 <HAL_RCC_GetSysClockFreq+0x1dc>)
 80043ac:	40ca      	lsrs	r2, r1
 80043ae:	ee07 2a10 	vmov	s14, r2
 80043b2:	eef8 6a47 	vcvt.f32.u32	s13, s14
 80043b6:	ee07 0a10 	vmov	s14, r0
 80043ba:	eeb8 6a47 	vcvt.f32.u32	s12, s14
 80043be:	ee86 7a86 	vdiv.f32	s14, s13, s12
 80043c2:	f3c3 0308 	ubfx	r3, r3, #0, #9
 80043c6:	ee06 3a90 	vmov	s13, r3
 80043ca:	eef8 6a66 	vcvt.f32.u32	s13, s13
 80043ce:	ed9f 6a3f 	vldr	s12, [pc, #252]	; 80044cc <HAL_RCC_GetSysClockFreq+0x1e0>
 80043d2:	ee67 7a86 	vmul.f32	s15, s15, s12
 80043d6:	ee76 7aa7 	vadd.f32	s15, s13, s15
 80043da:	eef7 6a00 	vmov.f32	s13, #112	; 0x3f800000  1.0
 80043de:	ee77 7aa6 	vadd.f32	s15, s15, s13
 80043e2:	ee67 7a27 	vmul.f32	s15, s14, s15
 80043e6:	e038      	b.n	800445a <HAL_RCC_GetSysClockFreq+0x16e>
 80043e8:	4b35      	ldr	r3, [pc, #212]	; (80044c0 <HAL_RCC_GetSysClockFreq+0x1d4>)
 80043ea:	6b1b      	ldr	r3, [r3, #48]	; 0x30
 80043ec:	f3c3 0308 	ubfx	r3, r3, #0, #9
 80043f0:	ee07 3a10 	vmov	s14, r3
 80043f4:	eeb8 7a47 	vcvt.f32.u32	s14, s14
 80043f8:	eddf 6a34 	vldr	s13, [pc, #208]	; 80044cc <HAL_RCC_GetSysClockFreq+0x1e0>
 80043fc:	ee67 7aa6 	vmul.f32	s15, s15, s13
 8004400:	ee77 7a27 	vadd.f32	s15, s14, s15
 8004404:	eeb7 7a00 	vmov.f32	s14, #112	; 0x3f800000  1.0
 8004408:	ee77 7a87 	vadd.f32	s15, s15, s14
 800440c:	ee07 0a10 	vmov	s14, r0
 8004410:	eef8 6a47 	vcvt.f32.u32	s13, s14
 8004414:	ed9f 6a2f 	vldr	s12, [pc, #188]	; 80044d4 <HAL_RCC_GetSysClockFreq+0x1e8>
 8004418:	ee86 7a26 	vdiv.f32	s14, s12, s13
 800441c:	ee67 7a87 	vmul.f32	s15, s15, s14
 8004420:	e01b      	b.n	800445a <HAL_RCC_GetSysClockFreq+0x16e>
 8004422:	4b27      	ldr	r3, [pc, #156]	; (80044c0 <HAL_RCC_GetSysClockFreq+0x1d4>)
 8004424:	6b1b      	ldr	r3, [r3, #48]	; 0x30
 8004426:	f3c3 0308 	ubfx	r3, r3, #0, #9
 800442a:	ee07 3a10 	vmov	s14, r3
 800442e:	eeb8 7a47 	vcvt.f32.u32	s14, s14
 8004432:	eddf 6a26 	vldr	s13, [pc, #152]	; 80044cc <HAL_RCC_GetSysClockFreq+0x1e0>
 8004436:	ee67 7aa6 	vmul.f32	s15, s15, s13
 800443a:	ee77 7a27 	vadd.f32	s15, s14, s15
 800443e:	eeb7 7a00 	vmov.f32	s14, #112	; 0x3f800000  1.0
 8004442:	ee77 7a87 	vadd.f32	s15, s15, s14
 8004446:	ee07 0a10 	vmov	s14, r0
 800444a:	eef8 6a47 	vcvt.f32.u32	s13, s14
 800444e:	ed9f 6a20 	vldr	s12, [pc, #128]	; 80044d0 <HAL_RCC_GetSysClockFreq+0x1e4>
 8004452:	ee86 7a26 	vdiv.f32	s14, s12, s13
 8004456:	ee67 7a87 	vmul.f32	s15, s15, s14
 800445a:	4b19      	ldr	r3, [pc, #100]	; (80044c0 <HAL_RCC_GetSysClockFreq+0x1d4>)
 800445c:	6b1b      	ldr	r3, [r3, #48]	; 0x30
 800445e:	f3c3 2346 	ubfx	r3, r3, #9, #7
 8004462:	3301      	adds	r3, #1
 8004464:	ee07 3a10 	vmov	s14, r3
 8004468:	eeb8 7a47 	vcvt.f32.u32	s14, s14
 800446c:	eec7 6a87 	vdiv.f32	s13, s15, s14
 8004470:	eefc 7ae6 	vcvt.u32.f32	s15, s13
 8004474:	ee17 0a90 	vmov	r0, s15
 8004478:	f85d 4b04 	ldr.w	r4, [sp], #4
 800447c:	4770      	bx	lr
 800447e:	4b10      	ldr	r3, [pc, #64]	; (80044c0 <HAL_RCC_GetSysClockFreq+0x1d4>)
 8004480:	6b1b      	ldr	r3, [r3, #48]	; 0x30
 8004482:	f3c3 0308 	ubfx	r3, r3, #0, #9
 8004486:	ee07 3a10 	vmov	s14, r3
 800448a:	eeb8 7a47 	vcvt.f32.u32	s14, s14
 800448e:	eddf 6a0f 	vldr	s13, [pc, #60]	; 80044cc <HAL_RCC_GetSysClockFreq+0x1e0>
 8004492:	ee67 7aa6 	vmul.f32	s15, s15, s13
 8004496:	ee77 7a27 	vadd.f32	s15, s14, s15
 800449a:	eeb7 7a00 	vmov.f32	s14, #112	; 0x3f800000  1.0
 800449e:	ee77 7a87 	vadd.f32	s15, s15, s14
 80044a2:	ee07 0a10 	vmov	s14, r0
 80044a6:	eef8 6a47 	vcvt.f32.u32	s13, s14
 80044aa:	ed9f 6a0b 	vldr	s12, [pc, #44]	; 80044d8 <HAL_RCC_GetSysClockFreq+0x1ec>
 80044ae:	ee86 7a26 	vdiv.f32	s14, s12, s13
 80044b2:	ee67 7a87 	vmul.f32	s15, s15, s14
 80044b6:	e7d0      	b.n	800445a <HAL_RCC_GetSysClockFreq+0x16e>
 80044b8:	4808      	ldr	r0, [pc, #32]	; (80044dc <HAL_RCC_GetSysClockFreq+0x1f0>)
 80044ba:	4770      	bx	lr
 80044bc:	4802      	ldr	r0, [pc, #8]	; (80044c8 <HAL_RCC_GetSysClockFreq+0x1dc>)
 80044be:	4770      	bx	lr
 80044c0:	58024400 	.word	0x58024400
 80044c4:	003d0900 	.word	0x003d0900
 80044c8:	03d09000 	.word	0x03d09000
 80044cc:	39000000 	.word	0x39000000
 80044d0:	4a742400 	.word	0x4a742400
 80044d4:	4c742400 	.word	0x4c742400
 80044d8:	4afe502a 	.word	0x4afe502a
 80044dc:	007f2815 	.word	0x007f2815

080044e0 <HAL_RCC_ClockConfig>:
 80044e0:	2800      	cmp	r0, #0
 80044e2:	f000 80c3 	beq.w	800466c <HAL_RCC_ClockConfig+0x18c>
 80044e6:	e92d 41f0 	stmdb	sp!, {r4, r5, r6, r7, r8, lr}
 80044ea:	460d      	mov	r5, r1
 80044ec:	4604      	mov	r4, r0
 80044ee:	4ba0      	ldr	r3, [pc, #640]	; (8004770 <HAL_RCC_ClockConfig+0x290>)
 80044f0:	681b      	ldr	r3, [r3, #0]
 80044f2:	f003 030f 	and.w	r3, r3, #15
 80044f6:	428b      	cmp	r3, r1
 80044f8:	d20b      	bcs.n	8004512 <HAL_RCC_ClockConfig+0x32>
 80044fa:	4a9d      	ldr	r2, [pc, #628]	; (8004770 <HAL_RCC_ClockConfig+0x290>)
 80044fc:	6813      	ldr	r3, [r2, #0]
 80044fe:	f023 030f 	bic.w	r3, r3, #15
 8004502:	430b      	orrs	r3, r1
 8004504:	6013      	str	r3, [r2, #0]
 8004506:	6813      	ldr	r3, [r2, #0]
 8004508:	f003 030f 	and.w	r3, r3, #15
 800450c:	428b      	cmp	r3, r1
 800450e:	f040 80af 	bne.w	8004670 <HAL_RCC_ClockConfig+0x190>
 8004512:	6823      	ldr	r3, [r4, #0]
 8004514:	f013 0f04 	tst.w	r3, #4
 8004518:	d00c      	beq.n	8004534 <HAL_RCC_ClockConfig+0x54>
 800451a:	6922      	ldr	r2, [r4, #16]
 800451c:	4b95      	ldr	r3, [pc, #596]	; (8004774 <HAL_RCC_ClockConfig+0x294>)
 800451e:	699b      	ldr	r3, [r3, #24]
 8004520:	f003 0370 	and.w	r3, r3, #112	; 0x70
 8004524:	429a      	cmp	r2, r3
 8004526:	d905      	bls.n	8004534 <HAL_RCC_ClockConfig+0x54>
 8004528:	4992      	ldr	r1, [pc, #584]	; (8004774 <HAL_RCC_ClockConfig+0x294>)
 800452a:	698b      	ldr	r3, [r1, #24]
 800452c:	f023 0370 	bic.w	r3, r3, #112	; 0x70
 8004530:	4313      	orrs	r3, r2
 8004532:	618b      	str	r3, [r1, #24]
 8004534:	6823      	ldr	r3, [r4, #0]
 8004536:	f013 0f08 	tst.w	r3, #8
 800453a:	d00c      	beq.n	8004556 <HAL_RCC_ClockConfig+0x76>
 800453c:	6962      	ldr	r2, [r4, #20]
 800453e:	4b8d      	ldr	r3, [pc, #564]	; (8004774 <HAL_RCC_ClockConfig+0x294>)
 8004540:	69db      	ldr	r3, [r3, #28]
 8004542:	f003 0370 	and.w	r3, r3, #112	; 0x70
 8004546:	429a      	cmp	r2, r3
 8004548:	d905      	bls.n	8004556 <HAL_RCC_ClockConfig+0x76>
 800454a:	498a      	ldr	r1, [pc, #552]	; (8004774 <HAL_RCC_ClockConfig+0x294>)
 800454c:	69cb      	ldr	r3, [r1, #28]
 800454e:	f023 0370 	bic.w	r3, r3, #112	; 0x70
 8004552:	4313      	orrs	r3, r2
 8004554:	61cb      	str	r3, [r1, #28]
 8004556:	6823      	ldr	r3, [r4, #0]
 8004558:	f013 0f10 	tst.w	r3, #16
 800455c:	d00c      	beq.n	8004578 <HAL_RCC_ClockConfig+0x98>
 800455e:	69a2      	ldr	r2, [r4, #24]
 8004560:	4b84      	ldr	r3, [pc, #528]	; (8004774 <HAL_RCC_ClockConfig+0x294>)
 8004562:	69db      	ldr	r3, [r3, #28]
 8004564:	f403 63e0 	and.w	r3, r3, #1792	; 0x700
 8004568:	429a      	cmp	r2, r3
 800456a:	d905      	bls.n	8004578 <HAL_RCC_ClockConfig+0x98>
 800456c:	4981      	ldr	r1, [pc, #516]	; (8004774 <HAL_RCC_ClockConfig+0x294>)
 800456e:	69cb      	ldr	r3, [r1, #28]
 8004570:	f423 63e0 	bic.w	r3, r3, #1792	; 0x700
 8004574:	4313      	orrs	r3, r2
 8004576:	61cb      	str	r3, [r1, #28]
 8004578:	6823      	ldr	r3, [r4, #0]
 800457a:	f013 0f20 	tst.w	r3, #32
 800457e:	d00c      	beq.n	800459a <HAL_RCC_ClockConfig+0xba>
 8004580:	69e2      	ldr	r2, [r4, #28]
 8004582:	4b7c      	ldr	r3, [pc, #496]	; (8004774 <HAL_RCC_ClockConfig+0x294>)
 8004584:	6a1b      	ldr	r3, [r3, #32]
 8004586:	f003 0370 	and.w	r3, r3, #112	; 0x70
 800458a:	429a      	cmp	r2, r3
 800458c:	d905      	bls.n	800459a <HAL_RCC_ClockConfig+0xba>
 800458e:	4979      	ldr	r1, [pc, #484]	; (8004774 <HAL_RCC_ClockConfig+0x294>)
 8004590:	6a0b      	ldr	r3, [r1, #32]
 8004592:	f023 0370 	bic.w	r3, r3, #112	; 0x70
 8004596:	4313      	orrs	r3, r2
 8004598:	620b      	str	r3, [r1, #32]
 800459a:	6823      	ldr	r3, [r4, #0]
 800459c:	f013 0f02 	tst.w	r3, #2
 80045a0:	d070      	beq.n	8004684 <HAL_RCC_ClockConfig+0x1a4>
 80045a2:	68e1      	ldr	r1, [r4, #12]
 80045a4:	4a73      	ldr	r2, [pc, #460]	; (8004774 <HAL_RCC_ClockConfig+0x294>)
 80045a6:	6992      	ldr	r2, [r2, #24]
 80045a8:	f002 020f 	and.w	r2, r2, #15
 80045ac:	4291      	cmp	r1, r2
 80045ae:	d965      	bls.n	800467c <HAL_RCC_ClockConfig+0x19c>
 80045b0:	4a70      	ldr	r2, [pc, #448]	; (8004774 <HAL_RCC_ClockConfig+0x294>)
 80045b2:	6993      	ldr	r3, [r2, #24]
 80045b4:	f023 030f 	bic.w	r3, r3, #15
 80045b8:	430b      	orrs	r3, r1
 80045ba:	6193      	str	r3, [r2, #24]
 80045bc:	6823      	ldr	r3, [r4, #0]
 80045be:	f013 0f01 	tst.w	r3, #1
 80045c2:	d041      	beq.n	8004648 <HAL_RCC_ClockConfig+0x168>
 80045c4:	4a6b      	ldr	r2, [pc, #428]	; (8004774 <HAL_RCC_ClockConfig+0x294>)
 80045c6:	6993      	ldr	r3, [r2, #24]
 80045c8:	f423 6370 	bic.w	r3, r3, #3840	; 0xf00
 80045cc:	68a1      	ldr	r1, [r4, #8]
 80045ce:	430b      	orrs	r3, r1
 80045d0:	6193      	str	r3, [r2, #24]
 80045d2:	6862      	ldr	r2, [r4, #4]
 80045d4:	2a02      	cmp	r2, #2
 80045d6:	d00a      	beq.n	80045ee <HAL_RCC_ClockConfig+0x10e>
 80045d8:	2a03      	cmp	r2, #3
 80045da:	d027      	beq.n	800462c <HAL_RCC_ClockConfig+0x14c>
 80045dc:	2a01      	cmp	r2, #1
 80045de:	d02c      	beq.n	800463a <HAL_RCC_ClockConfig+0x15a>
 80045e0:	4b64      	ldr	r3, [pc, #400]	; (8004774 <HAL_RCC_ClockConfig+0x294>)
 80045e2:	681b      	ldr	r3, [r3, #0]
 80045e4:	f013 0f04 	tst.w	r3, #4
 80045e8:	d106      	bne.n	80045f8 <HAL_RCC_ClockConfig+0x118>
 80045ea:	2001      	movs	r0, #1
 80045ec:	e0bd      	b.n	800476a <HAL_RCC_ClockConfig+0x28a>
 80045ee:	4b61      	ldr	r3, [pc, #388]	; (8004774 <HAL_RCC_ClockConfig+0x294>)
 80045f0:	681b      	ldr	r3, [r3, #0]
 80045f2:	f413 3f00 	tst.w	r3, #131072	; 0x20000
 80045f6:	d03d      	beq.n	8004674 <HAL_RCC_ClockConfig+0x194>
 80045f8:	495e      	ldr	r1, [pc, #376]	; (8004774 <HAL_RCC_ClockConfig+0x294>)
 80045fa:	690b      	ldr	r3, [r1, #16]
 80045fc:	f023 0307 	bic.w	r3, r3, #7
 8004600:	4313      	orrs	r3, r2
 8004602:	610b      	str	r3, [r1, #16]
 8004604:	f7fd f980 	bl	8001908 <HAL_GetTick>
 8004608:	4606      	mov	r6, r0
 800460a:	4f5a      	ldr	r7, [pc, #360]	; (8004774 <HAL_RCC_ClockConfig+0x294>)
 800460c:	f241 3888 	movw	r8, #5000	; 0x1388
 8004610:	693b      	ldr	r3, [r7, #16]
 8004612:	f003 0338 	and.w	r3, r3, #56	; 0x38
 8004616:	6862      	ldr	r2, [r4, #4]
 8004618:	ebb3 0fc2 	cmp.w	r3, r2, lsl #3
 800461c:	d014      	beq.n	8004648 <HAL_RCC_ClockConfig+0x168>
 800461e:	f7fd f973 	bl	8001908 <HAL_GetTick>
 8004622:	1b80      	subs	r0, r0, r6
 8004624:	4540      	cmp	r0, r8
 8004626:	d9f3      	bls.n	8004610 <HAL_RCC_ClockConfig+0x130>
 8004628:	2003      	movs	r0, #3
 800462a:	e09e      	b.n	800476a <HAL_RCC_ClockConfig+0x28a>
 800462c:	4b51      	ldr	r3, [pc, #324]	; (8004774 <HAL_RCC_ClockConfig+0x294>)
 800462e:	681b      	ldr	r3, [r3, #0]
 8004630:	f013 7f00 	tst.w	r3, #33554432	; 0x2000000
 8004634:	d1e0      	bne.n	80045f8 <HAL_RCC_ClockConfig+0x118>
 8004636:	2001      	movs	r0, #1
 8004638:	e097      	b.n	800476a <HAL_RCC_ClockConfig+0x28a>
 800463a:	4b4e      	ldr	r3, [pc, #312]	; (8004774 <HAL_RCC_ClockConfig+0x294>)
 800463c:	681b      	ldr	r3, [r3, #0]
 800463e:	f413 7f80 	tst.w	r3, #256	; 0x100
 8004642:	d1d9      	bne.n	80045f8 <HAL_RCC_ClockConfig+0x118>
 8004644:	2001      	movs	r0, #1
 8004646:	e090      	b.n	800476a <HAL_RCC_ClockConfig+0x28a>
 8004648:	6823      	ldr	r3, [r4, #0]
 800464a:	f013 0f02 	tst.w	r3, #2
 800464e:	d01c      	beq.n	800468a <HAL_RCC_ClockConfig+0x1aa>
 8004650:	68e2      	ldr	r2, [r4, #12]
 8004652:	4b48      	ldr	r3, [pc, #288]	; (8004774 <HAL_RCC_ClockConfig+0x294>)
 8004654:	699b      	ldr	r3, [r3, #24]
 8004656:	f003 030f 	and.w	r3, r3, #15
 800465a:	429a      	cmp	r2, r3
 800465c:	d215      	bcs.n	800468a <HAL_RCC_ClockConfig+0x1aa>
 800465e:	4945      	ldr	r1, [pc, #276]	; (8004774 <HAL_RCC_ClockConfig+0x294>)
 8004660:	698b      	ldr	r3, [r1, #24]
 8004662:	f023 030f 	bic.w	r3, r3, #15
 8004666:	4313      	orrs	r3, r2
 8004668:	618b      	str	r3, [r1, #24]
 800466a:	e00e      	b.n	800468a <HAL_RCC_ClockConfig+0x1aa>
 800466c:	2001      	movs	r0, #1
 800466e:	4770      	bx	lr
 8004670:	2001      	movs	r0, #1
 8004672:	e07a      	b.n	800476a <HAL_RCC_ClockConfig+0x28a>
 8004674:	2001      	movs	r0, #1
 8004676:	e078      	b.n	800476a <HAL_RCC_ClockConfig+0x28a>
 8004678:	2001      	movs	r0, #1
 800467a:	e076      	b.n	800476a <HAL_RCC_ClockConfig+0x28a>
 800467c:	f013 0f01 	tst.w	r3, #1
 8004680:	d1a0      	bne.n	80045c4 <HAL_RCC_ClockConfig+0xe4>
 8004682:	e7e5      	b.n	8004650 <HAL_RCC_ClockConfig+0x170>
 8004684:	f013 0f01 	tst.w	r3, #1
 8004688:	d19c      	bne.n	80045c4 <HAL_RCC_ClockConfig+0xe4>
 800468a:	4b39      	ldr	r3, [pc, #228]	; (8004770 <HAL_RCC_ClockConfig+0x290>)
 800468c:	681b      	ldr	r3, [r3, #0]
 800468e:	f003 030f 	and.w	r3, r3, #15
 8004692:	42ab      	cmp	r3, r5
 8004694:	d90a      	bls.n	80046ac <HAL_RCC_ClockConfig+0x1cc>
 8004696:	4a36      	ldr	r2, [pc, #216]	; (8004770 <HAL_RCC_ClockConfig+0x290>)
 8004698:	6813      	ldr	r3, [r2, #0]
 800469a:	f023 030f 	bic.w	r3, r3, #15
 800469e:	432b      	orrs	r3, r5
 80046a0:	6013      	str	r3, [r2, #0]
 80046a2:	6813      	ldr	r3, [r2, #0]
 80046a4:	f003 030f 	and.w	r3, r3, #15
 80046a8:	42ab      	cmp	r3, r5
 80046aa:	d1e5      	bne.n	8004678 <HAL_RCC_ClockConfig+0x198>
 80046ac:	6823      	ldr	r3, [r4, #0]
 80046ae:	f013 0f04 	tst.w	r3, #4
 80046b2:	d00c      	beq.n	80046ce <HAL_RCC_ClockConfig+0x1ee>
 80046b4:	6922      	ldr	r2, [r4, #16]
 80046b6:	4b2f      	ldr	r3, [pc, #188]	; (8004774 <HAL_RCC_ClockConfig+0x294>)
 80046b8:	699b      	ldr	r3, [r3, #24]
 80046ba:	f003 0370 	and.w	r3, r3, #112	; 0x70
 80046be:	429a      	cmp	r2, r3
 80046c0:	d205      	bcs.n	80046ce <HAL_RCC_ClockConfig+0x1ee>
 80046c2:	492c      	ldr	r1, [pc, #176]	; (8004774 <HAL_RCC_ClockConfig+0x294>)
 80046c4:	698b      	ldr	r3, [r1, #24]
 80046c6:	f023 0370 	bic.w	r3, r3, #112	; 0x70
 80046ca:	4313      	orrs	r3, r2
 80046cc:	618b      	str	r3, [r1, #24]
 80046ce:	6823      	ldr	r3, [r4, #0]
 80046d0:	f013 0f08 	tst.w	r3, #8
 80046d4:	d00c      	beq.n	80046f0 <HAL_RCC_ClockConfig+0x210>
 80046d6:	6962      	ldr	r2, [r4, #20]
 80046d8:	4b26      	ldr	r3, [pc, #152]	; (8004774 <HAL_RCC_ClockConfig+0x294>)
 80046da:	69db      	ldr	r3, [r3, #28]
 80046dc:	f003 0370 	and.w	r3, r3, #112	; 0x70
 80046e0:	429a      	cmp	r2, r3
 80046e2:	d205      	bcs.n	80046f0 <HAL_RCC_ClockConfig+0x210>
 80046e4:	4923      	ldr	r1, [pc, #140]	; (8004774 <HAL_RCC_ClockConfig+0x294>)
 80046e6:	69cb      	ldr	r3, [r1, #28]
 80046e8:	f023 0370 	bic.w	r3, r3, #112	; 0x70
 80046ec:	4313      	orrs	r3, r2
 80046ee:	61cb      	str	r3, [r1, #28]
 80046f0:	6823      	ldr	r3, [r4, #0]
 80046f2:	f013 0f10 	tst.w	r3, #16
 80046f6:	d00c      	beq.n	8004712 <HAL_RCC_ClockConfig+0x232>
 80046f8:	69a2      	ldr	r2, [r4, #24]
 80046fa:	4b1e      	ldr	r3, [pc, #120]	; (8004774 <HAL_RCC_ClockConfig+0x294>)
 80046fc:	69db      	ldr	r3, [r3, #28]
 80046fe:	f403 63e0 	and.w	r3, r3, #1792	; 0x700
 8004702:	429a      	cmp	r2, r3
 8004704:	d205      	bcs.n	8004712 <HAL_RCC_ClockConfig+0x232>
 8004706:	491b      	ldr	r1, [pc, #108]	; (8004774 <HAL_RCC_ClockConfig+0x294>)
 8004708:	69cb      	ldr	r3, [r1, #28]
 800470a:	f423 63e0 	bic.w	r3, r3, #1792	; 0x700
 800470e:	4313      	orrs	r3, r2
 8004710:	61cb      	str	r3, [r1, #28]
 8004712:	6823      	ldr	r3, [r4, #0]
 8004714:	f013 0f20 	tst.w	r3, #32
 8004718:	d00c      	beq.n	8004734 <HAL_RCC_ClockConfig+0x254>
 800471a:	69e2      	ldr	r2, [r4, #28]
 800471c:	4b15      	ldr	r3, [pc, #84]	; (8004774 <HAL_RCC_ClockConfig+0x294>)
 800471e:	6a1b      	ldr	r3, [r3, #32]
 8004720:	f003 0370 	and.w	r3, r3, #112	; 0x70
 8004724:	429a      	cmp	r2, r3
 8004726:	d205      	bcs.n	8004734 <HAL_RCC_ClockConfig+0x254>
 8004728:	4912      	ldr	r1, [pc, #72]	; (8004774 <HAL_RCC_ClockConfig+0x294>)
 800472a:	6a0b      	ldr	r3, [r1, #32]
 800472c:	f023 0370 	bic.w	r3, r3, #112	; 0x70
 8004730:	4313      	orrs	r3, r2
 8004732:	620b      	str	r3, [r1, #32]
 8004734:	f7ff fdda 	bl	80042ec <HAL_RCC_GetSysClockFreq>
 8004738:	490e      	ldr	r1, [pc, #56]	; (8004774 <HAL_RCC_ClockConfig+0x294>)
 800473a:	698b      	ldr	r3, [r1, #24]
 800473c:	4a0e      	ldr	r2, [pc, #56]	; (8004778 <HAL_RCC_ClockConfig+0x298>)
 800473e:	f3c3 2303 	ubfx	r3, r3, #8, #4
 8004742:	5cd3      	ldrb	r3, [r2, r3]
 8004744:	f003 031f 	and.w	r3, r3, #31
 8004748:	40d8      	lsrs	r0, r3
 800474a:	698b      	ldr	r3, [r1, #24]
 800474c:	f003 030f 	and.w	r3, r3, #15
 8004750:	5cd3      	ldrb	r3, [r2, r3]
 8004752:	f003 031f 	and.w	r3, r3, #31
 8004756:	fa20 f303 	lsr.w	r3, r0, r3
 800475a:	4a08      	ldr	r2, [pc, #32]	; (800477c <HAL_RCC_ClockConfig+0x29c>)
 800475c:	6013      	str	r3, [r2, #0]
 800475e:	4b08      	ldr	r3, [pc, #32]	; (8004780 <HAL_RCC_ClockConfig+0x2a0>)
 8004760:	6018      	str	r0, [r3, #0]
 8004762:	4b08      	ldr	r3, [pc, #32]	; (8004784 <HAL_RCC_ClockConfig+0x2a4>)
 8004764:	6818      	ldr	r0, [r3, #0]
 8004766:	f7fd f86f 	bl	8001848 <HAL_InitTick>
 800476a:	e8bd 81f0 	ldmia.w	sp!, {r4, r5, r6, r7, r8, pc}
 800476e:	bf00      	nop
 8004770:	52002000 	.word	0x52002000
 8004774:	58024400 	.word	0x58024400
 8004778:	08006c5c 	.word	0x08006c5c
 800477c:	24000004 	.word	0x24000004
 8004780:	24000000 	.word	0x24000000
 8004784:	2400000c 	.word	0x2400000c

08004788 <HAL_RCC_GetHCLKFreq>:
 8004788:	b508      	push	{r3, lr}
 800478a:	f7ff fdaf 	bl	80042ec <HAL_RCC_GetSysClockFreq>
 800478e:	4a0b      	ldr	r2, [pc, #44]	; (80047bc <HAL_RCC_GetHCLKFreq+0x34>)
 8004790:	6993      	ldr	r3, [r2, #24]
 8004792:	490b      	ldr	r1, [pc, #44]	; (80047c0 <HAL_RCC_GetHCLKFreq+0x38>)
 8004794:	f3c3 2303 	ubfx	r3, r3, #8, #4
 8004798:	5ccb      	ldrb	r3, [r1, r3]
 800479a:	f003 031f 	and.w	r3, r3, #31
 800479e:	fa20 f303 	lsr.w	r3, r0, r3
 80047a2:	6992      	ldr	r2, [r2, #24]
 80047a4:	f002 020f 	and.w	r2, r2, #15
 80047a8:	5c88      	ldrb	r0, [r1, r2]
 80047aa:	f000 001f 	and.w	r0, r0, #31
 80047ae:	fa23 f000 	lsr.w	r0, r3, r0
 80047b2:	4a04      	ldr	r2, [pc, #16]	; (80047c4 <HAL_RCC_GetHCLKFreq+0x3c>)
 80047b4:	6010      	str	r0, [r2, #0]
 80047b6:	4a04      	ldr	r2, [pc, #16]	; (80047c8 <HAL_RCC_GetHCLKFreq+0x40>)
 80047b8:	6013      	str	r3, [r2, #0]
 80047ba:	bd08      	pop	{r3, pc}
 80047bc:	58024400 	.word	0x58024400
 80047c0:	08006c5c 	.word	0x08006c5c
 80047c4:	24000004 	.word	0x24000004
 80047c8:	24000000 	.word	0x24000000

080047cc <HAL_RCC_GetPCLK1Freq>:
 80047cc:	b508      	push	{r3, lr}
 80047ce:	f7ff ffdb 	bl	8004788 <HAL_RCC_GetHCLKFreq>
 80047d2:	4b05      	ldr	r3, [pc, #20]	; (80047e8 <HAL_RCC_GetPCLK1Freq+0x1c>)
 80047d4:	69db      	ldr	r3, [r3, #28]
 80047d6:	f3c3 1302 	ubfx	r3, r3, #4, #3
 80047da:	4a04      	ldr	r2, [pc, #16]	; (80047ec <HAL_RCC_GetPCLK1Freq+0x20>)
 80047dc:	5cd3      	ldrb	r3, [r2, r3]
 80047de:	f003 031f 	and.w	r3, r3, #31
 80047e2:	40d8      	lsrs	r0, r3
 80047e4:	bd08      	pop	{r3, pc}
 80047e6:	bf00      	nop
 80047e8:	58024400 	.word	0x58024400
 80047ec:	08006c5c 	.word	0x08006c5c

080047f0 <HAL_RCC_GetPCLK2Freq>:
 80047f0:	b508      	push	{r3, lr}
 80047f2:	f7ff ffc9 	bl	8004788 <HAL_RCC_GetHCLKFreq>
 80047f6:	4b05      	ldr	r3, [pc, #20]	; (800480c <HAL_RCC_GetPCLK2Freq+0x1c>)
 80047f8:	69db      	ldr	r3, [r3, #28]
 80047fa:	f3c3 2302 	ubfx	r3, r3, #8, #3
 80047fe:	4a04      	ldr	r2, [pc, #16]	; (8004810 <HAL_RCC_GetPCLK2Freq+0x20>)
 8004800:	5cd3      	ldrb	r3, [r2, r3]
 8004802:	f003 031f 	and.w	r3, r3, #31
 8004806:	40d8      	lsrs	r0, r3
 8004808:	bd08      	pop	{r3, pc}
 800480a:	bf00      	nop
 800480c:	58024400 	.word	0x58024400
 8004810:	08006c5c 	.word	0x08006c5c

08004814 <RCCEx_PLL2_Config>:
 8004814:	b5f8      	push	{r3, r4, r5, r6, r7, lr}
 8004816:	4b3e      	ldr	r3, [pc, #248]	; (8004910 <RCCEx_PLL2_Config+0xfc>)
 8004818:	6a9b      	ldr	r3, [r3, #40]	; 0x28
 800481a:	f003 0303 	and.w	r3, r3, #3
 800481e:	2b03      	cmp	r3, #3
 8004820:	d074      	beq.n	800490c <RCCEx_PLL2_Config+0xf8>
 8004822:	4606      	mov	r6, r0
 8004824:	460f      	mov	r7, r1
 8004826:	4a3a      	ldr	r2, [pc, #232]	; (8004910 <RCCEx_PLL2_Config+0xfc>)
 8004828:	6813      	ldr	r3, [r2, #0]
 800482a:	f023 6380 	bic.w	r3, r3, #67108864	; 0x4000000
 800482e:	6013      	str	r3, [r2, #0]
 8004830:	f7fd f86a 	bl	8001908 <HAL_GetTick>
 8004834:	4604      	mov	r4, r0
 8004836:	4d36      	ldr	r5, [pc, #216]	; (8004910 <RCCEx_PLL2_Config+0xfc>)
 8004838:	682b      	ldr	r3, [r5, #0]
 800483a:	f013 6f00 	tst.w	r3, #134217728	; 0x8000000
 800483e:	d006      	beq.n	800484e <RCCEx_PLL2_Config+0x3a>
 8004840:	f7fd f862 	bl	8001908 <HAL_GetTick>
 8004844:	1b03      	subs	r3, r0, r4
 8004846:	2b02      	cmp	r3, #2
 8004848:	d9f6      	bls.n	8004838 <RCCEx_PLL2_Config+0x24>
 800484a:	2003      	movs	r0, #3
 800484c:	e05f      	b.n	800490e <RCCEx_PLL2_Config+0xfa>
 800484e:	4b30      	ldr	r3, [pc, #192]	; (8004910 <RCCEx_PLL2_Config+0xfc>)
 8004850:	6a9a      	ldr	r2, [r3, #40]	; 0x28
 8004852:	6831      	ldr	r1, [r6, #0]
 8004854:	f422 327c 	bic.w	r2, r2, #258048	; 0x3f000
 8004858:	ea42 3201 	orr.w	r2, r2, r1, lsl #12
 800485c:	629a      	str	r2, [r3, #40]	; 0x28
 800485e:	68b2      	ldr	r2, [r6, #8]
 8004860:	3a01      	subs	r2, #1
 8004862:	0252      	lsls	r2, r2, #9
 8004864:	b292      	uxth	r2, r2
 8004866:	68f1      	ldr	r1, [r6, #12]
 8004868:	3901      	subs	r1, #1
 800486a:	0409      	lsls	r1, r1, #16
 800486c:	f401 01fe 	and.w	r1, r1, #8323072	; 0x7f0000
 8004870:	430a      	orrs	r2, r1
 8004872:	6871      	ldr	r1, [r6, #4]
 8004874:	3901      	subs	r1, #1
 8004876:	f3c1 0108 	ubfx	r1, r1, #0, #9
 800487a:	430a      	orrs	r2, r1
 800487c:	6931      	ldr	r1, [r6, #16]
 800487e:	3901      	subs	r1, #1
 8004880:	0609      	lsls	r1, r1, #24
 8004882:	f001 41fe 	and.w	r1, r1, #2130706432	; 0x7f000000
 8004886:	430a      	orrs	r2, r1
 8004888:	639a      	str	r2, [r3, #56]	; 0x38
 800488a:	6ada      	ldr	r2, [r3, #44]	; 0x2c
 800488c:	f022 02c0 	bic.w	r2, r2, #192	; 0xc0
 8004890:	6971      	ldr	r1, [r6, #20]
 8004892:	430a      	orrs	r2, r1
 8004894:	62da      	str	r2, [r3, #44]	; 0x2c
 8004896:	6ada      	ldr	r2, [r3, #44]	; 0x2c
 8004898:	f022 0220 	bic.w	r2, r2, #32
 800489c:	69b1      	ldr	r1, [r6, #24]
 800489e:	430a      	orrs	r2, r1
 80048a0:	62da      	str	r2, [r3, #44]	; 0x2c
 80048a2:	6ada      	ldr	r2, [r3, #44]	; 0x2c
 80048a4:	f022 0210 	bic.w	r2, r2, #16
 80048a8:	62da      	str	r2, [r3, #44]	; 0x2c
 80048aa:	6bd8      	ldr	r0, [r3, #60]	; 0x3c
 80048ac:	69f1      	ldr	r1, [r6, #28]
 80048ae:	4a19      	ldr	r2, [pc, #100]	; (8004914 <RCCEx_PLL2_Config+0x100>)
 80048b0:	4002      	ands	r2, r0
 80048b2:	ea42 02c1 	orr.w	r2, r2, r1, lsl #3
 80048b6:	63da      	str	r2, [r3, #60]	; 0x3c
 80048b8:	6ada      	ldr	r2, [r3, #44]	; 0x2c
 80048ba:	f042 0210 	orr.w	r2, r2, #16
 80048be:	62da      	str	r2, [r3, #44]	; 0x2c
 80048c0:	b9c7      	cbnz	r7, 80048f4 <RCCEx_PLL2_Config+0xe0>
 80048c2:	461a      	mov	r2, r3
 80048c4:	6adb      	ldr	r3, [r3, #44]	; 0x2c
 80048c6:	f443 2300 	orr.w	r3, r3, #524288	; 0x80000
 80048ca:	62d3      	str	r3, [r2, #44]	; 0x2c
 80048cc:	4a10      	ldr	r2, [pc, #64]	; (8004910 <RCCEx_PLL2_Config+0xfc>)
 80048ce:	6813      	ldr	r3, [r2, #0]
 80048d0:	f043 6380 	orr.w	r3, r3, #67108864	; 0x4000000
 80048d4:	6013      	str	r3, [r2, #0]
 80048d6:	f7fd f817 	bl	8001908 <HAL_GetTick>
 80048da:	4604      	mov	r4, r0
 80048dc:	4d0c      	ldr	r5, [pc, #48]	; (8004910 <RCCEx_PLL2_Config+0xfc>)
 80048de:	682b      	ldr	r3, [r5, #0]
 80048e0:	f013 6f00 	tst.w	r3, #134217728	; 0x8000000
 80048e4:	d110      	bne.n	8004908 <RCCEx_PLL2_Config+0xf4>
 80048e6:	f7fd f80f 	bl	8001908 <HAL_GetTick>
 80048ea:	1b00      	subs	r0, r0, r4
 80048ec:	2802      	cmp	r0, #2
 80048ee:	d9f6      	bls.n	80048de <RCCEx_PLL2_Config+0xca>
 80048f0:	2003      	movs	r0, #3
 80048f2:	e00c      	b.n	800490e <RCCEx_PLL2_Config+0xfa>
 80048f4:	2f01      	cmp	r7, #1
 80048f6:	4a06      	ldr	r2, [pc, #24]	; (8004910 <RCCEx_PLL2_Config+0xfc>)
 80048f8:	6ad3      	ldr	r3, [r2, #44]	; 0x2c
 80048fa:	bf0c      	ite	eq
 80048fc:	f443 1380 	orreq.w	r3, r3, #1048576	; 0x100000
 8004900:	f443 1300 	orrne.w	r3, r3, #2097152	; 0x200000
 8004904:	62d3      	str	r3, [r2, #44]	; 0x2c
 8004906:	e7e1      	b.n	80048cc <RCCEx_PLL2_Config+0xb8>
 8004908:	2000      	movs	r0, #0
 800490a:	e000      	b.n	800490e <RCCEx_PLL2_Config+0xfa>
 800490c:	2001      	movs	r0, #1
 800490e:	bdf8      	pop	{r3, r4, r5, r6, r7, pc}
 8004910:	58024400 	.word	0x58024400
 8004914:	ffff0007 	.word	0xffff0007

08004918 <RCCEx_PLL3_Config>:
 8004918:	b5f8      	push	{r3, r4, r5, r6, r7, lr}
 800491a:	4b3e      	ldr	r3, [pc, #248]	; (8004a14 <RCCEx_PLL3_Config+0xfc>)
 800491c:	6a9b      	ldr	r3, [r3, #40]	; 0x28
 800491e:	f003 0303 	and.w	r3, r3, #3
 8004922:	2b03      	cmp	r3, #3
 8004924:	d074      	beq.n	8004a10 <RCCEx_PLL3_Config+0xf8>
 8004926:	4606      	mov	r6, r0
 8004928:	460f      	mov	r7, r1
 800492a:	4a3a      	ldr	r2, [pc, #232]	; (8004a14 <RCCEx_PLL3_Config+0xfc>)
 800492c:	6813      	ldr	r3, [r2, #0]
 800492e:	f023 5380 	bic.w	r3, r3, #268435456	; 0x10000000
 8004932:	6013      	str	r3, [r2, #0]
 8004934:	f7fc ffe8 	bl	8001908 <HAL_GetTick>
 8004938:	4604      	mov	r4, r0
 800493a:	4d36      	ldr	r5, [pc, #216]	; (8004a14 <RCCEx_PLL3_Config+0xfc>)
 800493c:	682b      	ldr	r3, [r5, #0]
 800493e:	f013 5f00 	tst.w	r3, #536870912	; 0x20000000
 8004942:	d006      	beq.n	8004952 <RCCEx_PLL3_Config+0x3a>
 8004944:	f7fc ffe0 	bl	8001908 <HAL_GetTick>
 8004948:	1b03      	subs	r3, r0, r4
 800494a:	2b02      	cmp	r3, #2
 800494c:	d9f6      	bls.n	800493c <RCCEx_PLL3_Config+0x24>
 800494e:	2003      	movs	r0, #3
 8004950:	e05f      	b.n	8004a12 <RCCEx_PLL3_Config+0xfa>
 8004952:	4b30      	ldr	r3, [pc, #192]	; (8004a14 <RCCEx_PLL3_Config+0xfc>)
 8004954:	6a9a      	ldr	r2, [r3, #40]	; 0x28
 8004956:	6831      	ldr	r1, [r6, #0]
 8004958:	f022 727c 	bic.w	r2, r2, #66060288	; 0x3f00000
 800495c:	ea42 5201 	orr.w	r2, r2, r1, lsl #20
 8004960:	629a      	str	r2, [r3, #40]	; 0x28
 8004962:	68b2      	ldr	r2, [r6, #8]
 8004964:	3a01      	subs	r2, #1
 8004966:	0252      	lsls	r2, r2, #9
 8004968:	b292      	uxth	r2, r2
 800496a:	68f1      	ldr	r1, [r6, #12]
 800496c:	3901      	subs	r1, #1
 800496e:	0409      	lsls	r1, r1, #16
 8004970:	f401 01fe 	and.w	r1, r1, #8323072	; 0x7f0000
 8004974:	430a      	orrs	r2, r1
 8004976:	6871      	ldr	r1, [r6, #4]
 8004978:	3901      	subs	r1, #1
 800497a:	f3c1 0108 	ubfx	r1, r1, #0, #9
 800497e:	430a      	orrs	r2, r1
 8004980:	6931      	ldr	r1, [r6, #16]
 8004982:	3901      	subs	r1, #1
 8004984:	0609      	lsls	r1, r1, #24
 8004986:	f001 41fe 	and.w	r1, r1, #2130706432	; 0x7f000000
 800498a:	430a      	orrs	r2, r1
 800498c:	641a      	str	r2, [r3, #64]	; 0x40
 800498e:	6ada      	ldr	r2, [r3, #44]	; 0x2c
 8004990:	f422 6240 	bic.w	r2, r2, #3072	; 0xc00
 8004994:	6971      	ldr	r1, [r6, #20]
 8004996:	430a      	orrs	r2, r1
 8004998:	62da      	str	r2, [r3, #44]	; 0x2c
 800499a:	6ada      	ldr	r2, [r3, #44]	; 0x2c
 800499c:	f422 7200 	bic.w	r2, r2, #512	; 0x200
 80049a0:	69b1      	ldr	r1, [r6, #24]
 80049a2:	430a      	orrs	r2, r1
 80049a4:	62da      	str	r2, [r3, #44]	; 0x2c
 80049a6:	6ada      	ldr	r2, [r3, #44]	; 0x2c
 80049a8:	f422 7280 	bic.w	r2, r2, #256	; 0x100
 80049ac:	62da      	str	r2, [r3, #44]	; 0x2c
 80049ae:	6c58      	ldr	r0, [r3, #68]	; 0x44
 80049b0:	69f1      	ldr	r1, [r6, #28]
 80049b2:	4a19      	ldr	r2, [pc, #100]	; (8004a18 <RCCEx_PLL3_Config+0x100>)
 80049b4:	4002      	ands	r2, r0
 80049b6:	ea42 02c1 	orr.w	r2, r2, r1, lsl #3
 80049ba:	645a      	str	r2, [r3, #68]	; 0x44
 80049bc:	6ada      	ldr	r2, [r3, #44]	; 0x2c
 80049be:	f442 7280 	orr.w	r2, r2, #256	; 0x100
 80049c2:	62da      	str	r2, [r3, #44]	; 0x2c
 80049c4:	b9c7      	cbnz	r7, 80049f8 <RCCEx_PLL3_Config+0xe0>
 80049c6:	461a      	mov	r2, r3
 80049c8:	6adb      	ldr	r3, [r3, #44]	; 0x2c
 80049ca:	f443 0380 	orr.w	r3, r3, #4194304	; 0x400000
 80049ce:	62d3      	str	r3, [r2, #44]	; 0x2c
 80049d0:	4a10      	ldr	r2, [pc, #64]	; (8004a14 <RCCEx_PLL3_Config+0xfc>)
 80049d2:	6813      	ldr	r3, [r2, #0]
 80049d4:	f043 5380 	orr.w	r3, r3, #268435456	; 0x10000000
 80049d8:	6013      	str	r3, [r2, #0]
 80049da:	f7fc ff95 	bl	8001908 <HAL_GetTick>
 80049de:	4604      	mov	r4, r0
 80049e0:	4d0c      	ldr	r5, [pc, #48]	; (8004a14 <RCCEx_PLL3_Config+0xfc>)
 80049e2:	682b      	ldr	r3, [r5, #0]
 80049e4:	f013 5f00 	tst.w	r3, #536870912	; 0x20000000
 80049e8:	d110      	bne.n	8004a0c <RCCEx_PLL3_Config+0xf4>
 80049ea:	f7fc ff8d 	bl	8001908 <HAL_GetTick>
 80049ee:	1b00      	subs	r0, r0, r4
 80049f0:	2802      	cmp	r0, #2
 80049f2:	d9f6      	bls.n	80049e2 <RCCEx_PLL3_Config+0xca>
 80049f4:	2003      	movs	r0, #3
 80049f6:	e00c      	b.n	8004a12 <RCCEx_PLL3_Config+0xfa>
 80049f8:	2f01      	cmp	r7, #1
 80049fa:	4a06      	ldr	r2, [pc, #24]	; (8004a14 <RCCEx_PLL3_Config+0xfc>)
 80049fc:	6ad3      	ldr	r3, [r2, #44]	; 0x2c
 80049fe:	bf0c      	ite	eq
 8004a00:	f443 0300 	orreq.w	r3, r3, #8388608	; 0x800000
 8004a04:	f043 7380 	orrne.w	r3, r3, #16777216	; 0x1000000
 8004a08:	62d3      	str	r3, [r2, #44]	; 0x2c
 8004a0a:	e7e1      	b.n	80049d0 <RCCEx_PLL3_Config+0xb8>
 8004a0c:	2000      	movs	r0, #0
 8004a0e:	e000      	b.n	8004a12 <RCCEx_PLL3_Config+0xfa>
 8004a10:	2001      	movs	r0, #1
 8004a12:	bdf8      	pop	{r3, r4, r5, r6, r7, pc}
 8004a14:	58024400 	.word	0x58024400
 8004a18:	ffff0007 	.word	0xffff0007

08004a1c <HAL_RCCEx_PeriphCLKConfig>:
 8004a1c:	e92d 43f8 	stmdb	sp!, {r3, r4, r5, r6, r7, r8, r9, lr}
 8004a20:	4604      	mov	r4, r0
 8004a22:	6803      	ldr	r3, [r0, #0]
 8004a24:	f013 6f00 	tst.w	r3, #134217728	; 0x8000000
 8004a28:	d02b      	beq.n	8004a82 <HAL_RCCEx_PeriphCLKConfig+0x66>
 8004a2a:	6e43      	ldr	r3, [r0, #100]	; 0x64
 8004a2c:	f5b3 1f00 	cmp.w	r3, #2097152	; 0x200000
 8004a30:	d021      	beq.n	8004a76 <HAL_RCCEx_PeriphCLKConfig+0x5a>
 8004a32:	d80c      	bhi.n	8004a4e <HAL_RCCEx_PeriphCLKConfig+0x32>
 8004a34:	b1cb      	cbz	r3, 8004a6a <HAL_RCCEx_PeriphCLKConfig+0x4e>
 8004a36:	f5b3 1f80 	cmp.w	r3, #1048576	; 0x100000
 8004a3a:	d106      	bne.n	8004a4a <HAL_RCCEx_PeriphCLKConfig+0x2e>
 8004a3c:	2102      	movs	r1, #2
 8004a3e:	3004      	adds	r0, #4
 8004a40:	f7ff fee8 	bl	8004814 <RCCEx_PLL2_Config>
 8004a44:	4606      	mov	r6, r0
 8004a46:	b9ee      	cbnz	r6, 8004a84 <HAL_RCCEx_PeriphCLKConfig+0x68>
 8004a48:	e004      	b.n	8004a54 <HAL_RCCEx_PeriphCLKConfig+0x38>
 8004a4a:	2601      	movs	r6, #1
 8004a4c:	e01a      	b.n	8004a84 <HAL_RCCEx_PeriphCLKConfig+0x68>
 8004a4e:	f5b3 1f40 	cmp.w	r3, #3145728	; 0x300000
 8004a52:	d108      	bne.n	8004a66 <HAL_RCCEx_PeriphCLKConfig+0x4a>
 8004a54:	4a96      	ldr	r2, [pc, #600]	; (8004cb0 <HAL_RCCEx_PeriphCLKConfig+0x294>)
 8004a56:	6d13      	ldr	r3, [r2, #80]	; 0x50
 8004a58:	f423 1340 	bic.w	r3, r3, #3145728	; 0x300000
 8004a5c:	6e61      	ldr	r1, [r4, #100]	; 0x64
 8004a5e:	430b      	orrs	r3, r1
 8004a60:	6513      	str	r3, [r2, #80]	; 0x50
 8004a62:	2600      	movs	r6, #0
 8004a64:	e00e      	b.n	8004a84 <HAL_RCCEx_PeriphCLKConfig+0x68>
 8004a66:	2601      	movs	r6, #1
 8004a68:	e00c      	b.n	8004a84 <HAL_RCCEx_PeriphCLKConfig+0x68>
 8004a6a:	4a91      	ldr	r2, [pc, #580]	; (8004cb0 <HAL_RCCEx_PeriphCLKConfig+0x294>)
 8004a6c:	6ad3      	ldr	r3, [r2, #44]	; 0x2c
 8004a6e:	f443 3300 	orr.w	r3, r3, #131072	; 0x20000
 8004a72:	62d3      	str	r3, [r2, #44]	; 0x2c
 8004a74:	e7ee      	b.n	8004a54 <HAL_RCCEx_PeriphCLKConfig+0x38>
 8004a76:	2102      	movs	r1, #2
 8004a78:	3024      	adds	r0, #36	; 0x24
 8004a7a:	f7ff ff4d 	bl	8004918 <RCCEx_PLL3_Config>
 8004a7e:	4606      	mov	r6, r0
 8004a80:	e7e1      	b.n	8004a46 <HAL_RCCEx_PeriphCLKConfig+0x2a>
 8004a82:	2600      	movs	r6, #0
 8004a84:	6823      	ldr	r3, [r4, #0]
 8004a86:	f413 7f80 	tst.w	r3, #256	; 0x100
 8004a8a:	d025      	beq.n	8004ad8 <HAL_RCCEx_PeriphCLKConfig+0xbc>
 8004a8c:	6d63      	ldr	r3, [r4, #84]	; 0x54
 8004a8e:	2b04      	cmp	r3, #4
 8004a90:	d834      	bhi.n	8004afc <HAL_RCCEx_PeriphCLKConfig+0xe0>
 8004a92:	e8df f003 	tbb	[pc, r3]
 8004a96:	0a03      	.short	0x0a03
 8004a98:	1710      	.short	0x1710
 8004a9a:	17          	.byte	0x17
 8004a9b:	00          	.byte	0x00
 8004a9c:	4a84      	ldr	r2, [pc, #528]	; (8004cb0 <HAL_RCCEx_PeriphCLKConfig+0x294>)
 8004a9e:	6ad3      	ldr	r3, [r2, #44]	; 0x2c
 8004aa0:	f443 3300 	orr.w	r3, r3, #131072	; 0x20000
 8004aa4:	62d3      	str	r3, [r2, #44]	; 0x2c
 8004aa6:	4635      	mov	r5, r6
 8004aa8:	e00d      	b.n	8004ac6 <HAL_RCCEx_PeriphCLKConfig+0xaa>
 8004aaa:	2100      	movs	r1, #0
 8004aac:	1d20      	adds	r0, r4, #4
 8004aae:	f7ff feb1 	bl	8004814 <RCCEx_PLL2_Config>
 8004ab2:	4605      	mov	r5, r0
 8004ab4:	e007      	b.n	8004ac6 <HAL_RCCEx_PeriphCLKConfig+0xaa>
 8004ab6:	2100      	movs	r1, #0
 8004ab8:	f104 0024 	add.w	r0, r4, #36	; 0x24
 8004abc:	f7ff ff2c 	bl	8004918 <RCCEx_PLL3_Config>
 8004ac0:	4605      	mov	r5, r0
 8004ac2:	e000      	b.n	8004ac6 <HAL_RCCEx_PeriphCLKConfig+0xaa>
 8004ac4:	4635      	mov	r5, r6
 8004ac6:	b9e5      	cbnz	r5, 8004b02 <HAL_RCCEx_PeriphCLKConfig+0xe6>
 8004ac8:	4a79      	ldr	r2, [pc, #484]	; (8004cb0 <HAL_RCCEx_PeriphCLKConfig+0x294>)
 8004aca:	6d13      	ldr	r3, [r2, #80]	; 0x50
 8004acc:	f023 0307 	bic.w	r3, r3, #7
 8004ad0:	6d61      	ldr	r1, [r4, #84]	; 0x54
 8004ad2:	430b      	orrs	r3, r1
 8004ad4:	6513      	str	r3, [r2, #80]	; 0x50
 8004ad6:	e000      	b.n	8004ada <HAL_RCCEx_PeriphCLKConfig+0xbe>
 8004ad8:	4635      	mov	r5, r6
 8004ada:	6823      	ldr	r3, [r4, #0]
 8004adc:	f413 7f00 	tst.w	r3, #512	; 0x200
 8004ae0:	d021      	beq.n	8004b26 <HAL_RCCEx_PeriphCLKConfig+0x10a>
 8004ae2:	6da3      	ldr	r3, [r4, #88]	; 0x58
 8004ae4:	2b80      	cmp	r3, #128	; 0x80
 8004ae6:	d03c      	beq.n	8004b62 <HAL_RCCEx_PeriphCLKConfig+0x146>
 8004ae8:	d810      	bhi.n	8004b0c <HAL_RCCEx_PeriphCLKConfig+0xf0>
 8004aea:	b3a3      	cbz	r3, 8004b56 <HAL_RCCEx_PeriphCLKConfig+0x13a>
 8004aec:	2b40      	cmp	r3, #64	; 0x40
 8004aee:	d10a      	bne.n	8004b06 <HAL_RCCEx_PeriphCLKConfig+0xea>
 8004af0:	2100      	movs	r1, #0
 8004af2:	1d20      	adds	r0, r4, #4
 8004af4:	f7ff fe8e 	bl	8004814 <RCCEx_PLL2_Config>
 8004af8:	4605      	mov	r5, r0
 8004afa:	e00c      	b.n	8004b16 <HAL_RCCEx_PeriphCLKConfig+0xfa>
 8004afc:	2601      	movs	r6, #1
 8004afe:	4635      	mov	r5, r6
 8004b00:	e7eb      	b.n	8004ada <HAL_RCCEx_PeriphCLKConfig+0xbe>
 8004b02:	462e      	mov	r6, r5
 8004b04:	e7e9      	b.n	8004ada <HAL_RCCEx_PeriphCLKConfig+0xbe>
 8004b06:	2601      	movs	r6, #1
 8004b08:	4635      	mov	r5, r6
 8004b0a:	e00c      	b.n	8004b26 <HAL_RCCEx_PeriphCLKConfig+0x10a>
 8004b0c:	2bc0      	cmp	r3, #192	; 0xc0
 8004b0e:	d002      	beq.n	8004b16 <HAL_RCCEx_PeriphCLKConfig+0xfa>
 8004b10:	f5b3 7f80 	cmp.w	r3, #256	; 0x100
 8004b14:	d11c      	bne.n	8004b50 <HAL_RCCEx_PeriphCLKConfig+0x134>
 8004b16:	bb5d      	cbnz	r5, 8004b70 <HAL_RCCEx_PeriphCLKConfig+0x154>
 8004b18:	4a65      	ldr	r2, [pc, #404]	; (8004cb0 <HAL_RCCEx_PeriphCLKConfig+0x294>)
 8004b1a:	6d13      	ldr	r3, [r2, #80]	; 0x50
 8004b1c:	f423 73e0 	bic.w	r3, r3, #448	; 0x1c0
 8004b20:	6da1      	ldr	r1, [r4, #88]	; 0x58
 8004b22:	430b      	orrs	r3, r1
 8004b24:	6513      	str	r3, [r2, #80]	; 0x50
 8004b26:	6823      	ldr	r3, [r4, #0]
 8004b28:	f413 6f80 	tst.w	r3, #1024	; 0x400
 8004b2c:	d034      	beq.n	8004b98 <HAL_RCCEx_PeriphCLKConfig+0x17c>
 8004b2e:	f8d4 30a4 	ldr.w	r3, [r4, #164]	; 0xa4
 8004b32:	f5b3 0f80 	cmp.w	r3, #4194304	; 0x400000
 8004b36:	d04d      	beq.n	8004bd4 <HAL_RCCEx_PeriphCLKConfig+0x1b8>
 8004b38:	d81f      	bhi.n	8004b7a <HAL_RCCEx_PeriphCLKConfig+0x15e>
 8004b3a:	2b00      	cmp	r3, #0
 8004b3c:	d044      	beq.n	8004bc8 <HAL_RCCEx_PeriphCLKConfig+0x1ac>
 8004b3e:	f5b3 1f00 	cmp.w	r3, #2097152	; 0x200000
 8004b42:	d117      	bne.n	8004b74 <HAL_RCCEx_PeriphCLKConfig+0x158>
 8004b44:	2100      	movs	r1, #0
 8004b46:	1d20      	adds	r0, r4, #4
 8004b48:	f7ff fe64 	bl	8004814 <RCCEx_PLL2_Config>
 8004b4c:	4605      	mov	r5, r0
 8004b4e:	e01a      	b.n	8004b86 <HAL_RCCEx_PeriphCLKConfig+0x16a>
 8004b50:	2601      	movs	r6, #1
 8004b52:	4635      	mov	r5, r6
 8004b54:	e7e7      	b.n	8004b26 <HAL_RCCEx_PeriphCLKConfig+0x10a>
 8004b56:	4a56      	ldr	r2, [pc, #344]	; (8004cb0 <HAL_RCCEx_PeriphCLKConfig+0x294>)
 8004b58:	6ad3      	ldr	r3, [r2, #44]	; 0x2c
 8004b5a:	f443 3300 	orr.w	r3, r3, #131072	; 0x20000
 8004b5e:	62d3      	str	r3, [r2, #44]	; 0x2c
 8004b60:	e7d9      	b.n	8004b16 <HAL_RCCEx_PeriphCLKConfig+0xfa>
 8004b62:	2100      	movs	r1, #0
 8004b64:	f104 0024 	add.w	r0, r4, #36	; 0x24
 8004b68:	f7ff fed6 	bl	8004918 <RCCEx_PLL3_Config>
 8004b6c:	4605      	mov	r5, r0
 8004b6e:	e7d2      	b.n	8004b16 <HAL_RCCEx_PeriphCLKConfig+0xfa>
 8004b70:	462e      	mov	r6, r5
 8004b72:	e7d8      	b.n	8004b26 <HAL_RCCEx_PeriphCLKConfig+0x10a>
 8004b74:	2601      	movs	r6, #1
 8004b76:	4635      	mov	r5, r6
 8004b78:	e00e      	b.n	8004b98 <HAL_RCCEx_PeriphCLKConfig+0x17c>
 8004b7a:	f5b3 0fc0 	cmp.w	r3, #6291456	; 0x600000
 8004b7e:	d002      	beq.n	8004b86 <HAL_RCCEx_PeriphCLKConfig+0x16a>
 8004b80:	f5b3 0f00 	cmp.w	r3, #8388608	; 0x800000
 8004b84:	d11d      	bne.n	8004bc2 <HAL_RCCEx_PeriphCLKConfig+0x1a6>
 8004b86:	bb65      	cbnz	r5, 8004be2 <HAL_RCCEx_PeriphCLKConfig+0x1c6>
 8004b88:	4a49      	ldr	r2, [pc, #292]	; (8004cb0 <HAL_RCCEx_PeriphCLKConfig+0x294>)
 8004b8a:	6d93      	ldr	r3, [r2, #88]	; 0x58
 8004b8c:	f423 0360 	bic.w	r3, r3, #14680064	; 0xe00000
 8004b90:	f8d4 10a4 	ldr.w	r1, [r4, #164]	; 0xa4
 8004b94:	430b      	orrs	r3, r1
 8004b96:	6593      	str	r3, [r2, #88]	; 0x58
 8004b98:	6823      	ldr	r3, [r4, #0]
 8004b9a:	f413 6f00 	tst.w	r3, #2048	; 0x800
 8004b9e:	d035      	beq.n	8004c0c <HAL_RCCEx_PeriphCLKConfig+0x1f0>
 8004ba0:	f8d4 30a8 	ldr.w	r3, [r4, #168]	; 0xa8
 8004ba4:	f1b3 7f00 	cmp.w	r3, #33554432	; 0x2000000
 8004ba8:	d053      	beq.n	8004c52 <HAL_RCCEx_PeriphCLKConfig+0x236>
 8004baa:	d81f      	bhi.n	8004bec <HAL_RCCEx_PeriphCLKConfig+0x1d0>
 8004bac:	2b00      	cmp	r3, #0
 8004bae:	d04a      	beq.n	8004c46 <HAL_RCCEx_PeriphCLKConfig+0x22a>
 8004bb0:	f1b3 7f80 	cmp.w	r3, #16777216	; 0x1000000
 8004bb4:	d117      	bne.n	8004be6 <HAL_RCCEx_PeriphCLKConfig+0x1ca>
 8004bb6:	2100      	movs	r1, #0
 8004bb8:	1d20      	adds	r0, r4, #4
 8004bba:	f7ff fe2b 	bl	8004814 <RCCEx_PLL2_Config>
 8004bbe:	4605      	mov	r5, r0
 8004bc0:	e01a      	b.n	8004bf8 <HAL_RCCEx_PeriphCLKConfig+0x1dc>
 8004bc2:	2601      	movs	r6, #1
 8004bc4:	4635      	mov	r5, r6
 8004bc6:	e7e7      	b.n	8004b98 <HAL_RCCEx_PeriphCLKConfig+0x17c>
 8004bc8:	4a39      	ldr	r2, [pc, #228]	; (8004cb0 <HAL_RCCEx_PeriphCLKConfig+0x294>)
 8004bca:	6ad3      	ldr	r3, [r2, #44]	; 0x2c
 8004bcc:	f443 3300 	orr.w	r3, r3, #131072	; 0x20000
 8004bd0:	62d3      	str	r3, [r2, #44]	; 0x2c
 8004bd2:	e7d8      	b.n	8004b86 <HAL_RCCEx_PeriphCLKConfig+0x16a>
 8004bd4:	2100      	movs	r1, #0
 8004bd6:	f104 0024 	add.w	r0, r4, #36	; 0x24
 8004bda:	f7ff fe9d 	bl	8004918 <RCCEx_PLL3_Config>
 8004bde:	4605      	mov	r5, r0
 8004be0:	e7d1      	b.n	8004b86 <HAL_RCCEx_PeriphCLKConfig+0x16a>
 8004be2:	462e      	mov	r6, r5
 8004be4:	e7d8      	b.n	8004b98 <HAL_RCCEx_PeriphCLKConfig+0x17c>
 8004be6:	2601      	movs	r6, #1
 8004be8:	4635      	mov	r5, r6
 8004bea:	e00f      	b.n	8004c0c <HAL_RCCEx_PeriphCLKConfig+0x1f0>
 8004bec:	f1b3 7f40 	cmp.w	r3, #50331648	; 0x3000000
 8004bf0:	d002      	beq.n	8004bf8 <HAL_RCCEx_PeriphCLKConfig+0x1dc>
 8004bf2:	f1b3 6f80 	cmp.w	r3, #67108864	; 0x4000000
 8004bf6:	d123      	bne.n	8004c40 <HAL_RCCEx_PeriphCLKConfig+0x224>
 8004bf8:	2d00      	cmp	r5, #0
 8004bfa:	d131      	bne.n	8004c60 <HAL_RCCEx_PeriphCLKConfig+0x244>
 8004bfc:	4a2c      	ldr	r2, [pc, #176]	; (8004cb0 <HAL_RCCEx_PeriphCLKConfig+0x294>)
 8004bfe:	6d93      	ldr	r3, [r2, #88]	; 0x58
 8004c00:	f023 63e0 	bic.w	r3, r3, #117440512	; 0x7000000
 8004c04:	f8d4 10a8 	ldr.w	r1, [r4, #168]	; 0xa8
 8004c08:	430b      	orrs	r3, r1
 8004c0a:	6593      	str	r3, [r2, #88]	; 0x58
 8004c0c:	6823      	ldr	r3, [r4, #0]
 8004c0e:	f013 7f00 	tst.w	r3, #33554432	; 0x2000000
 8004c12:	d02e      	beq.n	8004c72 <HAL_RCCEx_PeriphCLKConfig+0x256>
 8004c14:	6ca3      	ldr	r3, [r4, #72]	; 0x48
 8004c16:	2b20      	cmp	r3, #32
 8004c18:	d03f      	beq.n	8004c9a <HAL_RCCEx_PeriphCLKConfig+0x27e>
 8004c1a:	d826      	bhi.n	8004c6a <HAL_RCCEx_PeriphCLKConfig+0x24e>
 8004c1c:	b133      	cbz	r3, 8004c2c <HAL_RCCEx_PeriphCLKConfig+0x210>
 8004c1e:	2b10      	cmp	r3, #16
 8004c20:	d120      	bne.n	8004c64 <HAL_RCCEx_PeriphCLKConfig+0x248>
 8004c22:	4a23      	ldr	r2, [pc, #140]	; (8004cb0 <HAL_RCCEx_PeriphCLKConfig+0x294>)
 8004c24:	6ad3      	ldr	r3, [r2, #44]	; 0x2c
 8004c26:	f443 3300 	orr.w	r3, r3, #131072	; 0x20000
 8004c2a:	62d3      	str	r3, [r2, #44]	; 0x2c
 8004c2c:	2d00      	cmp	r5, #0
 8004c2e:	d13a      	bne.n	8004ca6 <HAL_RCCEx_PeriphCLKConfig+0x28a>
 8004c30:	4a1f      	ldr	r2, [pc, #124]	; (8004cb0 <HAL_RCCEx_PeriphCLKConfig+0x294>)
 8004c32:	6cd3      	ldr	r3, [r2, #76]	; 0x4c
 8004c34:	f023 0330 	bic.w	r3, r3, #48	; 0x30
 8004c38:	6ca1      	ldr	r1, [r4, #72]	; 0x48
 8004c3a:	430b      	orrs	r3, r1
 8004c3c:	64d3      	str	r3, [r2, #76]	; 0x4c
 8004c3e:	e018      	b.n	8004c72 <HAL_RCCEx_PeriphCLKConfig+0x256>
 8004c40:	2601      	movs	r6, #1
 8004c42:	4635      	mov	r5, r6
 8004c44:	e7e2      	b.n	8004c0c <HAL_RCCEx_PeriphCLKConfig+0x1f0>
 8004c46:	4a1a      	ldr	r2, [pc, #104]	; (8004cb0 <HAL_RCCEx_PeriphCLKConfig+0x294>)
 8004c48:	6ad3      	ldr	r3, [r2, #44]	; 0x2c
 8004c4a:	f443 3300 	orr.w	r3, r3, #131072	; 0x20000
 8004c4e:	62d3      	str	r3, [r2, #44]	; 0x2c
 8004c50:	e7d2      	b.n	8004bf8 <HAL_RCCEx_PeriphCLKConfig+0x1dc>
 8004c52:	2100      	movs	r1, #0
 8004c54:	f104 0024 	add.w	r0, r4, #36	; 0x24
 8004c58:	f7ff fe5e 	bl	8004918 <RCCEx_PLL3_Config>
 8004c5c:	4605      	mov	r5, r0
 8004c5e:	e7cb      	b.n	8004bf8 <HAL_RCCEx_PeriphCLKConfig+0x1dc>
 8004c60:	462e      	mov	r6, r5
 8004c62:	e7d3      	b.n	8004c0c <HAL_RCCEx_PeriphCLKConfig+0x1f0>
 8004c64:	2601      	movs	r6, #1
 8004c66:	4635      	mov	r5, r6
 8004c68:	e003      	b.n	8004c72 <HAL_RCCEx_PeriphCLKConfig+0x256>
 8004c6a:	2b30      	cmp	r3, #48	; 0x30
 8004c6c:	d0de      	beq.n	8004c2c <HAL_RCCEx_PeriphCLKConfig+0x210>
 8004c6e:	2601      	movs	r6, #1
 8004c70:	4635      	mov	r5, r6
 8004c72:	6823      	ldr	r3, [r4, #0]
 8004c74:	f413 5f80 	tst.w	r3, #4096	; 0x1000
 8004c78:	d02b      	beq.n	8004cd2 <HAL_RCCEx_PeriphCLKConfig+0x2b6>
 8004c7a:	6de3      	ldr	r3, [r4, #92]	; 0x5c
 8004c7c:	f5b3 5f00 	cmp.w	r3, #8192	; 0x2000
 8004c80:	d04c      	beq.n	8004d1c <HAL_RCCEx_PeriphCLKConfig+0x300>
 8004c82:	d817      	bhi.n	8004cb4 <HAL_RCCEx_PeriphCLKConfig+0x298>
 8004c84:	2b00      	cmp	r3, #0
 8004c86:	d043      	beq.n	8004d10 <HAL_RCCEx_PeriphCLKConfig+0x2f4>
 8004c88:	f5b3 5f80 	cmp.w	r3, #4096	; 0x1000
 8004c8c:	d10d      	bne.n	8004caa <HAL_RCCEx_PeriphCLKConfig+0x28e>
 8004c8e:	2100      	movs	r1, #0
 8004c90:	1d20      	adds	r0, r4, #4
 8004c92:	f7ff fdbf 	bl	8004814 <RCCEx_PLL2_Config>
 8004c96:	4605      	mov	r5, r0
 8004c98:	e012      	b.n	8004cc0 <HAL_RCCEx_PeriphCLKConfig+0x2a4>
 8004c9a:	2102      	movs	r1, #2
 8004c9c:	1d20      	adds	r0, r4, #4
 8004c9e:	f7ff fdb9 	bl	8004814 <RCCEx_PLL2_Config>
 8004ca2:	4605      	mov	r5, r0
 8004ca4:	e7c2      	b.n	8004c2c <HAL_RCCEx_PeriphCLKConfig+0x210>
 8004ca6:	462e      	mov	r6, r5
 8004ca8:	e7e3      	b.n	8004c72 <HAL_RCCEx_PeriphCLKConfig+0x256>
 8004caa:	2601      	movs	r6, #1
 8004cac:	4635      	mov	r5, r6
 8004cae:	e010      	b.n	8004cd2 <HAL_RCCEx_PeriphCLKConfig+0x2b6>
 8004cb0:	58024400 	.word	0x58024400
 8004cb4:	f5b3 5f40 	cmp.w	r3, #12288	; 0x3000
 8004cb8:	d002      	beq.n	8004cc0 <HAL_RCCEx_PeriphCLKConfig+0x2a4>
 8004cba:	f5b3 4f80 	cmp.w	r3, #16384	; 0x4000
 8004cbe:	d124      	bne.n	8004d0a <HAL_RCCEx_PeriphCLKConfig+0x2ee>
 8004cc0:	2d00      	cmp	r5, #0
 8004cc2:	d132      	bne.n	8004d2a <HAL_RCCEx_PeriphCLKConfig+0x30e>
 8004cc4:	4a98      	ldr	r2, [pc, #608]	; (8004f28 <HAL_RCCEx_PeriphCLKConfig+0x50c>)
 8004cc6:	6d13      	ldr	r3, [r2, #80]	; 0x50
 8004cc8:	f423 43e0 	bic.w	r3, r3, #28672	; 0x7000
 8004ccc:	6de1      	ldr	r1, [r4, #92]	; 0x5c
 8004cce:	430b      	orrs	r3, r1
 8004cd0:	6513      	str	r3, [r2, #80]	; 0x50
 8004cd2:	6823      	ldr	r3, [r4, #0]
 8004cd4:	f413 5f00 	tst.w	r3, #8192	; 0x2000
 8004cd8:	d036      	beq.n	8004d48 <HAL_RCCEx_PeriphCLKConfig+0x32c>
 8004cda:	6e23      	ldr	r3, [r4, #96]	; 0x60
 8004cdc:	f5b3 3f00 	cmp.w	r3, #131072	; 0x20000
 8004ce0:	d050      	beq.n	8004d84 <HAL_RCCEx_PeriphCLKConfig+0x368>
 8004ce2:	d827      	bhi.n	8004d34 <HAL_RCCEx_PeriphCLKConfig+0x318>
 8004ce4:	b13b      	cbz	r3, 8004cf6 <HAL_RCCEx_PeriphCLKConfig+0x2da>
 8004ce6:	f5b3 3f80 	cmp.w	r3, #65536	; 0x10000
 8004cea:	d120      	bne.n	8004d2e <HAL_RCCEx_PeriphCLKConfig+0x312>
 8004cec:	2101      	movs	r1, #1
 8004cee:	1d20      	adds	r0, r4, #4
 8004cf0:	f7ff fd90 	bl	8004814 <RCCEx_PLL2_Config>
 8004cf4:	4605      	mov	r5, r0
 8004cf6:	2d00      	cmp	r5, #0
 8004cf8:	d14b      	bne.n	8004d92 <HAL_RCCEx_PeriphCLKConfig+0x376>
 8004cfa:	4a8b      	ldr	r2, [pc, #556]	; (8004f28 <HAL_RCCEx_PeriphCLKConfig+0x50c>)
 8004cfc:	6d13      	ldr	r3, [r2, #80]	; 0x50
 8004cfe:	f423 23e0 	bic.w	r3, r3, #458752	; 0x70000
 8004d02:	6e21      	ldr	r1, [r4, #96]	; 0x60
 8004d04:	430b      	orrs	r3, r1
 8004d06:	6513      	str	r3, [r2, #80]	; 0x50
 8004d08:	e01e      	b.n	8004d48 <HAL_RCCEx_PeriphCLKConfig+0x32c>
 8004d0a:	2601      	movs	r6, #1
 8004d0c:	4635      	mov	r5, r6
 8004d0e:	e7e0      	b.n	8004cd2 <HAL_RCCEx_PeriphCLKConfig+0x2b6>
 8004d10:	4a85      	ldr	r2, [pc, #532]	; (8004f28 <HAL_RCCEx_PeriphCLKConfig+0x50c>)
 8004d12:	6ad3      	ldr	r3, [r2, #44]	; 0x2c
 8004d14:	f443 3300 	orr.w	r3, r3, #131072	; 0x20000
 8004d18:	62d3      	str	r3, [r2, #44]	; 0x2c
 8004d1a:	e7d1      	b.n	8004cc0 <HAL_RCCEx_PeriphCLKConfig+0x2a4>
 8004d1c:	2100      	movs	r1, #0
 8004d1e:	f104 0024 	add.w	r0, r4, #36	; 0x24
 8004d22:	f7ff fdf9 	bl	8004918 <RCCEx_PLL3_Config>
 8004d26:	4605      	mov	r5, r0
 8004d28:	e7ca      	b.n	8004cc0 <HAL_RCCEx_PeriphCLKConfig+0x2a4>
 8004d2a:	462e      	mov	r6, r5
 8004d2c:	e7d1      	b.n	8004cd2 <HAL_RCCEx_PeriphCLKConfig+0x2b6>
 8004d2e:	2601      	movs	r6, #1
 8004d30:	4635      	mov	r5, r6
 8004d32:	e009      	b.n	8004d48 <HAL_RCCEx_PeriphCLKConfig+0x32c>
 8004d34:	f423 3280 	bic.w	r2, r3, #65536	; 0x10000
 8004d38:	f5b2 2f80 	cmp.w	r2, #262144	; 0x40000
 8004d3c:	d0db      	beq.n	8004cf6 <HAL_RCCEx_PeriphCLKConfig+0x2da>
 8004d3e:	f5b3 3f40 	cmp.w	r3, #196608	; 0x30000
 8004d42:	d0d8      	beq.n	8004cf6 <HAL_RCCEx_PeriphCLKConfig+0x2da>
 8004d44:	2601      	movs	r6, #1
 8004d46:	4635      	mov	r5, r6
 8004d48:	6823      	ldr	r3, [r4, #0]
 8004d4a:	f413 4f80 	tst.w	r3, #16384	; 0x4000
 8004d4e:	d02f      	beq.n	8004db0 <HAL_RCCEx_PeriphCLKConfig+0x394>
 8004d50:	f8d4 30ac 	ldr.w	r3, [r4, #172]	; 0xac
 8004d54:	f1b3 5f00 	cmp.w	r3, #536870912	; 0x20000000
 8004d58:	d043      	beq.n	8004de2 <HAL_RCCEx_PeriphCLKConfig+0x3c6>
 8004d5a:	d81f      	bhi.n	8004d9c <HAL_RCCEx_PeriphCLKConfig+0x380>
 8004d5c:	b13b      	cbz	r3, 8004d6e <HAL_RCCEx_PeriphCLKConfig+0x352>
 8004d5e:	f1b3 5f80 	cmp.w	r3, #268435456	; 0x10000000
 8004d62:	d118      	bne.n	8004d96 <HAL_RCCEx_PeriphCLKConfig+0x37a>
 8004d64:	2101      	movs	r1, #1
 8004d66:	1d20      	adds	r0, r4, #4
 8004d68:	f7ff fd54 	bl	8004814 <RCCEx_PLL2_Config>
 8004d6c:	4605      	mov	r5, r0
 8004d6e:	2d00      	cmp	r5, #0
 8004d70:	d13e      	bne.n	8004df0 <HAL_RCCEx_PeriphCLKConfig+0x3d4>
 8004d72:	4a6d      	ldr	r2, [pc, #436]	; (8004f28 <HAL_RCCEx_PeriphCLKConfig+0x50c>)
 8004d74:	6d93      	ldr	r3, [r2, #88]	; 0x58
 8004d76:	f023 43e0 	bic.w	r3, r3, #1879048192	; 0x70000000
 8004d7a:	f8d4 10ac 	ldr.w	r1, [r4, #172]	; 0xac
 8004d7e:	430b      	orrs	r3, r1
 8004d80:	6593      	str	r3, [r2, #88]	; 0x58
 8004d82:	e015      	b.n	8004db0 <HAL_RCCEx_PeriphCLKConfig+0x394>
 8004d84:	2101      	movs	r1, #1
 8004d86:	f104 0024 	add.w	r0, r4, #36	; 0x24
 8004d8a:	f7ff fdc5 	bl	8004918 <RCCEx_PLL3_Config>
 8004d8e:	4605      	mov	r5, r0
 8004d90:	e7b1      	b.n	8004cf6 <HAL_RCCEx_PeriphCLKConfig+0x2da>
 8004d92:	462e      	mov	r6, r5
 8004d94:	e7d8      	b.n	8004d48 <HAL_RCCEx_PeriphCLKConfig+0x32c>
 8004d96:	2601      	movs	r6, #1
 8004d98:	4635      	mov	r5, r6
 8004d9a:	e009      	b.n	8004db0 <HAL_RCCEx_PeriphCLKConfig+0x394>
 8004d9c:	f023 5280 	bic.w	r2, r3, #268435456	; 0x10000000
 8004da0:	f1b2 4f80 	cmp.w	r2, #1073741824	; 0x40000000
 8004da4:	d0e3      	beq.n	8004d6e <HAL_RCCEx_PeriphCLKConfig+0x352>
 8004da6:	f1b3 5f40 	cmp.w	r3, #805306368	; 0x30000000
 8004daa:	d0e0      	beq.n	8004d6e <HAL_RCCEx_PeriphCLKConfig+0x352>
 8004dac:	2601      	movs	r6, #1
 8004dae:	4635      	mov	r5, r6
 8004db0:	6823      	ldr	r3, [r4, #0]
 8004db2:	f413 4f00 	tst.w	r3, #32768	; 0x8000
 8004db6:	d009      	beq.n	8004dcc <HAL_RCCEx_PeriphCLKConfig+0x3b0>
 8004db8:	6ee3      	ldr	r3, [r4, #108]	; 0x6c
 8004dba:	f1b3 5f80 	cmp.w	r3, #268435456	; 0x10000000
 8004dbe:	d019      	beq.n	8004df4 <HAL_RCCEx_PeriphCLKConfig+0x3d8>
 8004dc0:	f1b3 5f00 	cmp.w	r3, #536870912	; 0x20000000
 8004dc4:	d024      	beq.n	8004e10 <HAL_RCCEx_PeriphCLKConfig+0x3f4>
 8004dc6:	b1d3      	cbz	r3, 8004dfe <HAL_RCCEx_PeriphCLKConfig+0x3e2>
 8004dc8:	2601      	movs	r6, #1
 8004dca:	4635      	mov	r5, r6
 8004dcc:	6823      	ldr	r3, [r4, #0]
 8004dce:	f013 7f80 	tst.w	r3, #16777216	; 0x1000000
 8004dd2:	d03d      	beq.n	8004e50 <HAL_RCCEx_PeriphCLKConfig+0x434>
 8004dd4:	6c63      	ldr	r3, [r4, #68]	; 0x44
 8004dd6:	2b03      	cmp	r3, #3
 8004dd8:	d836      	bhi.n	8004e48 <HAL_RCCEx_PeriphCLKConfig+0x42c>
 8004dda:	e8df f003 	tbb	[pc, r3]
 8004dde:	2126      	.short	0x2126
 8004de0:	262f      	.short	0x262f
 8004de2:	2101      	movs	r1, #1
 8004de4:	f104 0024 	add.w	r0, r4, #36	; 0x24
 8004de8:	f7ff fd96 	bl	8004918 <RCCEx_PLL3_Config>
 8004dec:	4605      	mov	r5, r0
 8004dee:	e7be      	b.n	8004d6e <HAL_RCCEx_PeriphCLKConfig+0x352>
 8004df0:	462e      	mov	r6, r5
 8004df2:	e7dd      	b.n	8004db0 <HAL_RCCEx_PeriphCLKConfig+0x394>
 8004df4:	4a4c      	ldr	r2, [pc, #304]	; (8004f28 <HAL_RCCEx_PeriphCLKConfig+0x50c>)
 8004df6:	6ad3      	ldr	r3, [r2, #44]	; 0x2c
 8004df8:	f443 3300 	orr.w	r3, r3, #131072	; 0x20000
 8004dfc:	62d3      	str	r3, [r2, #44]	; 0x2c
 8004dfe:	b96d      	cbnz	r5, 8004e1c <HAL_RCCEx_PeriphCLKConfig+0x400>
 8004e00:	4a49      	ldr	r2, [pc, #292]	; (8004f28 <HAL_RCCEx_PeriphCLKConfig+0x50c>)
 8004e02:	6d13      	ldr	r3, [r2, #80]	; 0x50
 8004e04:	f023 5340 	bic.w	r3, r3, #805306368	; 0x30000000
 8004e08:	6ee1      	ldr	r1, [r4, #108]	; 0x6c
 8004e0a:	430b      	orrs	r3, r1
 8004e0c:	6513      	str	r3, [r2, #80]	; 0x50
 8004e0e:	e7dd      	b.n	8004dcc <HAL_RCCEx_PeriphCLKConfig+0x3b0>
 8004e10:	2101      	movs	r1, #1
 8004e12:	1d20      	adds	r0, r4, #4
 8004e14:	f7ff fcfe 	bl	8004814 <RCCEx_PLL2_Config>
 8004e18:	4605      	mov	r5, r0
 8004e1a:	e7f0      	b.n	8004dfe <HAL_RCCEx_PeriphCLKConfig+0x3e2>
 8004e1c:	462e      	mov	r6, r5
 8004e1e:	e7d5      	b.n	8004dcc <HAL_RCCEx_PeriphCLKConfig+0x3b0>
 8004e20:	4a41      	ldr	r2, [pc, #260]	; (8004f28 <HAL_RCCEx_PeriphCLKConfig+0x50c>)
 8004e22:	6ad3      	ldr	r3, [r2, #44]	; 0x2c
 8004e24:	f443 3300 	orr.w	r3, r3, #131072	; 0x20000
 8004e28:	62d3      	str	r3, [r2, #44]	; 0x2c
 8004e2a:	b985      	cbnz	r5, 8004e4e <HAL_RCCEx_PeriphCLKConfig+0x432>
 8004e2c:	4a3e      	ldr	r2, [pc, #248]	; (8004f28 <HAL_RCCEx_PeriphCLKConfig+0x50c>)
 8004e2e:	6cd3      	ldr	r3, [r2, #76]	; 0x4c
 8004e30:	f023 0303 	bic.w	r3, r3, #3
 8004e34:	6c61      	ldr	r1, [r4, #68]	; 0x44
 8004e36:	430b      	orrs	r3, r1
 8004e38:	64d3      	str	r3, [r2, #76]	; 0x4c
 8004e3a:	e009      	b.n	8004e50 <HAL_RCCEx_PeriphCLKConfig+0x434>
 8004e3c:	2102      	movs	r1, #2
 8004e3e:	1d20      	adds	r0, r4, #4
 8004e40:	f7ff fce8 	bl	8004814 <RCCEx_PLL2_Config>
 8004e44:	4605      	mov	r5, r0
 8004e46:	e7f0      	b.n	8004e2a <HAL_RCCEx_PeriphCLKConfig+0x40e>
 8004e48:	2601      	movs	r6, #1
 8004e4a:	4635      	mov	r5, r6
 8004e4c:	e000      	b.n	8004e50 <HAL_RCCEx_PeriphCLKConfig+0x434>
 8004e4e:	462e      	mov	r6, r5
 8004e50:	6823      	ldr	r3, [r4, #0]
 8004e52:	f413 0f80 	tst.w	r3, #4194304	; 0x400000
 8004e56:	d11f      	bne.n	8004e98 <HAL_RCCEx_PeriphCLKConfig+0x47c>
 8004e58:	6823      	ldr	r3, [r4, #0]
 8004e5a:	f013 0f01 	tst.w	r3, #1
 8004e5e:	f000 809e 	beq.w	8004f9e <HAL_RCCEx_PeriphCLKConfig+0x582>
 8004e62:	6fa3      	ldr	r3, [r4, #120]	; 0x78
 8004e64:	2b28      	cmp	r3, #40	; 0x28
 8004e66:	f200 8098 	bhi.w	8004f9a <HAL_RCCEx_PeriphCLKConfig+0x57e>
 8004e6a:	e8df f003 	tbb	[pc, r3]
 8004e6e:	9686      	.short	0x9686
 8004e70:	96969696 	.word	0x96969696
 8004e74:	96819696 	.word	0x96819696
 8004e78:	96969696 	.word	0x96969696
 8004e7c:	968f9696 	.word	0x968f9696
 8004e80:	96969696 	.word	0x96969696
 8004e84:	96869696 	.word	0x96869696
 8004e88:	96969696 	.word	0x96969696
 8004e8c:	96869696 	.word	0x96869696
 8004e90:	96969696 	.word	0x96969696
 8004e94:	9696      	.short	0x9696
 8004e96:	86          	.byte	0x86
 8004e97:	00          	.byte	0x00
 8004e98:	4a24      	ldr	r2, [pc, #144]	; (8004f2c <HAL_RCCEx_PeriphCLKConfig+0x510>)
 8004e9a:	6813      	ldr	r3, [r2, #0]
 8004e9c:	f443 7380 	orr.w	r3, r3, #256	; 0x100
 8004ea0:	6013      	str	r3, [r2, #0]
 8004ea2:	f7fc fd31 	bl	8001908 <HAL_GetTick>
 8004ea6:	4607      	mov	r7, r0
 8004ea8:	f8df 8080 	ldr.w	r8, [pc, #128]	; 8004f2c <HAL_RCCEx_PeriphCLKConfig+0x510>
 8004eac:	f8d8 3000 	ldr.w	r3, [r8]
 8004eb0:	f413 7f80 	tst.w	r3, #256	; 0x100
 8004eb4:	d107      	bne.n	8004ec6 <HAL_RCCEx_PeriphCLKConfig+0x4aa>
 8004eb6:	f7fc fd27 	bl	8001908 <HAL_GetTick>
 8004eba:	1bc0      	subs	r0, r0, r7
 8004ebc:	2864      	cmp	r0, #100	; 0x64
 8004ebe:	d9f5      	bls.n	8004eac <HAL_RCCEx_PeriphCLKConfig+0x490>
 8004ec0:	2603      	movs	r6, #3
 8004ec2:	4635      	mov	r5, r6
 8004ec4:	e7c8      	b.n	8004e58 <HAL_RCCEx_PeriphCLKConfig+0x43c>
 8004ec6:	2d00      	cmp	r5, #0
 8004ec8:	d150      	bne.n	8004f6c <HAL_RCCEx_PeriphCLKConfig+0x550>
 8004eca:	4b17      	ldr	r3, [pc, #92]	; (8004f28 <HAL_RCCEx_PeriphCLKConfig+0x50c>)
 8004ecc:	6f1b      	ldr	r3, [r3, #112]	; 0x70
 8004ece:	f8d4 20b0 	ldr.w	r2, [r4, #176]	; 0xb0
 8004ed2:	4053      	eors	r3, r2
 8004ed4:	f413 7f40 	tst.w	r3, #768	; 0x300
 8004ed8:	d00c      	beq.n	8004ef4 <HAL_RCCEx_PeriphCLKConfig+0x4d8>
 8004eda:	4b13      	ldr	r3, [pc, #76]	; (8004f28 <HAL_RCCEx_PeriphCLKConfig+0x50c>)
 8004edc:	6f1a      	ldr	r2, [r3, #112]	; 0x70
 8004ede:	f422 7240 	bic.w	r2, r2, #768	; 0x300
 8004ee2:	6f19      	ldr	r1, [r3, #112]	; 0x70
 8004ee4:	f441 3180 	orr.w	r1, r1, #65536	; 0x10000
 8004ee8:	6719      	str	r1, [r3, #112]	; 0x70
 8004eea:	6f19      	ldr	r1, [r3, #112]	; 0x70
 8004eec:	f421 3180 	bic.w	r1, r1, #65536	; 0x10000
 8004ef0:	6719      	str	r1, [r3, #112]	; 0x70
 8004ef2:	671a      	str	r2, [r3, #112]	; 0x70
 8004ef4:	f8d4 30b0 	ldr.w	r3, [r4, #176]	; 0xb0
 8004ef8:	f5b3 7f80 	cmp.w	r3, #256	; 0x100
 8004efc:	d018      	beq.n	8004f30 <HAL_RCCEx_PeriphCLKConfig+0x514>
 8004efe:	f8d4 30b0 	ldr.w	r3, [r4, #176]	; 0xb0
 8004f02:	f403 7240 	and.w	r2, r3, #768	; 0x300
 8004f06:	f5b2 7f40 	cmp.w	r2, #768	; 0x300
 8004f0a:	d025      	beq.n	8004f58 <HAL_RCCEx_PeriphCLKConfig+0x53c>
 8004f0c:	4a06      	ldr	r2, [pc, #24]	; (8004f28 <HAL_RCCEx_PeriphCLKConfig+0x50c>)
 8004f0e:	6913      	ldr	r3, [r2, #16]
 8004f10:	f423 537c 	bic.w	r3, r3, #16128	; 0x3f00
 8004f14:	6113      	str	r3, [r2, #16]
 8004f16:	4a04      	ldr	r2, [pc, #16]	; (8004f28 <HAL_RCCEx_PeriphCLKConfig+0x50c>)
 8004f18:	6f11      	ldr	r1, [r2, #112]	; 0x70
 8004f1a:	f8d4 30b0 	ldr.w	r3, [r4, #176]	; 0xb0
 8004f1e:	f3c3 030b 	ubfx	r3, r3, #0, #12
 8004f22:	430b      	orrs	r3, r1
 8004f24:	6713      	str	r3, [r2, #112]	; 0x70
 8004f26:	e797      	b.n	8004e58 <HAL_RCCEx_PeriphCLKConfig+0x43c>
 8004f28:	58024400 	.word	0x58024400
 8004f2c:	58024800 	.word	0x58024800
 8004f30:	f7fc fcea 	bl	8001908 <HAL_GetTick>
 8004f34:	4607      	mov	r7, r0
 8004f36:	f8df 8218 	ldr.w	r8, [pc, #536]	; 8005150 <HAL_RCCEx_PeriphCLKConfig+0x734>
 8004f3a:	f241 3988 	movw	r9, #5000	; 0x1388
 8004f3e:	f8d8 3070 	ldr.w	r3, [r8, #112]	; 0x70
 8004f42:	f013 0f02 	tst.w	r3, #2
 8004f46:	d1da      	bne.n	8004efe <HAL_RCCEx_PeriphCLKConfig+0x4e2>
 8004f48:	f7fc fcde 	bl	8001908 <HAL_GetTick>
 8004f4c:	1bc0      	subs	r0, r0, r7
 8004f4e:	4548      	cmp	r0, r9
 8004f50:	d9f5      	bls.n	8004f3e <HAL_RCCEx_PeriphCLKConfig+0x522>
 8004f52:	2603      	movs	r6, #3
 8004f54:	4635      	mov	r5, r6
 8004f56:	e77f      	b.n	8004e58 <HAL_RCCEx_PeriphCLKConfig+0x43c>
 8004f58:	487d      	ldr	r0, [pc, #500]	; (8005150 <HAL_RCCEx_PeriphCLKConfig+0x734>)
 8004f5a:	6901      	ldr	r1, [r0, #16]
 8004f5c:	4a7d      	ldr	r2, [pc, #500]	; (8005154 <HAL_RCCEx_PeriphCLKConfig+0x738>)
 8004f5e:	ea02 1313 	and.w	r3, r2, r3, lsr #4
 8004f62:	f421 527c 	bic.w	r2, r1, #16128	; 0x3f00
 8004f66:	4313      	orrs	r3, r2
 8004f68:	6103      	str	r3, [r0, #16]
 8004f6a:	e7d4      	b.n	8004f16 <HAL_RCCEx_PeriphCLKConfig+0x4fa>
 8004f6c:	462e      	mov	r6, r5
 8004f6e:	e773      	b.n	8004e58 <HAL_RCCEx_PeriphCLKConfig+0x43c>
 8004f70:	2101      	movs	r1, #1
 8004f72:	1d20      	adds	r0, r4, #4
 8004f74:	f7ff fc4e 	bl	8004814 <RCCEx_PLL2_Config>
 8004f78:	4605      	mov	r5, r0
 8004f7a:	b9e5      	cbnz	r5, 8004fb6 <HAL_RCCEx_PeriphCLKConfig+0x59a>
 8004f7c:	4a74      	ldr	r2, [pc, #464]	; (8005150 <HAL_RCCEx_PeriphCLKConfig+0x734>)
 8004f7e:	6d53      	ldr	r3, [r2, #84]	; 0x54
 8004f80:	f023 0338 	bic.w	r3, r3, #56	; 0x38
 8004f84:	6fa1      	ldr	r1, [r4, #120]	; 0x78
 8004f86:	430b      	orrs	r3, r1
 8004f88:	6553      	str	r3, [r2, #84]	; 0x54
 8004f8a:	e008      	b.n	8004f9e <HAL_RCCEx_PeriphCLKConfig+0x582>
 8004f8c:	2101      	movs	r1, #1
 8004f8e:	f104 0024 	add.w	r0, r4, #36	; 0x24
 8004f92:	f7ff fcc1 	bl	8004918 <RCCEx_PLL3_Config>
 8004f96:	4605      	mov	r5, r0
 8004f98:	e7ef      	b.n	8004f7a <HAL_RCCEx_PeriphCLKConfig+0x55e>
 8004f9a:	2601      	movs	r6, #1
 8004f9c:	4635      	mov	r5, r6
 8004f9e:	6823      	ldr	r3, [r4, #0]
 8004fa0:	f013 0f02 	tst.w	r3, #2
 8004fa4:	d022      	beq.n	8004fec <HAL_RCCEx_PeriphCLKConfig+0x5d0>
 8004fa6:	6f63      	ldr	r3, [r4, #116]	; 0x74
 8004fa8:	2b05      	cmp	r3, #5
 8004faa:	d81b      	bhi.n	8004fe4 <HAL_RCCEx_PeriphCLKConfig+0x5c8>
 8004fac:	e8df f003 	tbb	[pc, r3]
 8004fb0:	0a13050a 	.word	0x0a13050a
 8004fb4:	0a0a      	.short	0x0a0a
 8004fb6:	462e      	mov	r6, r5
 8004fb8:	e7f1      	b.n	8004f9e <HAL_RCCEx_PeriphCLKConfig+0x582>
 8004fba:	2101      	movs	r1, #1
 8004fbc:	1d20      	adds	r0, r4, #4
 8004fbe:	f7ff fc29 	bl	8004814 <RCCEx_PLL2_Config>
 8004fc2:	4605      	mov	r5, r0
 8004fc4:	b98d      	cbnz	r5, 8004fea <HAL_RCCEx_PeriphCLKConfig+0x5ce>
 8004fc6:	4a62      	ldr	r2, [pc, #392]	; (8005150 <HAL_RCCEx_PeriphCLKConfig+0x734>)
 8004fc8:	6d53      	ldr	r3, [r2, #84]	; 0x54
 8004fca:	f023 0307 	bic.w	r3, r3, #7
 8004fce:	6f61      	ldr	r1, [r4, #116]	; 0x74
 8004fd0:	430b      	orrs	r3, r1
 8004fd2:	6553      	str	r3, [r2, #84]	; 0x54
 8004fd4:	e00a      	b.n	8004fec <HAL_RCCEx_PeriphCLKConfig+0x5d0>
 8004fd6:	2101      	movs	r1, #1
 8004fd8:	f104 0024 	add.w	r0, r4, #36	; 0x24
 8004fdc:	f7ff fc9c 	bl	8004918 <RCCEx_PLL3_Config>
 8004fe0:	4605      	mov	r5, r0
 8004fe2:	e7ef      	b.n	8004fc4 <HAL_RCCEx_PeriphCLKConfig+0x5a8>
 8004fe4:	2601      	movs	r6, #1
 8004fe6:	4635      	mov	r5, r6
 8004fe8:	e000      	b.n	8004fec <HAL_RCCEx_PeriphCLKConfig+0x5d0>
 8004fea:	462e      	mov	r6, r5
 8004fec:	6823      	ldr	r3, [r4, #0]
 8004fee:	f013 0f04 	tst.w	r3, #4
 8004ff2:	d022      	beq.n	800503a <HAL_RCCEx_PeriphCLKConfig+0x61e>
 8004ff4:	f8d4 3090 	ldr.w	r3, [r4, #144]	; 0x90
 8004ff8:	2b05      	cmp	r3, #5
 8004ffa:	d81a      	bhi.n	8005032 <HAL_RCCEx_PeriphCLKConfig+0x616>
 8004ffc:	e8df f003 	tbb	[pc, r3]
 8005000:	08120308 	.word	0x08120308
 8005004:	0808      	.short	0x0808
 8005006:	2101      	movs	r1, #1
 8005008:	1d20      	adds	r0, r4, #4
 800500a:	f7ff fc03 	bl	8004814 <RCCEx_PLL2_Config>
 800500e:	4605      	mov	r5, r0
 8005010:	b995      	cbnz	r5, 8005038 <HAL_RCCEx_PeriphCLKConfig+0x61c>
 8005012:	4a4f      	ldr	r2, [pc, #316]	; (8005150 <HAL_RCCEx_PeriphCLKConfig+0x734>)
 8005014:	6d93      	ldr	r3, [r2, #88]	; 0x58
 8005016:	f023 0307 	bic.w	r3, r3, #7
 800501a:	f8d4 1090 	ldr.w	r1, [r4, #144]	; 0x90
 800501e:	430b      	orrs	r3, r1
 8005020:	6593      	str	r3, [r2, #88]	; 0x58
 8005022:	e00a      	b.n	800503a <HAL_RCCEx_PeriphCLKConfig+0x61e>
 8005024:	2101      	movs	r1, #1
 8005026:	f104 0024 	add.w	r0, r4, #36	; 0x24
 800502a:	f7ff fc75 	bl	8004918 <RCCEx_PLL3_Config>
 800502e:	4605      	mov	r5, r0
 8005030:	e7ee      	b.n	8005010 <HAL_RCCEx_PeriphCLKConfig+0x5f4>
 8005032:	2601      	movs	r6, #1
 8005034:	4635      	mov	r5, r6
 8005036:	e000      	b.n	800503a <HAL_RCCEx_PeriphCLKConfig+0x61e>
 8005038:	462e      	mov	r6, r5
 800503a:	6823      	ldr	r3, [r4, #0]
 800503c:	f013 0f20 	tst.w	r3, #32
 8005040:	d026      	beq.n	8005090 <HAL_RCCEx_PeriphCLKConfig+0x674>
 8005042:	f8d4 308c 	ldr.w	r3, [r4, #140]	; 0x8c
 8005046:	f1b3 5f00 	cmp.w	r3, #536870912	; 0x20000000
 800504a:	d03f      	beq.n	80050cc <HAL_RCCEx_PeriphCLKConfig+0x6b0>
 800504c:	d816      	bhi.n	800507c <HAL_RCCEx_PeriphCLKConfig+0x660>
 800504e:	b13b      	cbz	r3, 8005060 <HAL_RCCEx_PeriphCLKConfig+0x644>
 8005050:	f1b3 5f80 	cmp.w	r3, #268435456	; 0x10000000
 8005054:	d10f      	bne.n	8005076 <HAL_RCCEx_PeriphCLKConfig+0x65a>
 8005056:	2100      	movs	r1, #0
 8005058:	1d20      	adds	r0, r4, #4
 800505a:	f7ff fbdb 	bl	8004814 <RCCEx_PLL2_Config>
 800505e:	4605      	mov	r5, r0
 8005060:	2d00      	cmp	r5, #0
 8005062:	d13a      	bne.n	80050da <HAL_RCCEx_PeriphCLKConfig+0x6be>
 8005064:	4a3a      	ldr	r2, [pc, #232]	; (8005150 <HAL_RCCEx_PeriphCLKConfig+0x734>)
 8005066:	6d53      	ldr	r3, [r2, #84]	; 0x54
 8005068:	f023 43e0 	bic.w	r3, r3, #1879048192	; 0x70000000
 800506c:	f8d4 108c 	ldr.w	r1, [r4, #140]	; 0x8c
 8005070:	430b      	orrs	r3, r1
 8005072:	6553      	str	r3, [r2, #84]	; 0x54
 8005074:	e00c      	b.n	8005090 <HAL_RCCEx_PeriphCLKConfig+0x674>
 8005076:	2601      	movs	r6, #1
 8005078:	4635      	mov	r5, r6
 800507a:	e009      	b.n	8005090 <HAL_RCCEx_PeriphCLKConfig+0x674>
 800507c:	f023 5280 	bic.w	r2, r3, #268435456	; 0x10000000
 8005080:	f1b2 4f80 	cmp.w	r2, #1073741824	; 0x40000000
 8005084:	d0ec      	beq.n	8005060 <HAL_RCCEx_PeriphCLKConfig+0x644>
 8005086:	f1b3 5f40 	cmp.w	r3, #805306368	; 0x30000000
 800508a:	d0e9      	beq.n	8005060 <HAL_RCCEx_PeriphCLKConfig+0x644>
 800508c:	2601      	movs	r6, #1
 800508e:	4635      	mov	r5, r6
 8005090:	6823      	ldr	r3, [r4, #0]
 8005092:	f013 0f40 	tst.w	r3, #64	; 0x40
 8005096:	d02f      	beq.n	80050f8 <HAL_RCCEx_PeriphCLKConfig+0x6dc>
 8005098:	f8d4 3098 	ldr.w	r3, [r4, #152]	; 0x98
 800509c:	f5b3 6f00 	cmp.w	r3, #2048	; 0x800
 80050a0:	d04a      	beq.n	8005138 <HAL_RCCEx_PeriphCLKConfig+0x71c>
 80050a2:	d81f      	bhi.n	80050e4 <HAL_RCCEx_PeriphCLKConfig+0x6c8>
 80050a4:	b13b      	cbz	r3, 80050b6 <HAL_RCCEx_PeriphCLKConfig+0x69a>
 80050a6:	f5b3 6f80 	cmp.w	r3, #1024	; 0x400
 80050aa:	d118      	bne.n	80050de <HAL_RCCEx_PeriphCLKConfig+0x6c2>
 80050ac:	2100      	movs	r1, #0
 80050ae:	1d20      	adds	r0, r4, #4
 80050b0:	f7ff fbb0 	bl	8004814 <RCCEx_PLL2_Config>
 80050b4:	4605      	mov	r5, r0
 80050b6:	2d00      	cmp	r5, #0
 80050b8:	d145      	bne.n	8005146 <HAL_RCCEx_PeriphCLKConfig+0x72a>
 80050ba:	4a25      	ldr	r2, [pc, #148]	; (8005150 <HAL_RCCEx_PeriphCLKConfig+0x734>)
 80050bc:	6d93      	ldr	r3, [r2, #88]	; 0x58
 80050be:	f423 53e0 	bic.w	r3, r3, #7168	; 0x1c00
 80050c2:	f8d4 1098 	ldr.w	r1, [r4, #152]	; 0x98
 80050c6:	430b      	orrs	r3, r1
 80050c8:	6593      	str	r3, [r2, #88]	; 0x58
 80050ca:	e015      	b.n	80050f8 <HAL_RCCEx_PeriphCLKConfig+0x6dc>
 80050cc:	2102      	movs	r1, #2
 80050ce:	f104 0024 	add.w	r0, r4, #36	; 0x24
 80050d2:	f7ff fc21 	bl	8004918 <RCCEx_PLL3_Config>
 80050d6:	4605      	mov	r5, r0
 80050d8:	e7c2      	b.n	8005060 <HAL_RCCEx_PeriphCLKConfig+0x644>
 80050da:	462e      	mov	r6, r5
 80050dc:	e7d8      	b.n	8005090 <HAL_RCCEx_PeriphCLKConfig+0x674>
 80050de:	2601      	movs	r6, #1
 80050e0:	4635      	mov	r5, r6
 80050e2:	e009      	b.n	80050f8 <HAL_RCCEx_PeriphCLKConfig+0x6dc>
 80050e4:	f423 6280 	bic.w	r2, r3, #1024	; 0x400
 80050e8:	f5b2 5f80 	cmp.w	r2, #4096	; 0x1000
 80050ec:	d0e3      	beq.n	80050b6 <HAL_RCCEx_PeriphCLKConfig+0x69a>
 80050ee:	f5b3 6f40 	cmp.w	r3, #3072	; 0xc00
 80050f2:	d0e0      	beq.n	80050b6 <HAL_RCCEx_PeriphCLKConfig+0x69a>
 80050f4:	2601      	movs	r6, #1
 80050f6:	4635      	mov	r5, r6
 80050f8:	6823      	ldr	r3, [r4, #0]
 80050fa:	f013 0f80 	tst.w	r3, #128	; 0x80
 80050fe:	d035      	beq.n	800516c <HAL_RCCEx_PeriphCLKConfig+0x750>
 8005100:	f8d4 309c 	ldr.w	r3, [r4, #156]	; 0x9c
 8005104:	f5b3 4f80 	cmp.w	r3, #16384	; 0x4000
 8005108:	f000 80e5 	beq.w	80052d6 <HAL_RCCEx_PeriphCLKConfig+0x8ba>
 800510c:	d824      	bhi.n	8005158 <HAL_RCCEx_PeriphCLKConfig+0x73c>
 800510e:	b13b      	cbz	r3, 8005120 <HAL_RCCEx_PeriphCLKConfig+0x704>
 8005110:	f5b3 5f00 	cmp.w	r3, #8192	; 0x2000
 8005114:	d119      	bne.n	800514a <HAL_RCCEx_PeriphCLKConfig+0x72e>
 8005116:	2100      	movs	r1, #0
 8005118:	1d20      	adds	r0, r4, #4
 800511a:	f7ff fb7b 	bl	8004814 <RCCEx_PLL2_Config>
 800511e:	4605      	mov	r5, r0
 8005120:	2d00      	cmp	r5, #0
 8005122:	f040 80df 	bne.w	80052e4 <HAL_RCCEx_PeriphCLKConfig+0x8c8>
 8005126:	4a0a      	ldr	r2, [pc, #40]	; (8005150 <HAL_RCCEx_PeriphCLKConfig+0x734>)
 8005128:	6d93      	ldr	r3, [r2, #88]	; 0x58
 800512a:	f423 4360 	bic.w	r3, r3, #57344	; 0xe000
 800512e:	f8d4 109c 	ldr.w	r1, [r4, #156]	; 0x9c
 8005132:	430b      	orrs	r3, r1
 8005134:	6593      	str	r3, [r2, #88]	; 0x58
 8005136:	e019      	b.n	800516c <HAL_RCCEx_PeriphCLKConfig+0x750>
 8005138:	2102      	movs	r1, #2
 800513a:	f104 0024 	add.w	r0, r4, #36	; 0x24
 800513e:	f7ff fbeb 	bl	8004918 <RCCEx_PLL3_Config>
 8005142:	4605      	mov	r5, r0
 8005144:	e7b7      	b.n	80050b6 <HAL_RCCEx_PeriphCLKConfig+0x69a>
 8005146:	462e      	mov	r6, r5
 8005148:	e7d6      	b.n	80050f8 <HAL_RCCEx_PeriphCLKConfig+0x6dc>
 800514a:	2601      	movs	r6, #1
 800514c:	4635      	mov	r5, r6
 800514e:	e00d      	b.n	800516c <HAL_RCCEx_PeriphCLKConfig+0x750>
 8005150:	58024400 	.word	0x58024400
 8005154:	00ffffcf 	.word	0x00ffffcf
 8005158:	f423 5200 	bic.w	r2, r3, #8192	; 0x2000
 800515c:	f5b2 4f00 	cmp.w	r2, #32768	; 0x8000
 8005160:	d0de      	beq.n	8005120 <HAL_RCCEx_PeriphCLKConfig+0x704>
 8005162:	f5b3 4fc0 	cmp.w	r3, #24576	; 0x6000
 8005166:	d0db      	beq.n	8005120 <HAL_RCCEx_PeriphCLKConfig+0x704>
 8005168:	2601      	movs	r6, #1
 800516a:	4635      	mov	r5, r6
 800516c:	6823      	ldr	r3, [r4, #0]
 800516e:	f013 0f08 	tst.w	r3, #8
 8005172:	d00d      	beq.n	8005190 <HAL_RCCEx_PeriphCLKConfig+0x774>
 8005174:	f8d4 3080 	ldr.w	r3, [r4, #128]	; 0x80
 8005178:	f5b3 5f80 	cmp.w	r3, #4096	; 0x1000
 800517c:	f000 80b4 	beq.w	80052e8 <HAL_RCCEx_PeriphCLKConfig+0x8cc>
 8005180:	4a97      	ldr	r2, [pc, #604]	; (80053e0 <HAL_RCCEx_PeriphCLKConfig+0x9c4>)
 8005182:	6d53      	ldr	r3, [r2, #84]	; 0x54
 8005184:	f423 5340 	bic.w	r3, r3, #12288	; 0x3000
 8005188:	f8d4 1080 	ldr.w	r1, [r4, #128]	; 0x80
 800518c:	430b      	orrs	r3, r1
 800518e:	6553      	str	r3, [r2, #84]	; 0x54
 8005190:	6823      	ldr	r3, [r4, #0]
 8005192:	f013 0f10 	tst.w	r3, #16
 8005196:	d00d      	beq.n	80051b4 <HAL_RCCEx_PeriphCLKConfig+0x798>
 8005198:	f8d4 3094 	ldr.w	r3, [r4, #148]	; 0x94
 800519c:	f5b3 7f80 	cmp.w	r3, #256	; 0x100
 80051a0:	f000 80ab 	beq.w	80052fa <HAL_RCCEx_PeriphCLKConfig+0x8de>
 80051a4:	4a8e      	ldr	r2, [pc, #568]	; (80053e0 <HAL_RCCEx_PeriphCLKConfig+0x9c4>)
 80051a6:	6d93      	ldr	r3, [r2, #88]	; 0x58
 80051a8:	f423 7340 	bic.w	r3, r3, #768	; 0x300
 80051ac:	f8d4 1094 	ldr.w	r1, [r4, #148]	; 0x94
 80051b0:	430b      	orrs	r3, r1
 80051b2:	6593      	str	r3, [r2, #88]	; 0x58
 80051b4:	6823      	ldr	r3, [r4, #0]
 80051b6:	f413 2f00 	tst.w	r3, #524288	; 0x80000
 80051ba:	d00e      	beq.n	80051da <HAL_RCCEx_PeriphCLKConfig+0x7be>
 80051bc:	f8d4 30a0 	ldr.w	r3, [r4, #160]	; 0xa0
 80051c0:	f5b3 3f80 	cmp.w	r3, #65536	; 0x10000
 80051c4:	f000 80b1 	beq.w	800532a <HAL_RCCEx_PeriphCLKConfig+0x90e>
 80051c8:	f5b3 3f00 	cmp.w	r3, #131072	; 0x20000
 80051cc:	f000 80a3 	beq.w	8005316 <HAL_RCCEx_PeriphCLKConfig+0x8fa>
 80051d0:	2b00      	cmp	r3, #0
 80051d2:	f000 809b 	beq.w	800530c <HAL_RCCEx_PeriphCLKConfig+0x8f0>
 80051d6:	2601      	movs	r6, #1
 80051d8:	4635      	mov	r5, r6
 80051da:	6823      	ldr	r3, [r4, #0]
 80051dc:	f413 2f80 	tst.w	r3, #262144	; 0x40000
 80051e0:	d00f      	beq.n	8005202 <HAL_RCCEx_PeriphCLKConfig+0x7e6>
 80051e2:	f8d4 3084 	ldr.w	r3, [r4, #132]	; 0x84
 80051e6:	f5b3 1f00 	cmp.w	r3, #2097152	; 0x200000
 80051ea:	f000 80b6 	beq.w	800535a <HAL_RCCEx_PeriphCLKConfig+0x93e>
 80051ee:	f5b3 1f40 	cmp.w	r3, #3145728	; 0x300000
 80051f2:	f000 80a8 	beq.w	8005346 <HAL_RCCEx_PeriphCLKConfig+0x92a>
 80051f6:	f5b3 1f80 	cmp.w	r3, #1048576	; 0x100000
 80051fa:	f000 809f 	beq.w	800533c <HAL_RCCEx_PeriphCLKConfig+0x920>
 80051fe:	2601      	movs	r6, #1
 8005200:	4635      	mov	r5, r6
 8005202:	6823      	ldr	r3, [r4, #0]
 8005204:	f413 3f80 	tst.w	r3, #65536	; 0x10000
 8005208:	d009      	beq.n	800521e <HAL_RCCEx_PeriphCLKConfig+0x802>
 800520a:	6ce3      	ldr	r3, [r4, #76]	; 0x4c
 800520c:	2b00      	cmp	r3, #0
 800520e:	f000 80ad 	beq.w	800536c <HAL_RCCEx_PeriphCLKConfig+0x950>
 8005212:	f5b3 3f80 	cmp.w	r3, #65536	; 0x10000
 8005216:	f000 80b7 	beq.w	8005388 <HAL_RCCEx_PeriphCLKConfig+0x96c>
 800521a:	2601      	movs	r6, #1
 800521c:	4635      	mov	r5, r6
 800521e:	6823      	ldr	r3, [r4, #0]
 8005220:	f013 5f00 	tst.w	r3, #536870912	; 0x20000000
 8005224:	f040 80b8 	bne.w	8005398 <HAL_RCCEx_PeriphCLKConfig+0x97c>
 8005228:	6823      	ldr	r3, [r4, #0]
 800522a:	f413 3f00 	tst.w	r3, #131072	; 0x20000
 800522e:	d00d      	beq.n	800524c <HAL_RCCEx_PeriphCLKConfig+0x830>
 8005230:	6fe3      	ldr	r3, [r4, #124]	; 0x7c
 8005232:	f5b3 7f80 	cmp.w	r3, #256	; 0x100
 8005236:	f000 80bb 	beq.w	80053b0 <HAL_RCCEx_PeriphCLKConfig+0x994>
 800523a:	f240 80b6 	bls.w	80053aa <HAL_RCCEx_PeriphCLKConfig+0x98e>
 800523e:	f423 7380 	bic.w	r3, r3, #256	; 0x100
 8005242:	f5b3 7f00 	cmp.w	r3, #512	; 0x200
 8005246:	f000 80b8 	beq.w	80053ba <HAL_RCCEx_PeriphCLKConfig+0x99e>
 800524a:	2601      	movs	r6, #1
 800524c:	6823      	ldr	r3, [r4, #0]
 800524e:	f413 1f80 	tst.w	r3, #1048576	; 0x100000
 8005252:	d006      	beq.n	8005262 <HAL_RCCEx_PeriphCLKConfig+0x846>
 8005254:	4a62      	ldr	r2, [pc, #392]	; (80053e0 <HAL_RCCEx_PeriphCLKConfig+0x9c4>)
 8005256:	6d13      	ldr	r3, [r2, #80]	; 0x50
 8005258:	f023 4300 	bic.w	r3, r3, #2147483648	; 0x80000000
 800525c:	6f21      	ldr	r1, [r4, #112]	; 0x70
 800525e:	430b      	orrs	r3, r1
 8005260:	6513      	str	r3, [r2, #80]	; 0x50
 8005262:	6823      	ldr	r3, [r4, #0]
 8005264:	f013 5f80 	tst.w	r3, #268435456	; 0x10000000
 8005268:	d007      	beq.n	800527a <HAL_RCCEx_PeriphCLKConfig+0x85e>
 800526a:	4a5d      	ldr	r2, [pc, #372]	; (80053e0 <HAL_RCCEx_PeriphCLKConfig+0x9c4>)
 800526c:	6913      	ldr	r3, [r2, #16]
 800526e:	f423 4380 	bic.w	r3, r3, #16384	; 0x4000
 8005272:	f8d4 10b4 	ldr.w	r1, [r4, #180]	; 0xb4
 8005276:	430b      	orrs	r3, r1
 8005278:	6113      	str	r3, [r2, #16]
 800527a:	6823      	ldr	r3, [r4, #0]
 800527c:	f413 1f00 	tst.w	r3, #2097152	; 0x200000
 8005280:	d006      	beq.n	8005290 <HAL_RCCEx_PeriphCLKConfig+0x874>
 8005282:	4a57      	ldr	r2, [pc, #348]	; (80053e0 <HAL_RCCEx_PeriphCLKConfig+0x9c4>)
 8005284:	6d13      	ldr	r3, [r2, #80]	; 0x50
 8005286:	f023 7380 	bic.w	r3, r3, #16777216	; 0x1000000
 800528a:	6ea1      	ldr	r1, [r4, #104]	; 0x68
 800528c:	430b      	orrs	r3, r1
 800528e:	6513      	str	r3, [r2, #80]	; 0x50
 8005290:	6823      	ldr	r3, [r4, #0]
 8005292:	f013 4f80 	tst.w	r3, #1073741824	; 0x40000000
 8005296:	d009      	beq.n	80052ac <HAL_RCCEx_PeriphCLKConfig+0x890>
 8005298:	4b51      	ldr	r3, [pc, #324]	; (80053e0 <HAL_RCCEx_PeriphCLKConfig+0x9c4>)
 800529a:	691a      	ldr	r2, [r3, #16]
 800529c:	f422 4200 	bic.w	r2, r2, #32768	; 0x8000
 80052a0:	611a      	str	r2, [r3, #16]
 80052a2:	691a      	ldr	r2, [r3, #16]
 80052a4:	f8d4 10b8 	ldr.w	r1, [r4, #184]	; 0xb8
 80052a8:	430a      	orrs	r2, r1
 80052aa:	611a      	str	r2, [r3, #16]
 80052ac:	6823      	ldr	r3, [r4, #0]
 80052ae:	2b00      	cmp	r3, #0
 80052b0:	f2c0 808e 	blt.w	80053d0 <HAL_RCCEx_PeriphCLKConfig+0x9b4>
 80052b4:	6823      	ldr	r3, [r4, #0]
 80052b6:	f413 0f00 	tst.w	r3, #8388608	; 0x800000
 80052ba:	d007      	beq.n	80052cc <HAL_RCCEx_PeriphCLKConfig+0x8b0>
 80052bc:	4a48      	ldr	r2, [pc, #288]	; (80053e0 <HAL_RCCEx_PeriphCLKConfig+0x9c4>)
 80052be:	6d53      	ldr	r3, [r2, #84]	; 0x54
 80052c0:	f423 0340 	bic.w	r3, r3, #12582912	; 0xc00000
 80052c4:	f8d4 1088 	ldr.w	r1, [r4, #136]	; 0x88
 80052c8:	430b      	orrs	r3, r1
 80052ca:	6553      	str	r3, [r2, #84]	; 0x54
 80052cc:	1e30      	subs	r0, r6, #0
 80052ce:	bf18      	it	ne
 80052d0:	2001      	movne	r0, #1
 80052d2:	e8bd 83f8 	ldmia.w	sp!, {r3, r4, r5, r6, r7, r8, r9, pc}
 80052d6:	2102      	movs	r1, #2
 80052d8:	f104 0024 	add.w	r0, r4, #36	; 0x24
 80052dc:	f7ff fb1c 	bl	8004918 <RCCEx_PLL3_Config>
 80052e0:	4605      	mov	r5, r0
 80052e2:	e71d      	b.n	8005120 <HAL_RCCEx_PeriphCLKConfig+0x704>
 80052e4:	462e      	mov	r6, r5
 80052e6:	e741      	b.n	800516c <HAL_RCCEx_PeriphCLKConfig+0x750>
 80052e8:	2102      	movs	r1, #2
 80052ea:	f104 0024 	add.w	r0, r4, #36	; 0x24
 80052ee:	f7ff fb13 	bl	8004918 <RCCEx_PLL3_Config>
 80052f2:	2800      	cmp	r0, #0
 80052f4:	bf18      	it	ne
 80052f6:	2601      	movne	r6, #1
 80052f8:	e742      	b.n	8005180 <HAL_RCCEx_PeriphCLKConfig+0x764>
 80052fa:	2102      	movs	r1, #2
 80052fc:	f104 0024 	add.w	r0, r4, #36	; 0x24
 8005300:	f7ff fb0a 	bl	8004918 <RCCEx_PLL3_Config>
 8005304:	2800      	cmp	r0, #0
 8005306:	bf18      	it	ne
 8005308:	2601      	movne	r6, #1
 800530a:	e74b      	b.n	80051a4 <HAL_RCCEx_PeriphCLKConfig+0x788>
 800530c:	2100      	movs	r1, #0
 800530e:	1d20      	adds	r0, r4, #4
 8005310:	f7ff fa80 	bl	8004814 <RCCEx_PLL2_Config>
 8005314:	4605      	mov	r5, r0
 8005316:	b97d      	cbnz	r5, 8005338 <HAL_RCCEx_PeriphCLKConfig+0x91c>
 8005318:	4a31      	ldr	r2, [pc, #196]	; (80053e0 <HAL_RCCEx_PeriphCLKConfig+0x9c4>)
 800531a:	6d93      	ldr	r3, [r2, #88]	; 0x58
 800531c:	f423 3340 	bic.w	r3, r3, #196608	; 0x30000
 8005320:	f8d4 10a0 	ldr.w	r1, [r4, #160]	; 0xa0
 8005324:	430b      	orrs	r3, r1
 8005326:	6593      	str	r3, [r2, #88]	; 0x58
 8005328:	e757      	b.n	80051da <HAL_RCCEx_PeriphCLKConfig+0x7be>
 800532a:	2102      	movs	r1, #2
 800532c:	f104 0024 	add.w	r0, r4, #36	; 0x24
 8005330:	f7ff faf2 	bl	8004918 <RCCEx_PLL3_Config>
 8005334:	4605      	mov	r5, r0
 8005336:	e7ee      	b.n	8005316 <HAL_RCCEx_PeriphCLKConfig+0x8fa>
 8005338:	462e      	mov	r6, r5
 800533a:	e74e      	b.n	80051da <HAL_RCCEx_PeriphCLKConfig+0x7be>
 800533c:	4a28      	ldr	r2, [pc, #160]	; (80053e0 <HAL_RCCEx_PeriphCLKConfig+0x9c4>)
 800533e:	6ad3      	ldr	r3, [r2, #44]	; 0x2c
 8005340:	f443 3300 	orr.w	r3, r3, #131072	; 0x20000
 8005344:	62d3      	str	r3, [r2, #44]	; 0x2c
 8005346:	b97d      	cbnz	r5, 8005368 <HAL_RCCEx_PeriphCLKConfig+0x94c>
 8005348:	4a25      	ldr	r2, [pc, #148]	; (80053e0 <HAL_RCCEx_PeriphCLKConfig+0x9c4>)
 800534a:	6d53      	ldr	r3, [r2, #84]	; 0x54
 800534c:	f423 1340 	bic.w	r3, r3, #3145728	; 0x300000
 8005350:	f8d4 1084 	ldr.w	r1, [r4, #132]	; 0x84
 8005354:	430b      	orrs	r3, r1
 8005356:	6553      	str	r3, [r2, #84]	; 0x54
 8005358:	e753      	b.n	8005202 <HAL_RCCEx_PeriphCLKConfig+0x7e6>
 800535a:	2101      	movs	r1, #1
 800535c:	f104 0024 	add.w	r0, r4, #36	; 0x24
 8005360:	f7ff fada 	bl	8004918 <RCCEx_PLL3_Config>
 8005364:	4605      	mov	r5, r0
 8005366:	e7ee      	b.n	8005346 <HAL_RCCEx_PeriphCLKConfig+0x92a>
 8005368:	462e      	mov	r6, r5
 800536a:	e74a      	b.n	8005202 <HAL_RCCEx_PeriphCLKConfig+0x7e6>
 800536c:	4a1c      	ldr	r2, [pc, #112]	; (80053e0 <HAL_RCCEx_PeriphCLKConfig+0x9c4>)
 800536e:	6ad3      	ldr	r3, [r2, #44]	; 0x2c
 8005370:	f443 3300 	orr.w	r3, r3, #131072	; 0x20000
 8005374:	62d3      	str	r3, [r2, #44]	; 0x2c
 8005376:	b96d      	cbnz	r5, 8005394 <HAL_RCCEx_PeriphCLKConfig+0x978>
 8005378:	4a19      	ldr	r2, [pc, #100]	; (80053e0 <HAL_RCCEx_PeriphCLKConfig+0x9c4>)
 800537a:	6cd3      	ldr	r3, [r2, #76]	; 0x4c
 800537c:	f423 3380 	bic.w	r3, r3, #65536	; 0x10000
 8005380:	6ce1      	ldr	r1, [r4, #76]	; 0x4c
 8005382:	430b      	orrs	r3, r1
 8005384:	64d3      	str	r3, [r2, #76]	; 0x4c
 8005386:	e74a      	b.n	800521e <HAL_RCCEx_PeriphCLKConfig+0x802>
 8005388:	2102      	movs	r1, #2
 800538a:	1d20      	adds	r0, r4, #4
 800538c:	f7ff fa42 	bl	8004814 <RCCEx_PLL2_Config>
 8005390:	4605      	mov	r5, r0
 8005392:	e7f0      	b.n	8005376 <HAL_RCCEx_PeriphCLKConfig+0x95a>
 8005394:	462e      	mov	r6, r5
 8005396:	e742      	b.n	800521e <HAL_RCCEx_PeriphCLKConfig+0x802>
 8005398:	2102      	movs	r1, #2
 800539a:	f104 0024 	add.w	r0, r4, #36	; 0x24
 800539e:	f7ff fabb 	bl	8004918 <RCCEx_PLL3_Config>
 80053a2:	2800      	cmp	r0, #0
 80053a4:	bf18      	it	ne
 80053a6:	2601      	movne	r6, #1
 80053a8:	e73e      	b.n	8005228 <HAL_RCCEx_PeriphCLKConfig+0x80c>
 80053aa:	b133      	cbz	r3, 80053ba <HAL_RCCEx_PeriphCLKConfig+0x99e>
 80053ac:	2601      	movs	r6, #1
 80053ae:	e74d      	b.n	800524c <HAL_RCCEx_PeriphCLKConfig+0x830>
 80053b0:	4a0b      	ldr	r2, [pc, #44]	; (80053e0 <HAL_RCCEx_PeriphCLKConfig+0x9c4>)
 80053b2:	6ad3      	ldr	r3, [r2, #44]	; 0x2c
 80053b4:	f443 3300 	orr.w	r3, r3, #131072	; 0x20000
 80053b8:	62d3      	str	r3, [r2, #44]	; 0x2c
 80053ba:	b93d      	cbnz	r5, 80053cc <HAL_RCCEx_PeriphCLKConfig+0x9b0>
 80053bc:	4a08      	ldr	r2, [pc, #32]	; (80053e0 <HAL_RCCEx_PeriphCLKConfig+0x9c4>)
 80053be:	6d53      	ldr	r3, [r2, #84]	; 0x54
 80053c0:	f423 7340 	bic.w	r3, r3, #768	; 0x300
 80053c4:	6fe1      	ldr	r1, [r4, #124]	; 0x7c
 80053c6:	430b      	orrs	r3, r1
 80053c8:	6553      	str	r3, [r2, #84]	; 0x54
 80053ca:	e73f      	b.n	800524c <HAL_RCCEx_PeriphCLKConfig+0x830>
 80053cc:	462e      	mov	r6, r5
 80053ce:	e73d      	b.n	800524c <HAL_RCCEx_PeriphCLKConfig+0x830>
 80053d0:	4a03      	ldr	r2, [pc, #12]	; (80053e0 <HAL_RCCEx_PeriphCLKConfig+0x9c4>)
 80053d2:	6cd3      	ldr	r3, [r2, #76]	; 0x4c
 80053d4:	f023 5340 	bic.w	r3, r3, #805306368	; 0x30000000
 80053d8:	6d21      	ldr	r1, [r4, #80]	; 0x50
 80053da:	430b      	orrs	r3, r1
 80053dc:	64d3      	str	r3, [r2, #76]	; 0x4c
 80053de:	e769      	b.n	80052b4 <HAL_RCCEx_PeriphCLKConfig+0x898>
 80053e0:	58024400 	.word	0x58024400

080053e4 <HAL_RCCEx_GetD3PCLK1Freq>:
 80053e4:	b508      	push	{r3, lr}
 80053e6:	f7ff f9cf 	bl	8004788 <HAL_RCC_GetHCLKFreq>
 80053ea:	4b05      	ldr	r3, [pc, #20]	; (8005400 <HAL_RCCEx_GetD3PCLK1Freq+0x1c>)
 80053ec:	6a1b      	ldr	r3, [r3, #32]
 80053ee:	f3c3 1302 	ubfx	r3, r3, #4, #3
 80053f2:	4a04      	ldr	r2, [pc, #16]	; (8005404 <HAL_RCCEx_GetD3PCLK1Freq+0x20>)
 80053f4:	5cd3      	ldrb	r3, [r2, r3]
 80053f6:	f003 031f 	and.w	r3, r3, #31
 80053fa:	40d8      	lsrs	r0, r3
 80053fc:	bd08      	pop	{r3, pc}
 80053fe:	bf00      	nop
 8005400:	58024400 	.word	0x58024400
 8005404:	08006c5c 	.word	0x08006c5c

08005408 <HAL_RCCEx_GetPLL2ClockFreq>:
 8005408:	b430      	push	{r4, r5}
 800540a:	4a78      	ldr	r2, [pc, #480]	; (80055ec <HAL_RCCEx_GetPLL2ClockFreq+0x1e4>)
 800540c:	6a94      	ldr	r4, [r2, #40]	; 0x28
 800540e:	6a95      	ldr	r5, [r2, #40]	; 0x28
 8005410:	f3c5 3105 	ubfx	r1, r5, #12, #6
 8005414:	6ad3      	ldr	r3, [r2, #44]	; 0x2c
 8005416:	6bd2      	ldr	r2, [r2, #60]	; 0x3c
 8005418:	f415 3f7c 	tst.w	r5, #258048	; 0x3f000
 800541c:	f000 80e0 	beq.w	80055e0 <HAL_RCCEx_GetPLL2ClockFreq+0x1d8>
 8005420:	f3c2 02cc 	ubfx	r2, r2, #3, #13
 8005424:	f3c3 1300 	ubfx	r3, r3, #4, #1
 8005428:	fb03 f302 	mul.w	r3, r3, r2
 800542c:	ee07 3a90 	vmov	s15, r3
 8005430:	eef8 6a67 	vcvt.f32.u32	s13, s15
 8005434:	f004 0403 	and.w	r4, r4, #3
 8005438:	2c01      	cmp	r4, #1
 800543a:	d066      	beq.n	800550a <HAL_RCCEx_GetPLL2ClockFreq+0x102>
 800543c:	2c02      	cmp	r4, #2
 800543e:	f000 80b2 	beq.w	80055a6 <HAL_RCCEx_GetPLL2ClockFreq+0x19e>
 8005442:	b1e4      	cbz	r4, 800547e <HAL_RCCEx_GetPLL2ClockFreq+0x76>
 8005444:	4b69      	ldr	r3, [pc, #420]	; (80055ec <HAL_RCCEx_GetPLL2ClockFreq+0x1e4>)
 8005446:	6b9b      	ldr	r3, [r3, #56]	; 0x38
 8005448:	f3c3 0308 	ubfx	r3, r3, #0, #9
 800544c:	ee07 3a90 	vmov	s15, r3
 8005450:	eef8 7a67 	vcvt.f32.u32	s15, s15
 8005454:	ed9f 7a66 	vldr	s14, [pc, #408]	; 80055f0 <HAL_RCCEx_GetPLL2ClockFreq+0x1e8>
 8005458:	ee66 6a87 	vmul.f32	s13, s13, s14
 800545c:	ee77 7aa6 	vadd.f32	s15, s15, s13
 8005460:	eeb7 7a00 	vmov.f32	s14, #112	; 0x3f800000  1.0
 8005464:	ee77 7a87 	vadd.f32	s15, s15, s14
 8005468:	ee07 1a10 	vmov	s14, r1
 800546c:	eeb8 7a47 	vcvt.f32.u32	s14, s14
 8005470:	ed9f 6a60 	vldr	s12, [pc, #384]	; 80055f4 <HAL_RCCEx_GetPLL2ClockFreq+0x1ec>
 8005474:	eec6 6a07 	vdiv.f32	s13, s12, s14
 8005478:	ee67 7aa6 	vmul.f32	s15, s15, s13
 800547c:	e061      	b.n	8005542 <HAL_RCCEx_GetPLL2ClockFreq+0x13a>
 800547e:	4b5b      	ldr	r3, [pc, #364]	; (80055ec <HAL_RCCEx_GetPLL2ClockFreq+0x1e4>)
 8005480:	681b      	ldr	r3, [r3, #0]
 8005482:	f013 0f20 	tst.w	r3, #32
 8005486:	d023      	beq.n	80054d0 <HAL_RCCEx_GetPLL2ClockFreq+0xc8>
 8005488:	4b58      	ldr	r3, [pc, #352]	; (80055ec <HAL_RCCEx_GetPLL2ClockFreq+0x1e4>)
 800548a:	681c      	ldr	r4, [r3, #0]
 800548c:	6b9b      	ldr	r3, [r3, #56]	; 0x38
 800548e:	f3c4 04c1 	ubfx	r4, r4, #3, #2
 8005492:	4a59      	ldr	r2, [pc, #356]	; (80055f8 <HAL_RCCEx_GetPLL2ClockFreq+0x1f0>)
 8005494:	40e2      	lsrs	r2, r4
 8005496:	ee07 2a90 	vmov	s15, r2
 800549a:	eef8 7a67 	vcvt.f32.u32	s15, s15
 800549e:	ee07 1a10 	vmov	s14, r1
 80054a2:	eeb8 6a47 	vcvt.f32.u32	s12, s14
 80054a6:	ee87 7a86 	vdiv.f32	s14, s15, s12
 80054aa:	f3c3 0308 	ubfx	r3, r3, #0, #9
 80054ae:	ee07 3a90 	vmov	s15, r3
 80054b2:	eef8 7a67 	vcvt.f32.u32	s15, s15
 80054b6:	ed9f 6a4e 	vldr	s12, [pc, #312]	; 80055f0 <HAL_RCCEx_GetPLL2ClockFreq+0x1e8>
 80054ba:	ee66 6a86 	vmul.f32	s13, s13, s12
 80054be:	ee77 6aa6 	vadd.f32	s13, s15, s13
 80054c2:	eef7 7a00 	vmov.f32	s15, #112	; 0x3f800000  1.0
 80054c6:	ee76 7aa7 	vadd.f32	s15, s13, s15
 80054ca:	ee67 7a27 	vmul.f32	s15, s14, s15
 80054ce:	e038      	b.n	8005542 <HAL_RCCEx_GetPLL2ClockFreq+0x13a>
 80054d0:	4b46      	ldr	r3, [pc, #280]	; (80055ec <HAL_RCCEx_GetPLL2ClockFreq+0x1e4>)
 80054d2:	6b9b      	ldr	r3, [r3, #56]	; 0x38
 80054d4:	f3c3 0308 	ubfx	r3, r3, #0, #9
 80054d8:	ee07 3a90 	vmov	s15, r3
 80054dc:	eeb8 7a67 	vcvt.f32.u32	s14, s15
 80054e0:	eddf 7a43 	vldr	s15, [pc, #268]	; 80055f0 <HAL_RCCEx_GetPLL2ClockFreq+0x1e8>
 80054e4:	ee66 7aa7 	vmul.f32	s15, s13, s15
 80054e8:	ee77 7a27 	vadd.f32	s15, s14, s15
 80054ec:	eeb7 7a00 	vmov.f32	s14, #112	; 0x3f800000  1.0
 80054f0:	ee77 7a87 	vadd.f32	s15, s15, s14
 80054f4:	ee07 1a10 	vmov	s14, r1
 80054f8:	eef8 6a47 	vcvt.f32.u32	s13, s14
 80054fc:	ed9f 6a3f 	vldr	s12, [pc, #252]	; 80055fc <HAL_RCCEx_GetPLL2ClockFreq+0x1f4>
 8005500:	ee86 7a26 	vdiv.f32	s14, s12, s13
 8005504:	ee67 7a87 	vmul.f32	s15, s15, s14
 8005508:	e01b      	b.n	8005542 <HAL_RCCEx_GetPLL2ClockFreq+0x13a>
 800550a:	4b38      	ldr	r3, [pc, #224]	; (80055ec <HAL_RCCEx_GetPLL2ClockFreq+0x1e4>)
 800550c:	6b9b      	ldr	r3, [r3, #56]	; 0x38
 800550e:	f3c3 0308 	ubfx	r3, r3, #0, #9
 8005512:	ee07 3a90 	vmov	s15, r3
 8005516:	eef8 7a67 	vcvt.f32.u32	s15, s15
 800551a:	ed9f 7a35 	vldr	s14, [pc, #212]	; 80055f0 <HAL_RCCEx_GetPLL2ClockFreq+0x1e8>
 800551e:	ee66 6a87 	vmul.f32	s13, s13, s14
 8005522:	ee77 7aa6 	vadd.f32	s15, s15, s13
 8005526:	eeb7 7a00 	vmov.f32	s14, #112	; 0x3f800000  1.0
 800552a:	ee77 7a87 	vadd.f32	s15, s15, s14
 800552e:	ee07 1a10 	vmov	s14, r1
 8005532:	eef8 6a47 	vcvt.f32.u32	s13, s14
 8005536:	ed9f 6a2f 	vldr	s12, [pc, #188]	; 80055f4 <HAL_RCCEx_GetPLL2ClockFreq+0x1ec>
 800553a:	ee86 7a26 	vdiv.f32	s14, s12, s13
 800553e:	ee67 7a87 	vmul.f32	s15, s15, s14
 8005542:	4a2a      	ldr	r2, [pc, #168]	; (80055ec <HAL_RCCEx_GetPLL2ClockFreq+0x1e4>)
 8005544:	6b93      	ldr	r3, [r2, #56]	; 0x38
 8005546:	f3c3 2346 	ubfx	r3, r3, #9, #7
 800554a:	ee06 3a90 	vmov	s13, r3
 800554e:	eef8 6a66 	vcvt.f32.u32	s13, s13
 8005552:	eeb7 6a00 	vmov.f32	s12, #112	; 0x3f800000  1.0
 8005556:	ee76 6a86 	vadd.f32	s13, s13, s12
 800555a:	ee87 7aa6 	vdiv.f32	s14, s15, s13
 800555e:	eebc 7ac7 	vcvt.u32.f32	s14, s14
 8005562:	ed80 7a00 	vstr	s14, [r0]
 8005566:	6b93      	ldr	r3, [r2, #56]	; 0x38
 8005568:	f3c3 4306 	ubfx	r3, r3, #16, #7
 800556c:	ee06 3a90 	vmov	s13, r3
 8005570:	eef8 6a66 	vcvt.f32.u32	s13, s13
 8005574:	ee76 6a86 	vadd.f32	s13, s13, s12
 8005578:	ee87 7aa6 	vdiv.f32	s14, s15, s13
 800557c:	eebc 7ac7 	vcvt.u32.f32	s14, s14
 8005580:	ed80 7a01 	vstr	s14, [r0, #4]
 8005584:	6b93      	ldr	r3, [r2, #56]	; 0x38
 8005586:	f3c3 6306 	ubfx	r3, r3, #24, #7
 800558a:	ee07 3a10 	vmov	s14, r3
 800558e:	eeb8 7a47 	vcvt.f32.u32	s14, s14
 8005592:	ee37 7a06 	vadd.f32	s14, s14, s12
 8005596:	eec7 6a87 	vdiv.f32	s13, s15, s14
 800559a:	eefc 6ae6 	vcvt.u32.f32	s13, s13
 800559e:	edc0 6a02 	vstr	s13, [r0, #8]
 80055a2:	bc30      	pop	{r4, r5}
 80055a4:	4770      	bx	lr
 80055a6:	4b11      	ldr	r3, [pc, #68]	; (80055ec <HAL_RCCEx_GetPLL2ClockFreq+0x1e4>)
 80055a8:	6b9b      	ldr	r3, [r3, #56]	; 0x38
 80055aa:	f3c3 0308 	ubfx	r3, r3, #0, #9
 80055ae:	ee07 3a90 	vmov	s15, r3
 80055b2:	eef8 7a67 	vcvt.f32.u32	s15, s15
 80055b6:	ed9f 7a0e 	vldr	s14, [pc, #56]	; 80055f0 <HAL_RCCEx_GetPLL2ClockFreq+0x1e8>
 80055ba:	ee66 6a87 	vmul.f32	s13, s13, s14
 80055be:	ee77 7aa6 	vadd.f32	s15, s15, s13
 80055c2:	eeb7 7a00 	vmov.f32	s14, #112	; 0x3f800000  1.0
 80055c6:	ee77 7a87 	vadd.f32	s15, s15, s14
 80055ca:	ee07 1a10 	vmov	s14, r1
 80055ce:	eef8 6a47 	vcvt.f32.u32	s13, s14
 80055d2:	ed9f 6a0b 	vldr	s12, [pc, #44]	; 8005600 <HAL_RCCEx_GetPLL2ClockFreq+0x1f8>
 80055d6:	ee86 7a26 	vdiv.f32	s14, s12, s13
 80055da:	ee67 7a87 	vmul.f32	s15, s15, s14
 80055de:	e7b0      	b.n	8005542 <HAL_RCCEx_GetPLL2ClockFreq+0x13a>
 80055e0:	2300      	movs	r3, #0
 80055e2:	6003      	str	r3, [r0, #0]
 80055e4:	6043      	str	r3, [r0, #4]
 80055e6:	6083      	str	r3, [r0, #8]
 80055e8:	e7db      	b.n	80055a2 <HAL_RCCEx_GetPLL2ClockFreq+0x19a>
 80055ea:	bf00      	nop
 80055ec:	58024400 	.word	0x58024400
 80055f0:	39000000 	.word	0x39000000
 80055f4:	4a742400 	.word	0x4a742400
 80055f8:	03d09000 	.word	0x03d09000
 80055fc:	4c742400 	.word	0x4c742400
 8005600:	4afe502a 	.word	0x4afe502a

08005604 <HAL_RCCEx_GetPLL3ClockFreq>:
 8005604:	b430      	push	{r4, r5}
 8005606:	4a78      	ldr	r2, [pc, #480]	; (80057e8 <HAL_RCCEx_GetPLL3ClockFreq+0x1e4>)
 8005608:	6a94      	ldr	r4, [r2, #40]	; 0x28
 800560a:	6a95      	ldr	r5, [r2, #40]	; 0x28
 800560c:	f3c5 5105 	ubfx	r1, r5, #20, #6
 8005610:	6ad3      	ldr	r3, [r2, #44]	; 0x2c
 8005612:	6c52      	ldr	r2, [r2, #68]	; 0x44
 8005614:	f015 7f7c 	tst.w	r5, #66060288	; 0x3f00000
 8005618:	f000 80e0 	beq.w	80057dc <HAL_RCCEx_GetPLL3ClockFreq+0x1d8>
 800561c:	f3c2 02cc 	ubfx	r2, r2, #3, #13
 8005620:	f3c3 2300 	ubfx	r3, r3, #8, #1
 8005624:	fb03 f302 	mul.w	r3, r3, r2
 8005628:	ee07 3a90 	vmov	s15, r3
 800562c:	eef8 6a67 	vcvt.f32.u32	s13, s15
 8005630:	f004 0403 	and.w	r4, r4, #3
 8005634:	2c01      	cmp	r4, #1
 8005636:	d066      	beq.n	8005706 <HAL_RCCEx_GetPLL3ClockFreq+0x102>
 8005638:	2c02      	cmp	r4, #2
 800563a:	f000 80b2 	beq.w	80057a2 <HAL_RCCEx_GetPLL3ClockFreq+0x19e>
 800563e:	b1e4      	cbz	r4, 800567a <HAL_RCCEx_GetPLL3ClockFreq+0x76>
 8005640:	4b69      	ldr	r3, [pc, #420]	; (80057e8 <HAL_RCCEx_GetPLL3ClockFreq+0x1e4>)
 8005642:	6c1b      	ldr	r3, [r3, #64]	; 0x40
 8005644:	f3c3 0308 	ubfx	r3, r3, #0, #9
 8005648:	ee07 3a90 	vmov	s15, r3
 800564c:	eef8 7a67 	vcvt.f32.u32	s15, s15
 8005650:	ed9f 7a66 	vldr	s14, [pc, #408]	; 80057ec <HAL_RCCEx_GetPLL3ClockFreq+0x1e8>
 8005654:	ee66 6a87 	vmul.f32	s13, s13, s14
 8005658:	ee77 7aa6 	vadd.f32	s15, s15, s13
 800565c:	eeb7 7a00 	vmov.f32	s14, #112	; 0x3f800000  1.0
 8005660:	ee77 7a87 	vadd.f32	s15, s15, s14
 8005664:	ee07 1a10 	vmov	s14, r1
 8005668:	eeb8 7a47 	vcvt.f32.u32	s14, s14
 800566c:	ed9f 6a60 	vldr	s12, [pc, #384]	; 80057f0 <HAL_RCCEx_GetPLL3ClockFreq+0x1ec>
 8005670:	eec6 6a07 	vdiv.f32	s13, s12, s14
 8005674:	ee67 7aa6 	vmul.f32	s15, s15, s13
 8005678:	e061      	b.n	800573e <HAL_RCCEx_GetPLL3ClockFreq+0x13a>
 800567a:	4b5b      	ldr	r3, [pc, #364]	; (80057e8 <HAL_RCCEx_GetPLL3ClockFreq+0x1e4>)
 800567c:	681b      	ldr	r3, [r3, #0]
 800567e:	f013 0f20 	tst.w	r3, #32
 8005682:	d023      	beq.n	80056cc <HAL_RCCEx_GetPLL3ClockFreq+0xc8>
 8005684:	4b58      	ldr	r3, [pc, #352]	; (80057e8 <HAL_RCCEx_GetPLL3ClockFreq+0x1e4>)
 8005686:	681c      	ldr	r4, [r3, #0]
 8005688:	6c1b      	ldr	r3, [r3, #64]	; 0x40
 800568a:	f3c4 04c1 	ubfx	r4, r4, #3, #2
 800568e:	4a59      	ldr	r2, [pc, #356]	; (80057f4 <HAL_RCCEx_GetPLL3ClockFreq+0x1f0>)
 8005690:	40e2      	lsrs	r2, r4
 8005692:	ee07 2a90 	vmov	s15, r2
 8005696:	eef8 7a67 	vcvt.f32.u32	s15, s15
 800569a:	ee07 1a10 	vmov	s14, r1
 800569e:	eeb8 6a47 	vcvt.f32.u32	s12, s14
 80056a2:	ee87 7a86 	vdiv.f32	s14, s15, s12
 80056a6:	f3c3 0308 	ubfx	r3, r3, #0, #9
 80056aa:	ee07 3a90 	vmov	s15, r3
 80056ae:	eef8 7a67 	vcvt.f32.u32	s15, s15
 80056b2:	ed9f 6a4e 	vldr	s12, [pc, #312]	; 80057ec <HAL_RCCEx_GetPLL3ClockFreq+0x1e8>
 80056b6:	ee66 6a86 	vmul.f32	s13, s13, s12
 80056ba:	ee77 6aa6 	vadd.f32	s13, s15, s13
 80056be:	eef7 7a00 	vmov.f32	s15, #112	; 0x3f800000  1.0
 80056c2:	ee76 7aa7 	vadd.f32	s15, s13, s15
 80056c6:	ee67 7a27 	vmul.f32	s15, s14, s15
 80056ca:	e038      	b.n	800573e <HAL_RCCEx_GetPLL3ClockFreq+0x13a>
 80056cc:	4b46      	ldr	r3, [pc, #280]	; (80057e8 <HAL_RCCEx_GetPLL3ClockFreq+0x1e4>)
 80056ce:	6c1b      	ldr	r3, [r3, #64]	; 0x40
 80056d0:	f3c3 0308 	ubfx	r3, r3, #0, #9
 80056d4:	ee07 3a90 	vmov	s15, r3
 80056d8:	eeb8 7a67 	vcvt.f32.u32	s14, s15
 80056dc:	eddf 7a43 	vldr	s15, [pc, #268]	; 80057ec <HAL_RCCEx_GetPLL3ClockFreq+0x1e8>
 80056e0:	ee66 7aa7 	vmul.f32	s15, s13, s15
 80056e4:	ee77 7a27 	vadd.f32	s15, s14, s15
 80056e8:	eeb7 7a00 	vmov.f32	s14, #112	; 0x3f800000  1.0
 80056ec:	ee77 7a87 	vadd.f32	s15, s15, s14
 80056f0:	ee07 1a10 	vmov	s14, r1
 80056f4:	eef8 6a47 	vcvt.f32.u32	s13, s14
 80056f8:	ed9f 6a3f 	vldr	s12, [pc, #252]	; 80057f8 <HAL_RCCEx_GetPLL3ClockFreq+0x1f4>
 80056fc:	ee86 7a26 	vdiv.f32	s14, s12, s13
 8005700:	ee67 7a87 	vmul.f32	s15, s15, s14
 8005704:	e01b      	b.n	800573e <HAL_RCCEx_GetPLL3ClockFreq+0x13a>
 8005706:	4b38      	ldr	r3, [pc, #224]	; (80057e8 <HAL_RCCEx_GetPLL3ClockFreq+0x1e4>)
 8005708:	6c1b      	ldr	r3, [r3, #64]	; 0x40
 800570a:	f3c3 0308 	ubfx	r3, r3, #0, #9
 800570e:	ee07 3a90 	vmov	s15, r3
 8005712:	eef8 7a67 	vcvt.f32.u32	s15, s15
 8005716:	ed9f 7a35 	vldr	s14, [pc, #212]	; 80057ec <HAL_RCCEx_GetPLL3ClockFreq+0x1e8>
 800571a:	ee66 6a87 	vmul.f32	s13, s13, s14
 800571e:	ee77 7aa6 	vadd.f32	s15, s15, s13
 8005722:	eeb7 7a00 	vmov.f32	s14, #112	; 0x3f800000  1.0
 8005726:	ee77 7a87 	vadd.f32	s15, s15, s14
 800572a:	ee07 1a10 	vmov	s14, r1
 800572e:	eef8 6a47 	vcvt.f32.u32	s13, s14
 8005732:	ed9f 6a2f 	vldr	s12, [pc, #188]	; 80057f0 <HAL_RCCEx_GetPLL3ClockFreq+0x1ec>
 8005736:	ee86 7a26 	vdiv.f32	s14, s12, s13
 800573a:	ee67 7a87 	vmul.f32	s15, s15, s14
 800573e:	4a2a      	ldr	r2, [pc, #168]	; (80057e8 <HAL_RCCEx_GetPLL3ClockFreq+0x1e4>)
 8005740:	6c13      	ldr	r3, [r2, #64]	; 0x40
 8005742:	f3c3 2346 	ubfx	r3, r3, #9, #7
 8005746:	ee06 3a90 	vmov	s13, r3
 800574a:	eef8 6a66 	vcvt.f32.u32	s13, s13
 800574e:	eeb7 6a00 	vmov.f32	s12, #112	; 0x3f800000  1.0
 8005752:	ee76 6a86 	vadd.f32	s13, s13, s12
 8005756:	ee87 7aa6 	vdiv.f32	s14, s15, s13
 800575a:	eebc 7ac7 	vcvt.u32.f32	s14, s14
 800575e:	ed80 7a00 	vstr	s14, [r0]
 8005762:	6c13      	ldr	r3, [r2, #64]	; 0x40
 8005764:	f3c3 4306 	ubfx	r3, r3, #16, #7
 8005768:	ee06 3a90 	vmov	s13, r3
 800576c:	eef8 6a66 	vcvt.f32.u32	s13, s13
 8005770:	ee76 6a86 	vadd.f32	s13, s13, s12
 8005774:	ee87 7aa6 	vdiv.f32	s14, s15, s13
 8005778:	eebc 7ac7 	vcvt.u32.f32	s14, s14
 800577c:	ed80 7a01 	vstr	s14, [r0, #4]
 8005780:	6c13      	ldr	r3, [r2, #64]	; 0x40
 8005782:	f3c3 6306 	ubfx	r3, r3, #24, #7
 8005786:	ee07 3a10 	vmov	s14, r3
 800578a:	eeb8 7a47 	vcvt.f32.u32	s14, s14
 800578e:	ee37 7a06 	vadd.f32	s14, s14, s12
 8005792:	eec7 6a87 	vdiv.f32	s13, s15, s14
 8005796:	eefc 6ae6 	vcvt.u32.f32	s13, s13
 800579a:	edc0 6a02 	vstr	s13, [r0, #8]
 800579e:	bc30      	pop	{r4, r5}
 80057a0:	4770      	bx	lr
 80057a2:	4b11      	ldr	r3, [pc, #68]	; (80057e8 <HAL_RCCEx_GetPLL3ClockFreq+0x1e4>)
 80057a4:	6c1b      	ldr	r3, [r3, #64]	; 0x40
 80057a6:	f3c3 0308 	ubfx	r3, r3, #0, #9
 80057aa:	ee07 3a90 	vmov	s15, r3
 80057ae:	eef8 7a67 	vcvt.f32.u32	s15, s15
 80057b2:	ed9f 7a0e 	vldr	s14, [pc, #56]	; 80057ec <HAL_RCCEx_GetPLL3ClockFreq+0x1e8>
 80057b6:	ee66 6a87 	vmul.f32	s13, s13, s14
 80057ba:	ee77 7aa6 	vadd.f32	s15, s15, s13
 80057be:	eeb7 7a00 	vmov.f32	s14, #112	; 0x3f800000  1.0
 80057c2:	ee77 7a87 	vadd.f32	s15, s15, s14
 80057c6:	ee07 1a10 	vmov	s14, r1
 80057ca:	eef8 6a47 	vcvt.f32.u32	s13, s14
 80057ce:	ed9f 6a0b 	vldr	s12, [pc, #44]	; 80057fc <HAL_RCCEx_GetPLL3ClockFreq+0x1f8>
 80057d2:	ee86 7a26 	vdiv.f32	s14, s12, s13
 80057d6:	ee67 7a87 	vmul.f32	s15, s15, s14
 80057da:	e7b0      	b.n	800573e <HAL_RCCEx_GetPLL3ClockFreq+0x13a>
 80057dc:	2300      	movs	r3, #0
 80057de:	6003      	str	r3, [r0, #0]
 80057e0:	6043      	str	r3, [r0, #4]
 80057e2:	6083      	str	r3, [r0, #8]
 80057e4:	e7db      	b.n	800579e <HAL_RCCEx_GetPLL3ClockFreq+0x19a>
 80057e6:	bf00      	nop
 80057e8:	58024400 	.word	0x58024400
 80057ec:	39000000 	.word	0x39000000
 80057f0:	4a742400 	.word	0x4a742400
 80057f4:	03d09000 	.word	0x03d09000
 80057f8:	4c742400 	.word	0x4c742400
 80057fc:	4afe502a 	.word	0x4afe502a

08005800 <SPI_CloseTransfer>:
 8005800:	b410      	push	{r4}
 8005802:	6802      	ldr	r2, [r0, #0]
 8005804:	6953      	ldr	r3, [r2, #20]
 8005806:	6991      	ldr	r1, [r2, #24]
 8005808:	f041 0108 	orr.w	r1, r1, #8
 800580c:	6191      	str	r1, [r2, #24]
 800580e:	6801      	ldr	r1, [r0, #0]
 8005810:	698a      	ldr	r2, [r1, #24]
 8005812:	f042 0210 	orr.w	r2, r2, #16
 8005816:	618a      	str	r2, [r1, #24]
 8005818:	6801      	ldr	r1, [r0, #0]
 800581a:	680a      	ldr	r2, [r1, #0]
 800581c:	f022 0201 	bic.w	r2, r2, #1
 8005820:	600a      	str	r2, [r1, #0]
 8005822:	6801      	ldr	r1, [r0, #0]
 8005824:	690c      	ldr	r4, [r1, #16]
 8005826:	4a29      	ldr	r2, [pc, #164]	; (80058cc <SPI_CloseTransfer+0xcc>)
 8005828:	4022      	ands	r2, r4
 800582a:	610a      	str	r2, [r1, #16]
 800582c:	6801      	ldr	r1, [r0, #0]
 800582e:	688a      	ldr	r2, [r1, #8]
 8005830:	f422 4240 	bic.w	r2, r2, #49152	; 0xc000
 8005834:	608a      	str	r2, [r1, #8]
 8005836:	f890 2081 	ldrb.w	r2, [r0, #129]	; 0x81
 800583a:	b2d2      	uxtb	r2, r2
 800583c:	2a04      	cmp	r2, #4
 800583e:	d00d      	beq.n	800585c <SPI_CloseTransfer+0x5c>
 8005840:	f013 0f20 	tst.w	r3, #32
 8005844:	d00a      	beq.n	800585c <SPI_CloseTransfer+0x5c>
 8005846:	f8d0 2084 	ldr.w	r2, [r0, #132]	; 0x84
 800584a:	f042 0280 	orr.w	r2, r2, #128	; 0x80
 800584e:	f8c0 2084 	str.w	r2, [r0, #132]	; 0x84
 8005852:	6801      	ldr	r1, [r0, #0]
 8005854:	698a      	ldr	r2, [r1, #24]
 8005856:	f042 0220 	orr.w	r2, r2, #32
 800585a:	618a      	str	r2, [r1, #24]
 800585c:	f890 2081 	ldrb.w	r2, [r0, #129]	; 0x81
 8005860:	b2d2      	uxtb	r2, r2
 8005862:	2a03      	cmp	r2, #3
 8005864:	d00d      	beq.n	8005882 <SPI_CloseTransfer+0x82>
 8005866:	f013 0f40 	tst.w	r3, #64	; 0x40
 800586a:	d00a      	beq.n	8005882 <SPI_CloseTransfer+0x82>
 800586c:	f8d0 2084 	ldr.w	r2, [r0, #132]	; 0x84
 8005870:	f042 0204 	orr.w	r2, r2, #4
 8005874:	f8c0 2084 	str.w	r2, [r0, #132]	; 0x84
 8005878:	6801      	ldr	r1, [r0, #0]
 800587a:	698a      	ldr	r2, [r1, #24]
 800587c:	f042 0240 	orr.w	r2, r2, #64	; 0x40
 8005880:	618a      	str	r2, [r1, #24]
 8005882:	f413 7f00 	tst.w	r3, #512	; 0x200
 8005886:	d00a      	beq.n	800589e <SPI_CloseTransfer+0x9e>
 8005888:	f8d0 2084 	ldr.w	r2, [r0, #132]	; 0x84
 800588c:	f042 0201 	orr.w	r2, r2, #1
 8005890:	f8c0 2084 	str.w	r2, [r0, #132]	; 0x84
 8005894:	6801      	ldr	r1, [r0, #0]
 8005896:	698a      	ldr	r2, [r1, #24]
 8005898:	f442 7200 	orr.w	r2, r2, #512	; 0x200
 800589c:	618a      	str	r2, [r1, #24]
 800589e:	f413 7f80 	tst.w	r3, #256	; 0x100
 80058a2:	d00a      	beq.n	80058ba <SPI_CloseTransfer+0xba>
 80058a4:	f8d0 3084 	ldr.w	r3, [r0, #132]	; 0x84
 80058a8:	f043 0308 	orr.w	r3, r3, #8
 80058ac:	f8c0 3084 	str.w	r3, [r0, #132]	; 0x84
 80058b0:	6802      	ldr	r2, [r0, #0]
 80058b2:	6993      	ldr	r3, [r2, #24]
 80058b4:	f443 7380 	orr.w	r3, r3, #256	; 0x100
 80058b8:	6193      	str	r3, [r2, #24]
 80058ba:	2300      	movs	r3, #0
 80058bc:	f8a0 3062 	strh.w	r3, [r0, #98]	; 0x62
 80058c0:	f8a0 306a 	strh.w	r3, [r0, #106]	; 0x6a
 80058c4:	f85d 4b04 	ldr.w	r4, [sp], #4
 80058c8:	4770      	bx	lr
 80058ca:	bf00      	nop
 80058cc:	fffffc90 	.word	0xfffffc90

080058d0 <HAL_SPI_Init>:
 80058d0:	2800      	cmp	r0, #0
 80058d2:	d034      	beq.n	800593e <HAL_SPI_Init+0x6e>
 80058d4:	b510      	push	{r4, lr}
 80058d6:	4604      	mov	r4, r0
 80058d8:	2300      	movs	r3, #0
 80058da:	6283      	str	r3, [r0, #40]	; 0x28
 80058dc:	6802      	ldr	r2, [r0, #0]
 80058de:	4951      	ldr	r1, [pc, #324]	; (8005a24 <HAL_SPI_Init+0x154>)
 80058e0:	4b51      	ldr	r3, [pc, #324]	; (8005a28 <HAL_SPI_Init+0x158>)
 80058e2:	428a      	cmp	r2, r1
 80058e4:	bf18      	it	ne
 80058e6:	429a      	cmpne	r2, r3
 80058e8:	d02f      	beq.n	800594a <HAL_SPI_Init+0x7a>
 80058ea:	f503 6380 	add.w	r3, r3, #1024	; 0x400
 80058ee:	429a      	cmp	r2, r3
 80058f0:	d02b      	beq.n	800594a <HAL_SPI_Init+0x7a>
 80058f2:	68c3      	ldr	r3, [r0, #12]
 80058f4:	2b0f      	cmp	r3, #15
 80058f6:	d824      	bhi.n	8005942 <HAL_SPI_Init+0x72>
 80058f8:	6bc2      	ldr	r2, [r0, #60]	; 0x3c
 80058fa:	0952      	lsrs	r2, r2, #5
 80058fc:	3308      	adds	r3, #8
 80058fe:	08db      	lsrs	r3, r3, #3
 8005900:	fb02 3303 	mla	r3, r2, r3, r3
 8005904:	2b08      	cmp	r3, #8
 8005906:	d933      	bls.n	8005970 <HAL_SPI_Init+0xa0>
 8005908:	2001      	movs	r0, #1
 800590a:	e089      	b.n	8005a20 <HAL_SPI_Init+0x150>
 800590c:	f884 3080 	strb.w	r3, [r4, #128]	; 0x80
 8005910:	4620      	mov	r0, r4
 8005912:	f7fb fb9b 	bl	800104c <HAL_SPI_MspInit>
 8005916:	e02f      	b.n	8005978 <HAL_SPI_Init+0xa8>
 8005918:	6863      	ldr	r3, [r4, #4]
 800591a:	f5b3 0f80 	cmp.w	r3, #4194304	; 0x400000
 800591e:	d006      	beq.n	800592e <HAL_SPI_Init+0x5e>
 8005920:	2b00      	cmp	r3, #0
 8005922:	d135      	bne.n	8005990 <HAL_SPI_Init+0xc0>
 8005924:	6ba3      	ldr	r3, [r4, #56]	; 0x38
 8005926:	f1b3 5f80 	cmp.w	r3, #268435456	; 0x10000000
 800592a:	d131      	bne.n	8005990 <HAL_SPI_Init+0xc0>
 800592c:	e001      	b.n	8005932 <HAL_SPI_Init+0x62>
 800592e:	6ba3      	ldr	r3, [r4, #56]	; 0x38
 8005930:	bb73      	cbnz	r3, 8005990 <HAL_SPI_Init+0xc0>
 8005932:	6822      	ldr	r2, [r4, #0]
 8005934:	6813      	ldr	r3, [r2, #0]
 8005936:	f443 5380 	orr.w	r3, r3, #4096	; 0x1000
 800593a:	6013      	str	r3, [r2, #0]
 800593c:	e028      	b.n	8005990 <HAL_SPI_Init+0xc0>
 800593e:	2001      	movs	r0, #1
 8005940:	4770      	bx	lr
 8005942:	2001      	movs	r0, #1
 8005944:	e06c      	b.n	8005a20 <HAL_SPI_Init+0x150>
 8005946:	2001      	movs	r0, #1
 8005948:	e06a      	b.n	8005a20 <HAL_SPI_Init+0x150>
 800594a:	6be3      	ldr	r3, [r4, #60]	; 0x3c
 800594c:	0959      	lsrs	r1, r3, #5
 800594e:	68e3      	ldr	r3, [r4, #12]
 8005950:	3308      	adds	r3, #8
 8005952:	08db      	lsrs	r3, r3, #3
 8005954:	fb01 3303 	mla	r3, r1, r3, r3
 8005958:	4832      	ldr	r0, [pc, #200]	; (8005a24 <HAL_SPI_Init+0x154>)
 800595a:	4933      	ldr	r1, [pc, #204]	; (8005a28 <HAL_SPI_Init+0x158>)
 800595c:	428a      	cmp	r2, r1
 800595e:	bf18      	it	ne
 8005960:	4282      	cmpne	r2, r0
 8005962:	d003      	beq.n	800596c <HAL_SPI_Init+0x9c>
 8005964:	f501 6180 	add.w	r1, r1, #1024	; 0x400
 8005968:	428a      	cmp	r2, r1
 800596a:	d101      	bne.n	8005970 <HAL_SPI_Init+0xa0>
 800596c:	2b10      	cmp	r3, #16
 800596e:	d8ea      	bhi.n	8005946 <HAL_SPI_Init+0x76>
 8005970:	f894 3081 	ldrb.w	r3, [r4, #129]	; 0x81
 8005974:	2b00      	cmp	r3, #0
 8005976:	d0c9      	beq.n	800590c <HAL_SPI_Init+0x3c>
 8005978:	2302      	movs	r3, #2
 800597a:	f884 3081 	strb.w	r3, [r4, #129]	; 0x81
 800597e:	6822      	ldr	r2, [r4, #0]
 8005980:	6813      	ldr	r3, [r2, #0]
 8005982:	f023 0301 	bic.w	r3, r3, #1
 8005986:	6013      	str	r3, [r2, #0]
 8005988:	69a3      	ldr	r3, [r4, #24]
 800598a:	f1b3 6f80 	cmp.w	r3, #67108864	; 0x4000000
 800598e:	d0c3      	beq.n	8005918 <HAL_SPI_Init+0x48>
 8005990:	6822      	ldr	r2, [r4, #0]
 8005992:	69e3      	ldr	r3, [r4, #28]
 8005994:	6aa1      	ldr	r1, [r4, #40]	; 0x28
 8005996:	430b      	orrs	r3, r1
 8005998:	6be1      	ldr	r1, [r4, #60]	; 0x3c
 800599a:	430b      	orrs	r3, r1
 800599c:	68e1      	ldr	r1, [r4, #12]
 800599e:	430b      	orrs	r3, r1
 80059a0:	6093      	str	r3, [r2, #8]
 80059a2:	6822      	ldr	r2, [r4, #0]
 80059a4:	6b63      	ldr	r3, [r4, #52]	; 0x34
 80059a6:	6a61      	ldr	r1, [r4, #36]	; 0x24
 80059a8:	430b      	orrs	r3, r1
 80059aa:	6ba1      	ldr	r1, [r4, #56]	; 0x38
 80059ac:	430b      	orrs	r3, r1
 80059ae:	69a1      	ldr	r1, [r4, #24]
 80059b0:	430b      	orrs	r3, r1
 80059b2:	6921      	ldr	r1, [r4, #16]
 80059b4:	430b      	orrs	r3, r1
 80059b6:	6961      	ldr	r1, [r4, #20]
 80059b8:	430b      	orrs	r3, r1
 80059ba:	6a21      	ldr	r1, [r4, #32]
 80059bc:	430b      	orrs	r3, r1
 80059be:	6861      	ldr	r1, [r4, #4]
 80059c0:	430b      	orrs	r3, r1
 80059c2:	6ce1      	ldr	r1, [r4, #76]	; 0x4c
 80059c4:	430b      	orrs	r3, r1
 80059c6:	68a1      	ldr	r1, [r4, #8]
 80059c8:	430b      	orrs	r3, r1
 80059ca:	6ca1      	ldr	r1, [r4, #72]	; 0x48
 80059cc:	430b      	orrs	r3, r1
 80059ce:	6da1      	ldr	r1, [r4, #88]	; 0x58
 80059d0:	430b      	orrs	r3, r1
 80059d2:	60d3      	str	r3, [r2, #12]
 80059d4:	6863      	ldr	r3, [r4, #4]
 80059d6:	b96b      	cbnz	r3, 80059f4 <HAL_SPI_Init+0x124>
 80059d8:	6822      	ldr	r2, [r4, #0]
 80059da:	6893      	ldr	r3, [r2, #8]
 80059dc:	f423 53c0 	bic.w	r3, r3, #6144	; 0x1800
 80059e0:	f443 6300 	orr.w	r3, r3, #2048	; 0x800
 80059e4:	6093      	str	r3, [r2, #8]
 80059e6:	6822      	ldr	r2, [r4, #0]
 80059e8:	6893      	ldr	r3, [r2, #8]
 80059ea:	f423 63c0 	bic.w	r3, r3, #1536	; 0x600
 80059ee:	f443 6380 	orr.w	r3, r3, #1024	; 0x400
 80059f2:	6093      	str	r3, [r2, #8]
 80059f4:	6822      	ldr	r2, [r4, #0]
 80059f6:	6d13      	ldr	r3, [r2, #80]	; 0x50
 80059f8:	f023 0301 	bic.w	r3, r3, #1
 80059fc:	6513      	str	r3, [r2, #80]	; 0x50
 80059fe:	6863      	ldr	r3, [r4, #4]
 8005a00:	f413 0f80 	tst.w	r3, #4194304	; 0x400000
 8005a04:	d006      	beq.n	8005a14 <HAL_SPI_Init+0x144>
 8005a06:	6822      	ldr	r2, [r4, #0]
 8005a08:	68d3      	ldr	r3, [r2, #12]
 8005a0a:	f023 4300 	bic.w	r3, r3, #2147483648	; 0x80000000
 8005a0e:	6d61      	ldr	r1, [r4, #84]	; 0x54
 8005a10:	430b      	orrs	r3, r1
 8005a12:	60d3      	str	r3, [r2, #12]
 8005a14:	2000      	movs	r0, #0
 8005a16:	f8c4 0084 	str.w	r0, [r4, #132]	; 0x84
 8005a1a:	2301      	movs	r3, #1
 8005a1c:	f884 3081 	strb.w	r3, [r4, #129]	; 0x81
 8005a20:	bd10      	pop	{r4, pc}
 8005a22:	bf00      	nop
 8005a24:	40013000 	.word	0x40013000
 8005a28:	40003800 	.word	0x40003800

08005a2c <HAL_SPI_TxCpltCallback>:
 8005a2c:	4770      	bx	lr

08005a2e <HAL_SPI_RxCpltCallback>:
 8005a2e:	4770      	bx	lr

08005a30 <HAL_SPI_TxRxCpltCallback>:
 8005a30:	4770      	bx	lr
	...

08005a34 <HAL_SPI_IRQHandler>:
 8005a34:	e92d 47f0 	stmdb	sp!, {r4, r5, r6, r7, r8, r9, sl, lr}
 8005a38:	4604      	mov	r4, r0
 8005a3a:	6806      	ldr	r6, [r0, #0]
 8005a3c:	f8d6 9010 	ldr.w	r9, [r6, #16]
 8005a40:	f8d6 8014 	ldr.w	r8, [r6, #20]
 8005a44:	ea09 0508 	and.w	r5, r9, r8
 8005a48:	f8d6 a008 	ldr.w	sl, [r6, #8]
 8005a4c:	f890 7081 	ldrb.w	r7, [r0, #129]	; 0x81
 8005a50:	b2ff      	uxtb	r7, r7
 8005a52:	f005 0364 	and.w	r3, r5, #100	; 0x64
 8005a56:	2b04      	cmp	r3, #4
 8005a58:	d036      	beq.n	8005ac8 <HAL_SPI_IRQHandler+0x94>
 8005a5a:	2200      	movs	r2, #0
 8005a5c:	f005 0345 	and.w	r3, r5, #69	; 0x45
 8005a60:	2b01      	cmp	r3, #1
 8005a62:	d038      	beq.n	8005ad6 <HAL_SPI_IRQHandler+0xa2>
 8005a64:	f005 0326 	and.w	r3, r5, #38	; 0x26
 8005a68:	2b02      	cmp	r3, #2
 8005a6a:	d03d      	beq.n	8005ae8 <HAL_SPI_IRQHandler+0xb4>
 8005a6c:	2a00      	cmp	r2, #0
 8005a6e:	d139      	bne.n	8005ae4 <HAL_SPI_IRQHandler+0xb0>
 8005a70:	f015 0f08 	tst.w	r5, #8
 8005a74:	d070      	beq.n	8005b58 <HAL_SPI_IRQHandler+0x124>
 8005a76:	6822      	ldr	r2, [r4, #0]
 8005a78:	6993      	ldr	r3, [r2, #24]
 8005a7a:	f043 0308 	orr.w	r3, r3, #8
 8005a7e:	6193      	str	r3, [r2, #24]
 8005a80:	6822      	ldr	r2, [r4, #0]
 8005a82:	6993      	ldr	r3, [r2, #24]
 8005a84:	f043 0310 	orr.w	r3, r3, #16
 8005a88:	6193      	str	r3, [r2, #24]
 8005a8a:	6822      	ldr	r2, [r4, #0]
 8005a8c:	6993      	ldr	r3, [r2, #24]
 8005a8e:	f443 6300 	orr.w	r3, r3, #2048	; 0x800
 8005a92:	6193      	str	r3, [r2, #24]
 8005a94:	6822      	ldr	r2, [r4, #0]
 8005a96:	6913      	ldr	r3, [r2, #16]
 8005a98:	f023 0308 	bic.w	r3, r3, #8
 8005a9c:	6113      	str	r3, [r2, #16]
 8005a9e:	f41a 4f40 	tst.w	sl, #49152	; 0xc000
 8005aa2:	f000 80e5 	beq.w	8005c70 <HAL_SPI_IRQHandler+0x23c>
 8005aa6:	2f04      	cmp	r7, #4
 8005aa8:	f000 80dd 	beq.w	8005c66 <HAL_SPI_IRQHandler+0x232>
 8005aac:	6fa3      	ldr	r3, [r4, #120]	; 0x78
 8005aae:	69db      	ldr	r3, [r3, #28]
 8005ab0:	2b00      	cmp	r3, #0
 8005ab2:	f000 80dd 	beq.w	8005c70 <HAL_SPI_IRQHandler+0x23c>
 8005ab6:	2f03      	cmp	r7, #3
 8005ab8:	f000 80f9 	beq.w	8005cae <HAL_SPI_IRQHandler+0x27a>
 8005abc:	6fe3      	ldr	r3, [r4, #124]	; 0x7c
 8005abe:	69db      	ldr	r3, [r3, #28]
 8005ac0:	2b00      	cmp	r3, #0
 8005ac2:	f000 80d5 	beq.w	8005c70 <HAL_SPI_IRQHandler+0x23c>
 8005ac6:	e0e9      	b.n	8005c9c <HAL_SPI_IRQHandler+0x268>
 8005ac8:	6f43      	ldr	r3, [r0, #116]	; 0x74
 8005aca:	4798      	blx	r3
 8005acc:	6f23      	ldr	r3, [r4, #112]	; 0x70
 8005ace:	4620      	mov	r0, r4
 8005ad0:	4798      	blx	r3
 8005ad2:	2201      	movs	r2, #1
 8005ad4:	e7c2      	b.n	8005a5c <HAL_SPI_IRQHandler+0x28>
 8005ad6:	6f23      	ldr	r3, [r4, #112]	; 0x70
 8005ad8:	4620      	mov	r0, r4
 8005ada:	4798      	blx	r3
 8005adc:	f005 0526 	and.w	r5, r5, #38	; 0x26
 8005ae0:	2d02      	cmp	r5, #2
 8005ae2:	d001      	beq.n	8005ae8 <HAL_SPI_IRQHandler+0xb4>
 8005ae4:	e8bd 87f0 	ldmia.w	sp!, {r4, r5, r6, r7, r8, r9, sl, pc}
 8005ae8:	6f63      	ldr	r3, [r4, #116]	; 0x74
 8005aea:	4620      	mov	r0, r4
 8005aec:	4798      	blx	r3
 8005aee:	e7f9      	b.n	8005ae4 <HAL_SPI_IRQHandler+0xb0>
 8005af0:	2b07      	cmp	r3, #7
 8005af2:	d91c      	bls.n	8005b2e <HAL_SPI_IRQHandler+0xfa>
 8005af4:	6e63      	ldr	r3, [r4, #100]	; 0x64
 8005af6:	8e32      	ldrh	r2, [r6, #48]	; 0x30
 8005af8:	801a      	strh	r2, [r3, #0]
 8005afa:	6e63      	ldr	r3, [r4, #100]	; 0x64
 8005afc:	3302      	adds	r3, #2
 8005afe:	6663      	str	r3, [r4, #100]	; 0x64
 8005b00:	f8b4 306a 	ldrh.w	r3, [r4, #106]	; 0x6a
 8005b04:	3b01      	subs	r3, #1
 8005b06:	b29b      	uxth	r3, r3
 8005b08:	f8a4 306a 	strh.w	r3, [r4, #106]	; 0x6a
 8005b0c:	f8b4 306a 	ldrh.w	r3, [r4, #106]	; 0x6a
 8005b10:	b29b      	uxth	r3, r3
 8005b12:	2b00      	cmp	r3, #0
 8005b14:	f000 80b7 	beq.w	8005c86 <HAL_SPI_IRQHandler+0x252>
 8005b18:	68e3      	ldr	r3, [r4, #12]
 8005b1a:	2b0f      	cmp	r3, #15
 8005b1c:	d9e8      	bls.n	8005af0 <HAL_SPI_IRQHandler+0xbc>
 8005b1e:	6822      	ldr	r2, [r4, #0]
 8005b20:	6e63      	ldr	r3, [r4, #100]	; 0x64
 8005b22:	6b12      	ldr	r2, [r2, #48]	; 0x30
 8005b24:	601a      	str	r2, [r3, #0]
 8005b26:	6e63      	ldr	r3, [r4, #100]	; 0x64
 8005b28:	3304      	adds	r3, #4
 8005b2a:	6663      	str	r3, [r4, #100]	; 0x64
 8005b2c:	e7e8      	b.n	8005b00 <HAL_SPI_IRQHandler+0xcc>
 8005b2e:	6822      	ldr	r2, [r4, #0]
 8005b30:	6e63      	ldr	r3, [r4, #100]	; 0x64
 8005b32:	f892 2030 	ldrb.w	r2, [r2, #48]	; 0x30
 8005b36:	701a      	strb	r2, [r3, #0]
 8005b38:	6e63      	ldr	r3, [r4, #100]	; 0x64
 8005b3a:	3301      	adds	r3, #1
 8005b3c:	6663      	str	r3, [r4, #100]	; 0x64
 8005b3e:	e7df      	b.n	8005b00 <HAL_SPI_IRQHandler+0xcc>
 8005b40:	4620      	mov	r0, r4
 8005b42:	f7fb fa63 	bl	800100c <HAL_SPI_ErrorCallback>
 8005b46:	e7cd      	b.n	8005ae4 <HAL_SPI_IRQHandler+0xb0>
 8005b48:	4620      	mov	r0, r4
 8005b4a:	f7ff ff71 	bl	8005a30 <HAL_SPI_TxRxCpltCallback>
 8005b4e:	e7c9      	b.n	8005ae4 <HAL_SPI_IRQHandler+0xb0>
 8005b50:	4620      	mov	r0, r4
 8005b52:	f7ff ff6c 	bl	8005a2e <HAL_SPI_RxCpltCallback>
 8005b56:	e7c5      	b.n	8005ae4 <HAL_SPI_IRQHandler+0xb0>
 8005b58:	f418 6f00 	tst.w	r8, #2048	; 0x800
 8005b5c:	d002      	beq.n	8005b64 <HAL_SPI_IRQHandler+0x130>
 8005b5e:	f019 0f08 	tst.w	r9, #8
 8005b62:	d173      	bne.n	8005c4c <HAL_SPI_IRQHandler+0x218>
 8005b64:	f415 7f58 	tst.w	r5, #864	; 0x360
 8005b68:	d0bc      	beq.n	8005ae4 <HAL_SPI_IRQHandler+0xb0>
 8005b6a:	f015 0f40 	tst.w	r5, #64	; 0x40
 8005b6e:	d00a      	beq.n	8005b86 <HAL_SPI_IRQHandler+0x152>
 8005b70:	f8d4 3084 	ldr.w	r3, [r4, #132]	; 0x84
 8005b74:	f043 0304 	orr.w	r3, r3, #4
 8005b78:	f8c4 3084 	str.w	r3, [r4, #132]	; 0x84
 8005b7c:	6822      	ldr	r2, [r4, #0]
 8005b7e:	6993      	ldr	r3, [r2, #24]
 8005b80:	f043 0340 	orr.w	r3, r3, #64	; 0x40
 8005b84:	6193      	str	r3, [r2, #24]
 8005b86:	f415 7f00 	tst.w	r5, #512	; 0x200
 8005b8a:	d00a      	beq.n	8005ba2 <HAL_SPI_IRQHandler+0x16e>
 8005b8c:	f8d4 3084 	ldr.w	r3, [r4, #132]	; 0x84
 8005b90:	f043 0301 	orr.w	r3, r3, #1
 8005b94:	f8c4 3084 	str.w	r3, [r4, #132]	; 0x84
 8005b98:	6822      	ldr	r2, [r4, #0]
 8005b9a:	6993      	ldr	r3, [r2, #24]
 8005b9c:	f443 7300 	orr.w	r3, r3, #512	; 0x200
 8005ba0:	6193      	str	r3, [r2, #24]
 8005ba2:	f415 7f80 	tst.w	r5, #256	; 0x100
 8005ba6:	d00a      	beq.n	8005bbe <HAL_SPI_IRQHandler+0x18a>
 8005ba8:	f8d4 3084 	ldr.w	r3, [r4, #132]	; 0x84
 8005bac:	f043 0308 	orr.w	r3, r3, #8
 8005bb0:	f8c4 3084 	str.w	r3, [r4, #132]	; 0x84
 8005bb4:	6822      	ldr	r2, [r4, #0]
 8005bb6:	6993      	ldr	r3, [r2, #24]
 8005bb8:	f443 7380 	orr.w	r3, r3, #256	; 0x100
 8005bbc:	6193      	str	r3, [r2, #24]
 8005bbe:	f015 0f20 	tst.w	r5, #32
 8005bc2:	d00a      	beq.n	8005bda <HAL_SPI_IRQHandler+0x1a6>
 8005bc4:	f8d4 3084 	ldr.w	r3, [r4, #132]	; 0x84
 8005bc8:	f043 0380 	orr.w	r3, r3, #128	; 0x80
 8005bcc:	f8c4 3084 	str.w	r3, [r4, #132]	; 0x84
 8005bd0:	6822      	ldr	r2, [r4, #0]
 8005bd2:	6993      	ldr	r3, [r2, #24]
 8005bd4:	f043 0320 	orr.w	r3, r3, #32
 8005bd8:	6193      	str	r3, [r2, #24]
 8005bda:	f8d4 3084 	ldr.w	r3, [r4, #132]	; 0x84
 8005bde:	2b00      	cmp	r3, #0
 8005be0:	d080      	beq.n	8005ae4 <HAL_SPI_IRQHandler+0xb0>
 8005be2:	6822      	ldr	r2, [r4, #0]
 8005be4:	6813      	ldr	r3, [r2, #0]
 8005be6:	f023 0301 	bic.w	r3, r3, #1
 8005bea:	6013      	str	r3, [r2, #0]
 8005bec:	6822      	ldr	r2, [r4, #0]
 8005bee:	6911      	ldr	r1, [r2, #16]
 8005bf0:	4b31      	ldr	r3, [pc, #196]	; (8005cb8 <HAL_SPI_IRQHandler+0x284>)
 8005bf2:	400b      	ands	r3, r1
 8005bf4:	6113      	str	r3, [r2, #16]
 8005bf6:	f40a 4a40 	and.w	sl, sl, #49152	; 0xc000
 8005bfa:	f5ba 4f40 	cmp.w	sl, #49152	; 0xc000
 8005bfe:	d12b      	bne.n	8005c58 <HAL_SPI_IRQHandler+0x224>
 8005c00:	6822      	ldr	r2, [r4, #0]
 8005c02:	6893      	ldr	r3, [r2, #8]
 8005c04:	f423 4340 	bic.w	r3, r3, #49152	; 0xc000
 8005c08:	6093      	str	r3, [r2, #8]
 8005c0a:	6fe3      	ldr	r3, [r4, #124]	; 0x7c
 8005c0c:	b15b      	cbz	r3, 8005c26 <HAL_SPI_IRQHandler+0x1f2>
 8005c0e:	4a2b      	ldr	r2, [pc, #172]	; (8005cbc <HAL_SPI_IRQHandler+0x288>)
 8005c10:	651a      	str	r2, [r3, #80]	; 0x50
 8005c12:	6fe0      	ldr	r0, [r4, #124]	; 0x7c
 8005c14:	f7fd f8be 	bl	8002d94 <HAL_DMA_Abort_IT>
 8005c18:	b128      	cbz	r0, 8005c26 <HAL_SPI_IRQHandler+0x1f2>
 8005c1a:	f8d4 3084 	ldr.w	r3, [r4, #132]	; 0x84
 8005c1e:	f043 0340 	orr.w	r3, r3, #64	; 0x40
 8005c22:	f8c4 3084 	str.w	r3, [r4, #132]	; 0x84
 8005c26:	6fa3      	ldr	r3, [r4, #120]	; 0x78
 8005c28:	2b00      	cmp	r3, #0
 8005c2a:	f43f af5b 	beq.w	8005ae4 <HAL_SPI_IRQHandler+0xb0>
 8005c2e:	4a23      	ldr	r2, [pc, #140]	; (8005cbc <HAL_SPI_IRQHandler+0x288>)
 8005c30:	651a      	str	r2, [r3, #80]	; 0x50
 8005c32:	6fa0      	ldr	r0, [r4, #120]	; 0x78
 8005c34:	f7fd f8ae 	bl	8002d94 <HAL_DMA_Abort_IT>
 8005c38:	2800      	cmp	r0, #0
 8005c3a:	f43f af53 	beq.w	8005ae4 <HAL_SPI_IRQHandler+0xb0>
 8005c3e:	f8d4 3084 	ldr.w	r3, [r4, #132]	; 0x84
 8005c42:	f043 0340 	orr.w	r3, r3, #64	; 0x40
 8005c46:	f8c4 3084 	str.w	r3, [r4, #132]	; 0x84
 8005c4a:	e74b      	b.n	8005ae4 <HAL_SPI_IRQHandler+0xb0>
 8005c4c:	6822      	ldr	r2, [r4, #0]
 8005c4e:	6993      	ldr	r3, [r2, #24]
 8005c50:	f443 6300 	orr.w	r3, r3, #2048	; 0x800
 8005c54:	6193      	str	r3, [r2, #24]
 8005c56:	e745      	b.n	8005ae4 <HAL_SPI_IRQHandler+0xb0>
 8005c58:	2301      	movs	r3, #1
 8005c5a:	f884 3081 	strb.w	r3, [r4, #129]	; 0x81
 8005c5e:	4620      	mov	r0, r4
 8005c60:	f7fb f9d4 	bl	800100c <HAL_SPI_ErrorCallback>
 8005c64:	e73e      	b.n	8005ae4 <HAL_SPI_IRQHandler+0xb0>
 8005c66:	6fe3      	ldr	r3, [r4, #124]	; 0x7c
 8005c68:	69db      	ldr	r3, [r3, #28]
 8005c6a:	2b00      	cmp	r3, #0
 8005c6c:	f47f af70 	bne.w	8005b50 <HAL_SPI_IRQHandler+0x11c>
 8005c70:	6823      	ldr	r3, [r4, #0]
 8005c72:	689b      	ldr	r3, [r3, #8]
 8005c74:	f413 4f40 	tst.w	r3, #49152	; 0xc000
 8005c78:	d105      	bne.n	8005c86 <HAL_SPI_IRQHandler+0x252>
 8005c7a:	f8b4 306a 	ldrh.w	r3, [r4, #106]	; 0x6a
 8005c7e:	b29b      	uxth	r3, r3
 8005c80:	2b00      	cmp	r3, #0
 8005c82:	f47f af49 	bne.w	8005b18 <HAL_SPI_IRQHandler+0xe4>
 8005c86:	4620      	mov	r0, r4
 8005c88:	f7ff fdba 	bl	8005800 <SPI_CloseTransfer>
 8005c8c:	2301      	movs	r3, #1
 8005c8e:	f884 3081 	strb.w	r3, [r4, #129]	; 0x81
 8005c92:	f8d4 3084 	ldr.w	r3, [r4, #132]	; 0x84
 8005c96:	2b00      	cmp	r3, #0
 8005c98:	f47f af52 	bne.w	8005b40 <HAL_SPI_IRQHandler+0x10c>
 8005c9c:	2f05      	cmp	r7, #5
 8005c9e:	f43f af53 	beq.w	8005b48 <HAL_SPI_IRQHandler+0x114>
 8005ca2:	2f04      	cmp	r7, #4
 8005ca4:	f43f af54 	beq.w	8005b50 <HAL_SPI_IRQHandler+0x11c>
 8005ca8:	2f03      	cmp	r7, #3
 8005caa:	f47f af1b 	bne.w	8005ae4 <HAL_SPI_IRQHandler+0xb0>
 8005cae:	4620      	mov	r0, r4
 8005cb0:	f7ff febc 	bl	8005a2c <HAL_SPI_TxCpltCallback>
 8005cb4:	e716      	b.n	8005ae4 <HAL_SPI_IRQHandler+0xb0>
 8005cb6:	bf00      	nop
 8005cb8:	fffffc94 	.word	0xfffffc94
 8005cbc:	08005cc1 	.word	0x08005cc1

08005cc0 <SPI_DMAAbortOnError>:
 8005cc0:	b508      	push	{r3, lr}
 8005cc2:	6b80      	ldr	r0, [r0, #56]	; 0x38
 8005cc4:	2300      	movs	r3, #0
 8005cc6:	f8a0 306a 	strh.w	r3, [r0, #106]	; 0x6a
 8005cca:	f8a0 3062 	strh.w	r3, [r0, #98]	; 0x62
 8005cce:	2301      	movs	r3, #1
 8005cd0:	f880 3081 	strb.w	r3, [r0, #129]	; 0x81
 8005cd4:	f7fb f99a 	bl	800100c <HAL_SPI_ErrorCallback>
 8005cd8:	bd08      	pop	{r3, pc}
	...

08005cdc <UART_EndRxTransfer>:
 8005cdc:	6802      	ldr	r2, [r0, #0]
 8005cde:	6813      	ldr	r3, [r2, #0]
 8005ce0:	f423 7390 	bic.w	r3, r3, #288	; 0x120
 8005ce4:	6013      	str	r3, [r2, #0]
 8005ce6:	6802      	ldr	r2, [r0, #0]
 8005ce8:	6891      	ldr	r1, [r2, #8]
 8005cea:	4b09      	ldr	r3, [pc, #36]	; (8005d10 <UART_EndRxTransfer+0x34>)
 8005cec:	400b      	ands	r3, r1
 8005cee:	6093      	str	r3, [r2, #8]
 8005cf0:	6ec3      	ldr	r3, [r0, #108]	; 0x6c
 8005cf2:	2b01      	cmp	r3, #1
 8005cf4:	d006      	beq.n	8005d04 <UART_EndRxTransfer+0x28>
 8005cf6:	2320      	movs	r3, #32
 8005cf8:	f8c0 3088 	str.w	r3, [r0, #136]	; 0x88
 8005cfc:	2300      	movs	r3, #0
 8005cfe:	66c3      	str	r3, [r0, #108]	; 0x6c
 8005d00:	6703      	str	r3, [r0, #112]	; 0x70
 8005d02:	4770      	bx	lr
 8005d04:	6802      	ldr	r2, [r0, #0]
 8005d06:	6813      	ldr	r3, [r2, #0]
 8005d08:	f023 0310 	bic.w	r3, r3, #16
 8005d0c:	6013      	str	r3, [r2, #0]
 8005d0e:	e7f2      	b.n	8005cf6 <UART_EndRxTransfer+0x1a>
 8005d10:	effffffe 	.word	0xeffffffe

08005d14 <HAL_UART_Transmit_DMA>:
 8005d14:	4613      	mov	r3, r2
 8005d16:	f8d0 2084 	ldr.w	r2, [r0, #132]	; 0x84
 8005d1a:	2a20      	cmp	r2, #32
 8005d1c:	d142      	bne.n	8005da4 <HAL_UART_Transmit_DMA+0x90>
 8005d1e:	b510      	push	{r4, lr}
 8005d20:	4604      	mov	r4, r0
 8005d22:	2900      	cmp	r1, #0
 8005d24:	d040      	beq.n	8005da8 <HAL_UART_Transmit_DMA+0x94>
 8005d26:	2b00      	cmp	r3, #0
 8005d28:	d03e      	beq.n	8005da8 <HAL_UART_Transmit_DMA+0x94>
 8005d2a:	f890 2080 	ldrb.w	r2, [r0, #128]	; 0x80
 8005d2e:	2a01      	cmp	r2, #1
 8005d30:	d03c      	beq.n	8005dac <HAL_UART_Transmit_DMA+0x98>
 8005d32:	2201      	movs	r2, #1
 8005d34:	f880 2080 	strb.w	r2, [r0, #128]	; 0x80
 8005d38:	6501      	str	r1, [r0, #80]	; 0x50
 8005d3a:	f8a0 3054 	strh.w	r3, [r0, #84]	; 0x54
 8005d3e:	f8a0 3056 	strh.w	r3, [r0, #86]	; 0x56
 8005d42:	2200      	movs	r2, #0
 8005d44:	f8c0 208c 	str.w	r2, [r0, #140]	; 0x8c
 8005d48:	2221      	movs	r2, #33	; 0x21
 8005d4a:	f8c0 2084 	str.w	r2, [r0, #132]	; 0x84
 8005d4e:	6f82      	ldr	r2, [r0, #120]	; 0x78
 8005d50:	b1e2      	cbz	r2, 8005d8c <HAL_UART_Transmit_DMA+0x78>
 8005d52:	4917      	ldr	r1, [pc, #92]	; (8005db0 <HAL_UART_Transmit_DMA+0x9c>)
 8005d54:	63d1      	str	r1, [r2, #60]	; 0x3c
 8005d56:	6f82      	ldr	r2, [r0, #120]	; 0x78
 8005d58:	4916      	ldr	r1, [pc, #88]	; (8005db4 <HAL_UART_Transmit_DMA+0xa0>)
 8005d5a:	6411      	str	r1, [r2, #64]	; 0x40
 8005d5c:	6f82      	ldr	r2, [r0, #120]	; 0x78
 8005d5e:	4916      	ldr	r1, [pc, #88]	; (8005db8 <HAL_UART_Transmit_DMA+0xa4>)
 8005d60:	64d1      	str	r1, [r2, #76]	; 0x4c
 8005d62:	6f82      	ldr	r2, [r0, #120]	; 0x78
 8005d64:	2100      	movs	r1, #0
 8005d66:	6511      	str	r1, [r2, #80]	; 0x50
 8005d68:	6802      	ldr	r2, [r0, #0]
 8005d6a:	3228      	adds	r2, #40	; 0x28
 8005d6c:	6d01      	ldr	r1, [r0, #80]	; 0x50
 8005d6e:	6f80      	ldr	r0, [r0, #120]	; 0x78
 8005d70:	f7fc fbd6 	bl	8002520 <HAL_DMA_Start_IT>
 8005d74:	b150      	cbz	r0, 8005d8c <HAL_UART_Transmit_DMA+0x78>
 8005d76:	2310      	movs	r3, #16
 8005d78:	f8c4 308c 	str.w	r3, [r4, #140]	; 0x8c
 8005d7c:	2300      	movs	r3, #0
 8005d7e:	f884 3080 	strb.w	r3, [r4, #128]	; 0x80
 8005d82:	2320      	movs	r3, #32
 8005d84:	f8c4 3084 	str.w	r3, [r4, #132]	; 0x84
 8005d88:	2001      	movs	r0, #1
 8005d8a:	e00a      	b.n	8005da2 <HAL_UART_Transmit_DMA+0x8e>
 8005d8c:	6823      	ldr	r3, [r4, #0]
 8005d8e:	2240      	movs	r2, #64	; 0x40
 8005d90:	621a      	str	r2, [r3, #32]
 8005d92:	2000      	movs	r0, #0
 8005d94:	f884 0080 	strb.w	r0, [r4, #128]	; 0x80
 8005d98:	6822      	ldr	r2, [r4, #0]
 8005d9a:	6893      	ldr	r3, [r2, #8]
 8005d9c:	f043 0380 	orr.w	r3, r3, #128	; 0x80
 8005da0:	6093      	str	r3, [r2, #8]
 8005da2:	bd10      	pop	{r4, pc}
 8005da4:	2002      	movs	r0, #2
 8005da6:	4770      	bx	lr
 8005da8:	2001      	movs	r0, #1
 8005daa:	e7fa      	b.n	8005da2 <HAL_UART_Transmit_DMA+0x8e>
 8005dac:	2002      	movs	r0, #2
 8005dae:	e7f8      	b.n	8005da2 <HAL_UART_Transmit_DMA+0x8e>
 8005db0:	08005dbf 	.word	0x08005dbf
 8005db4:	08005df1 	.word	0x08005df1
 8005db8:	08005dfb 	.word	0x08005dfb

08005dbc <HAL_UART_TxCpltCallback>:
 8005dbc:	4770      	bx	lr

08005dbe <UART_DMATransmitCplt>:
 8005dbe:	b508      	push	{r3, lr}
 8005dc0:	6b83      	ldr	r3, [r0, #56]	; 0x38
 8005dc2:	69c2      	ldr	r2, [r0, #28]
 8005dc4:	f5b2 7f80 	cmp.w	r2, #256	; 0x100
 8005dc8:	d00d      	beq.n	8005de6 <UART_DMATransmitCplt+0x28>
 8005dca:	2200      	movs	r2, #0
 8005dcc:	f8a3 2056 	strh.w	r2, [r3, #86]	; 0x56
 8005dd0:	6819      	ldr	r1, [r3, #0]
 8005dd2:	688a      	ldr	r2, [r1, #8]
 8005dd4:	f022 0280 	bic.w	r2, r2, #128	; 0x80
 8005dd8:	608a      	str	r2, [r1, #8]
 8005dda:	681a      	ldr	r2, [r3, #0]
 8005ddc:	6813      	ldr	r3, [r2, #0]
 8005dde:	f043 0340 	orr.w	r3, r3, #64	; 0x40
 8005de2:	6013      	str	r3, [r2, #0]
 8005de4:	bd08      	pop	{r3, pc}
 8005de6:	4618      	mov	r0, r3
 8005de8:	f7ff ffe8 	bl	8005dbc <HAL_UART_TxCpltCallback>
 8005dec:	e7fa      	b.n	8005de4 <UART_DMATransmitCplt+0x26>

08005dee <HAL_UART_TxHalfCpltCallback>:
 8005dee:	4770      	bx	lr

08005df0 <UART_DMATxHalfCplt>:
 8005df0:	b508      	push	{r3, lr}
 8005df2:	6b80      	ldr	r0, [r0, #56]	; 0x38
 8005df4:	f7ff fffb 	bl	8005dee <HAL_UART_TxHalfCpltCallback>
 8005df8:	bd08      	pop	{r3, pc}

08005dfa <UART_DMAError>:
 8005dfa:	b510      	push	{r4, lr}
 8005dfc:	6b84      	ldr	r4, [r0, #56]	; 0x38
 8005dfe:	f8d4 0084 	ldr.w	r0, [r4, #132]	; 0x84
 8005e02:	f8d4 1088 	ldr.w	r1, [r4, #136]	; 0x88
 8005e06:	6823      	ldr	r3, [r4, #0]
 8005e08:	689a      	ldr	r2, [r3, #8]
 8005e0a:	f012 0f80 	tst.w	r2, #128	; 0x80
 8005e0e:	d001      	beq.n	8005e14 <UART_DMAError+0x1a>
 8005e10:	2821      	cmp	r0, #33	; 0x21
 8005e12:	d010      	beq.n	8005e36 <UART_DMAError+0x3c>
 8005e14:	6823      	ldr	r3, [r4, #0]
 8005e16:	689b      	ldr	r3, [r3, #8]
 8005e18:	f013 0f40 	tst.w	r3, #64	; 0x40
 8005e1c:	d001      	beq.n	8005e22 <UART_DMAError+0x28>
 8005e1e:	2922      	cmp	r1, #34	; 0x22
 8005e20:	d019      	beq.n	8005e56 <UART_DMAError+0x5c>
 8005e22:	f8d4 308c 	ldr.w	r3, [r4, #140]	; 0x8c
 8005e26:	f043 0310 	orr.w	r3, r3, #16
 8005e2a:	f8c4 308c 	str.w	r3, [r4, #140]	; 0x8c
 8005e2e:	4620      	mov	r0, r4
 8005e30:	f7fb f8f4 	bl	800101c <HAL_UART_ErrorCallback>
 8005e34:	bd10      	pop	{r4, pc}
 8005e36:	2200      	movs	r2, #0
 8005e38:	f8a4 2056 	strh.w	r2, [r4, #86]	; 0x56
 8005e3c:	681a      	ldr	r2, [r3, #0]
 8005e3e:	f022 02c0 	bic.w	r2, r2, #192	; 0xc0
 8005e42:	601a      	str	r2, [r3, #0]
 8005e44:	6822      	ldr	r2, [r4, #0]
 8005e46:	6893      	ldr	r3, [r2, #8]
 8005e48:	f423 0300 	bic.w	r3, r3, #8388608	; 0x800000
 8005e4c:	6093      	str	r3, [r2, #8]
 8005e4e:	2320      	movs	r3, #32
 8005e50:	f8c4 3084 	str.w	r3, [r4, #132]	; 0x84
 8005e54:	e7de      	b.n	8005e14 <UART_DMAError+0x1a>
 8005e56:	2300      	movs	r3, #0
 8005e58:	f8a4 305e 	strh.w	r3, [r4, #94]	; 0x5e
 8005e5c:	4620      	mov	r0, r4
 8005e5e:	f7ff ff3d 	bl	8005cdc <UART_EndRxTransfer>
 8005e62:	e7de      	b.n	8005e22 <UART_DMAError+0x28>

08005e64 <UART_DMAAbortOnError>:
 8005e64:	b508      	push	{r3, lr}
 8005e66:	6b80      	ldr	r0, [r0, #56]	; 0x38
 8005e68:	2300      	movs	r3, #0
 8005e6a:	f8a0 305e 	strh.w	r3, [r0, #94]	; 0x5e
 8005e6e:	f8a0 3056 	strh.w	r3, [r0, #86]	; 0x56
 8005e72:	f7fb f8d3 	bl	800101c <HAL_UART_ErrorCallback>
 8005e76:	bd08      	pop	{r3, pc}

08005e78 <HAL_UARTEx_RxEventCallback>:
 8005e78:	4770      	bx	lr
	...

08005e7c <HAL_UART_IRQHandler>:
 8005e7c:	b570      	push	{r4, r5, r6, lr}
 8005e7e:	4604      	mov	r4, r0
 8005e80:	6802      	ldr	r2, [r0, #0]
 8005e82:	69d3      	ldr	r3, [r2, #28]
 8005e84:	6810      	ldr	r0, [r2, #0]
 8005e86:	6891      	ldr	r1, [r2, #8]
 8005e88:	f640 050f 	movw	r5, #2063	; 0x80f
 8005e8c:	422b      	tst	r3, r5
 8005e8e:	d10d      	bne.n	8005eac <HAL_UART_IRQHandler+0x30>
 8005e90:	f013 0f20 	tst.w	r3, #32
 8005e94:	d010      	beq.n	8005eb8 <HAL_UART_IRQHandler+0x3c>
 8005e96:	f000 0520 	and.w	r5, r0, #32
 8005e9a:	f001 5680 	and.w	r6, r1, #268435456	; 0x10000000
 8005e9e:	4335      	orrs	r5, r6
 8005ea0:	d00a      	beq.n	8005eb8 <HAL_UART_IRQHandler+0x3c>
 8005ea2:	6f23      	ldr	r3, [r4, #112]	; 0x70
 8005ea4:	b38b      	cbz	r3, 8005f0a <HAL_UART_IRQHandler+0x8e>
 8005ea6:	4620      	mov	r0, r4
 8005ea8:	4798      	blx	r3
 8005eaa:	e02e      	b.n	8005f0a <HAL_UART_IRQHandler+0x8e>
 8005eac:	4dad      	ldr	r5, [pc, #692]	; (8006164 <HAL_UART_IRQHandler+0x2e8>)
 8005eae:	400d      	ands	r5, r1
 8005eb0:	4ead      	ldr	r6, [pc, #692]	; (8006168 <HAL_UART_IRQHandler+0x2ec>)
 8005eb2:	4006      	ands	r6, r0
 8005eb4:	432e      	orrs	r6, r5
 8005eb6:	d129      	bne.n	8005f0c <HAL_UART_IRQHandler+0x90>
 8005eb8:	6ee5      	ldr	r5, [r4, #108]	; 0x6c
 8005eba:	2d01      	cmp	r5, #1
 8005ebc:	f000 80b8 	beq.w	8006030 <HAL_UART_IRQHandler+0x1b4>
 8005ec0:	f413 1f80 	tst.w	r3, #1048576	; 0x100000
 8005ec4:	d003      	beq.n	8005ece <HAL_UART_IRQHandler+0x52>
 8005ec6:	f411 0f80 	tst.w	r1, #4194304	; 0x400000
 8005eca:	f040 817e 	bne.w	80061ca <HAL_UART_IRQHandler+0x34e>
 8005ece:	f013 0f80 	tst.w	r3, #128	; 0x80
 8005ed2:	d006      	beq.n	8005ee2 <HAL_UART_IRQHandler+0x66>
 8005ed4:	f000 0580 	and.w	r5, r0, #128	; 0x80
 8005ed8:	f401 0100 	and.w	r1, r1, #8388608	; 0x800000
 8005edc:	4329      	orrs	r1, r5
 8005ede:	f040 817b 	bne.w	80061d8 <HAL_UART_IRQHandler+0x35c>
 8005ee2:	f013 0f40 	tst.w	r3, #64	; 0x40
 8005ee6:	d003      	beq.n	8005ef0 <HAL_UART_IRQHandler+0x74>
 8005ee8:	f010 0f40 	tst.w	r0, #64	; 0x40
 8005eec:	f040 817b 	bne.w	80061e6 <HAL_UART_IRQHandler+0x36a>
 8005ef0:	f413 0f00 	tst.w	r3, #8388608	; 0x800000
 8005ef4:	d003      	beq.n	8005efe <HAL_UART_IRQHandler+0x82>
 8005ef6:	f010 4f80 	tst.w	r0, #1073741824	; 0x40000000
 8005efa:	f040 8181 	bne.w	8006200 <HAL_UART_IRQHandler+0x384>
 8005efe:	f013 7f80 	tst.w	r3, #16777216	; 0x1000000
 8005f02:	d002      	beq.n	8005f0a <HAL_UART_IRQHandler+0x8e>
 8005f04:	2800      	cmp	r0, #0
 8005f06:	f2c0 817f 	blt.w	8006208 <HAL_UART_IRQHandler+0x38c>
 8005f0a:	bd70      	pop	{r4, r5, r6, pc}
 8005f0c:	f013 0f01 	tst.w	r3, #1
 8005f10:	d009      	beq.n	8005f26 <HAL_UART_IRQHandler+0xaa>
 8005f12:	f410 7f80 	tst.w	r0, #256	; 0x100
 8005f16:	d006      	beq.n	8005f26 <HAL_UART_IRQHandler+0xaa>
 8005f18:	2601      	movs	r6, #1
 8005f1a:	6216      	str	r6, [r2, #32]
 8005f1c:	f8d4 208c 	ldr.w	r2, [r4, #140]	; 0x8c
 8005f20:	4332      	orrs	r2, r6
 8005f22:	f8c4 208c 	str.w	r2, [r4, #140]	; 0x8c
 8005f26:	f013 0f02 	tst.w	r3, #2
 8005f2a:	d06b      	beq.n	8006004 <HAL_UART_IRQHandler+0x188>
 8005f2c:	f011 0f01 	tst.w	r1, #1
 8005f30:	d014      	beq.n	8005f5c <HAL_UART_IRQHandler+0xe0>
 8005f32:	6822      	ldr	r2, [r4, #0]
 8005f34:	2602      	movs	r6, #2
 8005f36:	6216      	str	r6, [r2, #32]
 8005f38:	f8d4 208c 	ldr.w	r2, [r4, #140]	; 0x8c
 8005f3c:	f042 0204 	orr.w	r2, r2, #4
 8005f40:	f8c4 208c 	str.w	r2, [r4, #140]	; 0x8c
 8005f44:	f013 0f04 	tst.w	r3, #4
 8005f48:	d008      	beq.n	8005f5c <HAL_UART_IRQHandler+0xe0>
 8005f4a:	6822      	ldr	r2, [r4, #0]
 8005f4c:	2604      	movs	r6, #4
 8005f4e:	6216      	str	r6, [r2, #32]
 8005f50:	f8d4 208c 	ldr.w	r2, [r4, #140]	; 0x8c
 8005f54:	f042 0202 	orr.w	r2, r2, #2
 8005f58:	f8c4 208c 	str.w	r2, [r4, #140]	; 0x8c
 8005f5c:	f013 0f08 	tst.w	r3, #8
 8005f60:	d00b      	beq.n	8005f7a <HAL_UART_IRQHandler+0xfe>
 8005f62:	f000 0220 	and.w	r2, r0, #32
 8005f66:	432a      	orrs	r2, r5
 8005f68:	d007      	beq.n	8005f7a <HAL_UART_IRQHandler+0xfe>
 8005f6a:	6822      	ldr	r2, [r4, #0]
 8005f6c:	2508      	movs	r5, #8
 8005f6e:	6215      	str	r5, [r2, #32]
 8005f70:	f8d4 208c 	ldr.w	r2, [r4, #140]	; 0x8c
 8005f74:	432a      	orrs	r2, r5
 8005f76:	f8c4 208c 	str.w	r2, [r4, #140]	; 0x8c
 8005f7a:	f413 6f00 	tst.w	r3, #2048	; 0x800
 8005f7e:	d00c      	beq.n	8005f9a <HAL_UART_IRQHandler+0x11e>
 8005f80:	f010 6f80 	tst.w	r0, #67108864	; 0x4000000
 8005f84:	d009      	beq.n	8005f9a <HAL_UART_IRQHandler+0x11e>
 8005f86:	6822      	ldr	r2, [r4, #0]
 8005f88:	f44f 6500 	mov.w	r5, #2048	; 0x800
 8005f8c:	6215      	str	r5, [r2, #32]
 8005f8e:	f8d4 208c 	ldr.w	r2, [r4, #140]	; 0x8c
 8005f92:	f042 0220 	orr.w	r2, r2, #32
 8005f96:	f8c4 208c 	str.w	r2, [r4, #140]	; 0x8c
 8005f9a:	f8d4 208c 	ldr.w	r2, [r4, #140]	; 0x8c
 8005f9e:	2a00      	cmp	r2, #0
 8005fa0:	d0b3      	beq.n	8005f0a <HAL_UART_IRQHandler+0x8e>
 8005fa2:	f013 0f20 	tst.w	r3, #32
 8005fa6:	d00a      	beq.n	8005fbe <HAL_UART_IRQHandler+0x142>
 8005fa8:	f000 0020 	and.w	r0, r0, #32
 8005fac:	f001 5180 	and.w	r1, r1, #268435456	; 0x10000000
 8005fb0:	ea50 0301 	orrs.w	r3, r0, r1
 8005fb4:	d003      	beq.n	8005fbe <HAL_UART_IRQHandler+0x142>
 8005fb6:	6f23      	ldr	r3, [r4, #112]	; 0x70
 8005fb8:	b10b      	cbz	r3, 8005fbe <HAL_UART_IRQHandler+0x142>
 8005fba:	4620      	mov	r0, r4
 8005fbc:	4798      	blx	r3
 8005fbe:	f8d4 308c 	ldr.w	r3, [r4, #140]	; 0x8c
 8005fc2:	6822      	ldr	r2, [r4, #0]
 8005fc4:	6892      	ldr	r2, [r2, #8]
 8005fc6:	f002 0240 	and.w	r2, r2, #64	; 0x40
 8005fca:	f003 0328 	and.w	r3, r3, #40	; 0x28
 8005fce:	4313      	orrs	r3, r2
 8005fd0:	d027      	beq.n	8006022 <HAL_UART_IRQHandler+0x1a6>
 8005fd2:	4620      	mov	r0, r4
 8005fd4:	f7ff fe82 	bl	8005cdc <UART_EndRxTransfer>
 8005fd8:	6823      	ldr	r3, [r4, #0]
 8005fda:	689a      	ldr	r2, [r3, #8]
 8005fdc:	f012 0f40 	tst.w	r2, #64	; 0x40
 8005fe0:	d01b      	beq.n	800601a <HAL_UART_IRQHandler+0x19e>
 8005fe2:	689a      	ldr	r2, [r3, #8]
 8005fe4:	f022 0240 	bic.w	r2, r2, #64	; 0x40
 8005fe8:	609a      	str	r2, [r3, #8]
 8005fea:	6fe3      	ldr	r3, [r4, #124]	; 0x7c
 8005fec:	b18b      	cbz	r3, 8006012 <HAL_UART_IRQHandler+0x196>
 8005fee:	4a5f      	ldr	r2, [pc, #380]	; (800616c <HAL_UART_IRQHandler+0x2f0>)
 8005ff0:	651a      	str	r2, [r3, #80]	; 0x50
 8005ff2:	6fe0      	ldr	r0, [r4, #124]	; 0x7c
 8005ff4:	f7fc fece 	bl	8002d94 <HAL_DMA_Abort_IT>
 8005ff8:	2800      	cmp	r0, #0
 8005ffa:	d086      	beq.n	8005f0a <HAL_UART_IRQHandler+0x8e>
 8005ffc:	6fe0      	ldr	r0, [r4, #124]	; 0x7c
 8005ffe:	6d03      	ldr	r3, [r0, #80]	; 0x50
 8006000:	4798      	blx	r3
 8006002:	e782      	b.n	8005f0a <HAL_UART_IRQHandler+0x8e>
 8006004:	f013 0f04 	tst.w	r3, #4
 8006008:	d0a8      	beq.n	8005f5c <HAL_UART_IRQHandler+0xe0>
 800600a:	f011 0f01 	tst.w	r1, #1
 800600e:	d0a5      	beq.n	8005f5c <HAL_UART_IRQHandler+0xe0>
 8006010:	e79b      	b.n	8005f4a <HAL_UART_IRQHandler+0xce>
 8006012:	4620      	mov	r0, r4
 8006014:	f7fb f802 	bl	800101c <HAL_UART_ErrorCallback>
 8006018:	e777      	b.n	8005f0a <HAL_UART_IRQHandler+0x8e>
 800601a:	4620      	mov	r0, r4
 800601c:	f7fa fffe 	bl	800101c <HAL_UART_ErrorCallback>
 8006020:	e773      	b.n	8005f0a <HAL_UART_IRQHandler+0x8e>
 8006022:	4620      	mov	r0, r4
 8006024:	f7fa fffa 	bl	800101c <HAL_UART_ErrorCallback>
 8006028:	2300      	movs	r3, #0
 800602a:	f8c4 308c 	str.w	r3, [r4, #140]	; 0x8c
 800602e:	e76c      	b.n	8005f0a <HAL_UART_IRQHandler+0x8e>
 8006030:	f013 0f10 	tst.w	r3, #16
 8006034:	f43f af44 	beq.w	8005ec0 <HAL_UART_IRQHandler+0x44>
 8006038:	f010 0f10 	tst.w	r0, #16
 800603c:	f43f af40 	beq.w	8005ec0 <HAL_UART_IRQHandler+0x44>
 8006040:	2310      	movs	r3, #16
 8006042:	6213      	str	r3, [r2, #32]
 8006044:	6820      	ldr	r0, [r4, #0]
 8006046:	6883      	ldr	r3, [r0, #8]
 8006048:	f013 0f40 	tst.w	r3, #64	; 0x40
 800604c:	f000 8096 	beq.w	800617c <HAL_UART_IRQHandler+0x300>
 8006050:	6fe1      	ldr	r1, [r4, #124]	; 0x7c
 8006052:	680a      	ldr	r2, [r1, #0]
 8006054:	4b46      	ldr	r3, [pc, #280]	; (8006170 <HAL_UART_IRQHandler+0x2f4>)
 8006056:	4d47      	ldr	r5, [pc, #284]	; (8006174 <HAL_UART_IRQHandler+0x2f8>)
 8006058:	42aa      	cmp	r2, r5
 800605a:	bf18      	it	ne
 800605c:	429a      	cmpne	r2, r3
 800605e:	bf0c      	ite	eq
 8006060:	2301      	moveq	r3, #1
 8006062:	2300      	movne	r3, #0
 8006064:	3518      	adds	r5, #24
 8006066:	42aa      	cmp	r2, r5
 8006068:	bf08      	it	eq
 800606a:	f043 0301 	orreq.w	r3, r3, #1
 800606e:	3518      	adds	r5, #24
 8006070:	42aa      	cmp	r2, r5
 8006072:	bf08      	it	eq
 8006074:	f043 0301 	orreq.w	r3, r3, #1
 8006078:	3518      	adds	r5, #24
 800607a:	42aa      	cmp	r2, r5
 800607c:	bf08      	it	eq
 800607e:	f043 0301 	orreq.w	r3, r3, #1
 8006082:	3518      	adds	r5, #24
 8006084:	42aa      	cmp	r2, r5
 8006086:	bf08      	it	eq
 8006088:	f043 0301 	orreq.w	r3, r3, #1
 800608c:	3518      	adds	r5, #24
 800608e:	42aa      	cmp	r2, r5
 8006090:	bf08      	it	eq
 8006092:	f043 0301 	orreq.w	r3, r3, #1
 8006096:	3518      	adds	r5, #24
 8006098:	42aa      	cmp	r2, r5
 800609a:	bf08      	it	eq
 800609c:	f043 0301 	orreq.w	r3, r3, #1
 80060a0:	f505 7556 	add.w	r5, r5, #856	; 0x358
 80060a4:	42aa      	cmp	r2, r5
 80060a6:	bf08      	it	eq
 80060a8:	f043 0301 	orreq.w	r3, r3, #1
 80060ac:	3518      	adds	r5, #24
 80060ae:	42aa      	cmp	r2, r5
 80060b0:	bf08      	it	eq
 80060b2:	f043 0301 	orreq.w	r3, r3, #1
 80060b6:	3518      	adds	r5, #24
 80060b8:	42aa      	cmp	r2, r5
 80060ba:	bf08      	it	eq
 80060bc:	f043 0301 	orreq.w	r3, r3, #1
 80060c0:	3518      	adds	r5, #24
 80060c2:	42aa      	cmp	r2, r5
 80060c4:	bf08      	it	eq
 80060c6:	f043 0301 	orreq.w	r3, r3, #1
 80060ca:	3518      	adds	r5, #24
 80060cc:	42aa      	cmp	r2, r5
 80060ce:	bf08      	it	eq
 80060d0:	f043 0301 	orreq.w	r3, r3, #1
 80060d4:	3518      	adds	r5, #24
 80060d6:	42aa      	cmp	r2, r5
 80060d8:	bf08      	it	eq
 80060da:	f043 0301 	orreq.w	r3, r3, #1
 80060de:	3518      	adds	r5, #24
 80060e0:	42aa      	cmp	r2, r5
 80060e2:	bf08      	it	eq
 80060e4:	f043 0301 	orreq.w	r3, r3, #1
 80060e8:	b913      	cbnz	r3, 80060f0 <HAL_UART_IRQHandler+0x274>
 80060ea:	4b23      	ldr	r3, [pc, #140]	; (8006178 <HAL_UART_IRQHandler+0x2fc>)
 80060ec:	429a      	cmp	r2, r3
 80060ee:	d119      	bne.n	8006124 <HAL_UART_IRQHandler+0x2a8>
 80060f0:	6853      	ldr	r3, [r2, #4]
 80060f2:	b29b      	uxth	r3, r3
 80060f4:	2b00      	cmp	r3, #0
 80060f6:	f43f af08 	beq.w	8005f0a <HAL_UART_IRQHandler+0x8e>
 80060fa:	f8b4 205c 	ldrh.w	r2, [r4, #92]	; 0x5c
 80060fe:	429a      	cmp	r2, r3
 8006100:	f67f af03 	bls.w	8005f0a <HAL_UART_IRQHandler+0x8e>
 8006104:	f8a4 305e 	strh.w	r3, [r4, #94]	; 0x5e
 8006108:	69cb      	ldr	r3, [r1, #28]
 800610a:	f5b3 7f80 	cmp.w	r3, #256	; 0x100
 800610e:	d10c      	bne.n	800612a <HAL_UART_IRQHandler+0x2ae>
 8006110:	f8b4 305e 	ldrh.w	r3, [r4, #94]	; 0x5e
 8006114:	f8b4 105c 	ldrh.w	r1, [r4, #92]	; 0x5c
 8006118:	1ac9      	subs	r1, r1, r3
 800611a:	b289      	uxth	r1, r1
 800611c:	4620      	mov	r0, r4
 800611e:	f7ff feab 	bl	8005e78 <HAL_UARTEx_RxEventCallback>
 8006122:	e6f2      	b.n	8005f0a <HAL_UART_IRQHandler+0x8e>
 8006124:	6853      	ldr	r3, [r2, #4]
 8006126:	b29b      	uxth	r3, r3
 8006128:	e7e4      	b.n	80060f4 <HAL_UART_IRQHandler+0x278>
 800612a:	6803      	ldr	r3, [r0, #0]
 800612c:	f423 7380 	bic.w	r3, r3, #256	; 0x100
 8006130:	6003      	str	r3, [r0, #0]
 8006132:	6822      	ldr	r2, [r4, #0]
 8006134:	6893      	ldr	r3, [r2, #8]
 8006136:	f023 0301 	bic.w	r3, r3, #1
 800613a:	6093      	str	r3, [r2, #8]
 800613c:	6822      	ldr	r2, [r4, #0]
 800613e:	6893      	ldr	r3, [r2, #8]
 8006140:	f023 0340 	bic.w	r3, r3, #64	; 0x40
 8006144:	6093      	str	r3, [r2, #8]
 8006146:	2320      	movs	r3, #32
 8006148:	f8c4 3088 	str.w	r3, [r4, #136]	; 0x88
 800614c:	2300      	movs	r3, #0
 800614e:	66e3      	str	r3, [r4, #108]	; 0x6c
 8006150:	6822      	ldr	r2, [r4, #0]
 8006152:	6813      	ldr	r3, [r2, #0]
 8006154:	f023 0310 	bic.w	r3, r3, #16
 8006158:	6013      	str	r3, [r2, #0]
 800615a:	6fe0      	ldr	r0, [r4, #124]	; 0x7c
 800615c:	f7fc fbc0 	bl	80028e0 <HAL_DMA_Abort>
 8006160:	e7d6      	b.n	8006110 <HAL_UART_IRQHandler+0x294>
 8006162:	bf00      	nop
 8006164:	10000001 	.word	0x10000001
 8006168:	04000120 	.word	0x04000120
 800616c:	08005e65 	.word	0x08005e65
 8006170:	40020010 	.word	0x40020010
 8006174:	40020028 	.word	0x40020028
 8006178:	400204b8 	.word	0x400204b8
 800617c:	f8b4 305e 	ldrh.w	r3, [r4, #94]	; 0x5e
 8006180:	f8b4 105c 	ldrh.w	r1, [r4, #92]	; 0x5c
 8006184:	1ac9      	subs	r1, r1, r3
 8006186:	b289      	uxth	r1, r1
 8006188:	f8b4 305e 	ldrh.w	r3, [r4, #94]	; 0x5e
 800618c:	b29b      	uxth	r3, r3
 800618e:	2900      	cmp	r1, #0
 8006190:	f43f aebb 	beq.w	8005f0a <HAL_UART_IRQHandler+0x8e>
 8006194:	2b00      	cmp	r3, #0
 8006196:	f43f aeb8 	beq.w	8005f0a <HAL_UART_IRQHandler+0x8e>
 800619a:	6803      	ldr	r3, [r0, #0]
 800619c:	f423 7390 	bic.w	r3, r3, #288	; 0x120
 80061a0:	6003      	str	r3, [r0, #0]
 80061a2:	6822      	ldr	r2, [r4, #0]
 80061a4:	6890      	ldr	r0, [r2, #8]
 80061a6:	4b1a      	ldr	r3, [pc, #104]	; (8006210 <HAL_UART_IRQHandler+0x394>)
 80061a8:	4003      	ands	r3, r0
 80061aa:	6093      	str	r3, [r2, #8]
 80061ac:	2320      	movs	r3, #32
 80061ae:	f8c4 3088 	str.w	r3, [r4, #136]	; 0x88
 80061b2:	2300      	movs	r3, #0
 80061b4:	66e3      	str	r3, [r4, #108]	; 0x6c
 80061b6:	6723      	str	r3, [r4, #112]	; 0x70
 80061b8:	6822      	ldr	r2, [r4, #0]
 80061ba:	6813      	ldr	r3, [r2, #0]
 80061bc:	f023 0310 	bic.w	r3, r3, #16
 80061c0:	6013      	str	r3, [r2, #0]
 80061c2:	4620      	mov	r0, r4
 80061c4:	f7ff fe58 	bl	8005e78 <HAL_UARTEx_RxEventCallback>
 80061c8:	e69f      	b.n	8005f0a <HAL_UART_IRQHandler+0x8e>
 80061ca:	f44f 1380 	mov.w	r3, #1048576	; 0x100000
 80061ce:	6213      	str	r3, [r2, #32]
 80061d0:	4620      	mov	r0, r4
 80061d2:	f000 fc8f 	bl	8006af4 <HAL_UARTEx_WakeupCallback>
 80061d6:	e698      	b.n	8005f0a <HAL_UART_IRQHandler+0x8e>
 80061d8:	6f63      	ldr	r3, [r4, #116]	; 0x74
 80061da:	2b00      	cmp	r3, #0
 80061dc:	f43f ae95 	beq.w	8005f0a <HAL_UART_IRQHandler+0x8e>
 80061e0:	4620      	mov	r0, r4
 80061e2:	4798      	blx	r3
 80061e4:	e691      	b.n	8005f0a <HAL_UART_IRQHandler+0x8e>
 80061e6:	6813      	ldr	r3, [r2, #0]
 80061e8:	f023 0340 	bic.w	r3, r3, #64	; 0x40
 80061ec:	6013      	str	r3, [r2, #0]
 80061ee:	2320      	movs	r3, #32
 80061f0:	f8c4 3084 	str.w	r3, [r4, #132]	; 0x84
 80061f4:	2300      	movs	r3, #0
 80061f6:	6763      	str	r3, [r4, #116]	; 0x74
 80061f8:	4620      	mov	r0, r4
 80061fa:	f7ff fddf 	bl	8005dbc <HAL_UART_TxCpltCallback>
 80061fe:	e684      	b.n	8005f0a <HAL_UART_IRQHandler+0x8e>
 8006200:	4620      	mov	r0, r4
 8006202:	f000 fc79 	bl	8006af8 <HAL_UARTEx_TxFifoEmptyCallback>
 8006206:	e680      	b.n	8005f0a <HAL_UART_IRQHandler+0x8e>
 8006208:	4620      	mov	r0, r4
 800620a:	f000 fc74 	bl	8006af6 <HAL_UARTEx_RxFifoFullCallback>
 800620e:	e67c      	b.n	8005f0a <HAL_UART_IRQHandler+0x8e>
 8006210:	effffffe 	.word	0xeffffffe

08006214 <UART_SetConfig>:
 8006214:	e92d 41f0 	stmdb	sp!, {r4, r5, r6, r7, r8, lr}
 8006218:	b086      	sub	sp, #24
 800621a:	4604      	mov	r4, r0
 800621c:	6801      	ldr	r1, [r0, #0]
 800621e:	6808      	ldr	r0, [r1, #0]
 8006220:	68a3      	ldr	r3, [r4, #8]
 8006222:	6922      	ldr	r2, [r4, #16]
 8006224:	4313      	orrs	r3, r2
 8006226:	6962      	ldr	r2, [r4, #20]
 8006228:	4313      	orrs	r3, r2
 800622a:	69e2      	ldr	r2, [r4, #28]
 800622c:	4313      	orrs	r3, r2
 800622e:	4a85      	ldr	r2, [pc, #532]	; (8006444 <UART_SetConfig+0x230>)
 8006230:	4002      	ands	r2, r0
 8006232:	4313      	orrs	r3, r2
 8006234:	600b      	str	r3, [r1, #0]
 8006236:	6822      	ldr	r2, [r4, #0]
 8006238:	6853      	ldr	r3, [r2, #4]
 800623a:	f423 5340 	bic.w	r3, r3, #12288	; 0x3000
 800623e:	68e1      	ldr	r1, [r4, #12]
 8006240:	430b      	orrs	r3, r1
 8006242:	6053      	str	r3, [r2, #4]
 8006244:	69a1      	ldr	r1, [r4, #24]
 8006246:	6822      	ldr	r2, [r4, #0]
 8006248:	4b7f      	ldr	r3, [pc, #508]	; (8006448 <UART_SetConfig+0x234>)
 800624a:	429a      	cmp	r2, r3
 800624c:	d001      	beq.n	8006252 <UART_SetConfig+0x3e>
 800624e:	6a23      	ldr	r3, [r4, #32]
 8006250:	4319      	orrs	r1, r3
 8006252:	6890      	ldr	r0, [r2, #8]
 8006254:	4b7d      	ldr	r3, [pc, #500]	; (800644c <UART_SetConfig+0x238>)
 8006256:	4003      	ands	r3, r0
 8006258:	430b      	orrs	r3, r1
 800625a:	6093      	str	r3, [r2, #8]
 800625c:	6822      	ldr	r2, [r4, #0]
 800625e:	6ad3      	ldr	r3, [r2, #44]	; 0x2c
 8006260:	f023 030f 	bic.w	r3, r3, #15
 8006264:	6a61      	ldr	r1, [r4, #36]	; 0x24
 8006266:	430b      	orrs	r3, r1
 8006268:	62d3      	str	r3, [r2, #44]	; 0x2c
 800626a:	6822      	ldr	r2, [r4, #0]
 800626c:	4b78      	ldr	r3, [pc, #480]	; (8006450 <UART_SetConfig+0x23c>)
 800626e:	429a      	cmp	r2, r3
 8006270:	d021      	beq.n	80062b6 <UART_SetConfig+0xa2>
 8006272:	4b78      	ldr	r3, [pc, #480]	; (8006454 <UART_SetConfig+0x240>)
 8006274:	429a      	cmp	r2, r3
 8006276:	f000 8084 	beq.w	8006382 <UART_SetConfig+0x16e>
 800627a:	4b77      	ldr	r3, [pc, #476]	; (8006458 <UART_SetConfig+0x244>)
 800627c:	429a      	cmp	r2, r3
 800627e:	f000 8098 	beq.w	80063b2 <UART_SetConfig+0x19e>
 8006282:	4b76      	ldr	r3, [pc, #472]	; (800645c <UART_SetConfig+0x248>)
 8006284:	429a      	cmp	r2, r3
 8006286:	f000 80ac 	beq.w	80063e2 <UART_SetConfig+0x1ce>
 800628a:	4b75      	ldr	r3, [pc, #468]	; (8006460 <UART_SetConfig+0x24c>)
 800628c:	429a      	cmp	r2, r3
 800628e:	f000 80c0 	beq.w	8006412 <UART_SetConfig+0x1fe>
 8006292:	4b74      	ldr	r3, [pc, #464]	; (8006464 <UART_SetConfig+0x250>)
 8006294:	429a      	cmp	r2, r3
 8006296:	f000 80ed 	beq.w	8006474 <UART_SetConfig+0x260>
 800629a:	4b73      	ldr	r3, [pc, #460]	; (8006468 <UART_SetConfig+0x254>)
 800629c:	429a      	cmp	r2, r3
 800629e:	f000 8124 	beq.w	80064ea <UART_SetConfig+0x2d6>
 80062a2:	4b72      	ldr	r3, [pc, #456]	; (800646c <UART_SetConfig+0x258>)
 80062a4:	429a      	cmp	r2, r3
 80062a6:	f000 8138 	beq.w	800651a <UART_SetConfig+0x306>
 80062aa:	4b67      	ldr	r3, [pc, #412]	; (8006448 <UART_SetConfig+0x234>)
 80062ac:	429a      	cmp	r2, r3
 80062ae:	f000 814c 	beq.w	800654a <UART_SetConfig+0x336>
 80062b2:	2380      	movs	r3, #128	; 0x80
 80062b4:	e033      	b.n	800631e <UART_SetConfig+0x10a>
 80062b6:	4b6e      	ldr	r3, [pc, #440]	; (8006470 <UART_SetConfig+0x25c>)
 80062b8:	6d5b      	ldr	r3, [r3, #84]	; 0x54
 80062ba:	f003 0338 	and.w	r3, r3, #56	; 0x38
 80062be:	2b28      	cmp	r3, #40	; 0x28
 80062c0:	d85d      	bhi.n	800637e <UART_SetConfig+0x16a>
 80062c2:	e8df f013 	tbh	[pc, r3, lsl #1]
 80062c6:	0152      	.short	0x0152
 80062c8:	005c005c 	.word	0x005c005c
 80062cc:	005c005c 	.word	0x005c005c
 80062d0:	005c005c 	.word	0x005c005c
 80062d4:	02a5005c 	.word	0x02a5005c
 80062d8:	005c005c 	.word	0x005c005c
 80062dc:	005c005c 	.word	0x005c005c
 80062e0:	005c005c 	.word	0x005c005c
 80062e4:	0029005c 	.word	0x0029005c
 80062e8:	005c005c 	.word	0x005c005c
 80062ec:	005c005c 	.word	0x005c005c
 80062f0:	005c005c 	.word	0x005c005c
 80062f4:	02a7005c 	.word	0x02a7005c
 80062f8:	005c005c 	.word	0x005c005c
 80062fc:	005c005c 	.word	0x005c005c
 8006300:	005c005c 	.word	0x005c005c
 8006304:	002b005c 	.word	0x002b005c
 8006308:	005c005c 	.word	0x005c005c
 800630c:	005c005c 	.word	0x005c005c
 8006310:	005c005c 	.word	0x005c005c
 8006314:	005a005c 	.word	0x005a005c
 8006318:	2308      	movs	r3, #8
 800631a:	e000      	b.n	800631e <UART_SetConfig+0x10a>
 800631c:	2320      	movs	r3, #32
 800631e:	69e0      	ldr	r0, [r4, #28]
 8006320:	f5b0 4f00 	cmp.w	r0, #32768	; 0x8000
 8006324:	f000 81ba 	beq.w	800669c <UART_SetConfig+0x488>
 8006328:	2b20      	cmp	r3, #32
 800632a:	f200 8214 	bhi.w	8006756 <UART_SetConfig+0x542>
 800632e:	2b20      	cmp	r3, #32
 8006330:	f200 826a 	bhi.w	8006808 <UART_SetConfig+0x5f4>
 8006334:	e8df f013 	tbh	[pc, r3, lsl #1]
 8006338:	023b0235 	.word	0x023b0235
 800633c:	02680268 	.word	0x02680268
 8006340:	0268023e 	.word	0x0268023e
 8006344:	02680268 	.word	0x02680268
 8006348:	02680243 	.word	0x02680243
 800634c:	02680268 	.word	0x02680268
 8006350:	02680268 	.word	0x02680268
 8006354:	02680268 	.word	0x02680268
 8006358:	02680248 	.word	0x02680248
 800635c:	02680268 	.word	0x02680268
 8006360:	02680268 	.word	0x02680268
 8006364:	02680268 	.word	0x02680268
 8006368:	02680268 	.word	0x02680268
 800636c:	02680268 	.word	0x02680268
 8006370:	02680268 	.word	0x02680268
 8006374:	02680268 	.word	0x02680268
 8006378:	0254      	.short	0x0254
 800637a:	2340      	movs	r3, #64	; 0x40
 800637c:	e7cf      	b.n	800631e <UART_SetConfig+0x10a>
 800637e:	2380      	movs	r3, #128	; 0x80
 8006380:	e7cd      	b.n	800631e <UART_SetConfig+0x10a>
 8006382:	4b3b      	ldr	r3, [pc, #236]	; (8006470 <UART_SetConfig+0x25c>)
 8006384:	6d5b      	ldr	r3, [r3, #84]	; 0x54
 8006386:	f003 0307 	and.w	r3, r3, #7
 800638a:	2b05      	cmp	r3, #5
 800638c:	d80f      	bhi.n	80063ae <UART_SetConfig+0x19a>
 800638e:	e8df f013 	tbh	[pc, r3, lsl #1]
 8006392:	00ee      	.short	0x00ee
 8006394:	00060243 	.word	0x00060243
 8006398:	000a0008 	.word	0x000a0008
 800639c:	000c      	.short	0x000c
 800639e:	2308      	movs	r3, #8
 80063a0:	e7bd      	b.n	800631e <UART_SetConfig+0x10a>
 80063a2:	2310      	movs	r3, #16
 80063a4:	e7bb      	b.n	800631e <UART_SetConfig+0x10a>
 80063a6:	2320      	movs	r3, #32
 80063a8:	e7b9      	b.n	800631e <UART_SetConfig+0x10a>
 80063aa:	2340      	movs	r3, #64	; 0x40
 80063ac:	e7b7      	b.n	800631e <UART_SetConfig+0x10a>
 80063ae:	2380      	movs	r3, #128	; 0x80
 80063b0:	e7b5      	b.n	800631e <UART_SetConfig+0x10a>
 80063b2:	4b2f      	ldr	r3, [pc, #188]	; (8006470 <UART_SetConfig+0x25c>)
 80063b4:	6d5b      	ldr	r3, [r3, #84]	; 0x54
 80063b6:	f003 0307 	and.w	r3, r3, #7
 80063ba:	2b05      	cmp	r3, #5
 80063bc:	d80f      	bhi.n	80063de <UART_SetConfig+0x1ca>
 80063be:	e8df f013 	tbh	[pc, r3, lsl #1]
 80063c2:	0105      	.short	0x0105
 80063c4:	0006022d 	.word	0x0006022d
 80063c8:	000a0008 	.word	0x000a0008
 80063cc:	000c      	.short	0x000c
 80063ce:	2308      	movs	r3, #8
 80063d0:	e7a5      	b.n	800631e <UART_SetConfig+0x10a>
 80063d2:	2310      	movs	r3, #16
 80063d4:	e7a3      	b.n	800631e <UART_SetConfig+0x10a>
 80063d6:	2320      	movs	r3, #32
 80063d8:	e7a1      	b.n	800631e <UART_SetConfig+0x10a>
 80063da:	2340      	movs	r3, #64	; 0x40
 80063dc:	e79f      	b.n	800631e <UART_SetConfig+0x10a>
 80063de:	2380      	movs	r3, #128	; 0x80
 80063e0:	e79d      	b.n	800631e <UART_SetConfig+0x10a>
 80063e2:	4b23      	ldr	r3, [pc, #140]	; (8006470 <UART_SetConfig+0x25c>)
 80063e4:	6d5b      	ldr	r3, [r3, #84]	; 0x54
 80063e6:	f003 0307 	and.w	r3, r3, #7
 80063ea:	2b05      	cmp	r3, #5
 80063ec:	d80f      	bhi.n	800640e <UART_SetConfig+0x1fa>
 80063ee:	e8df f013 	tbh	[pc, r3, lsl #1]
 80063f2:	00ef      	.short	0x00ef
 80063f4:	00060217 	.word	0x00060217
 80063f8:	000a0008 	.word	0x000a0008
 80063fc:	000c      	.short	0x000c
 80063fe:	2308      	movs	r3, #8
 8006400:	e78d      	b.n	800631e <UART_SetConfig+0x10a>
 8006402:	2310      	movs	r3, #16
 8006404:	e78b      	b.n	800631e <UART_SetConfig+0x10a>
 8006406:	2320      	movs	r3, #32
 8006408:	e789      	b.n	800631e <UART_SetConfig+0x10a>
 800640a:	2340      	movs	r3, #64	; 0x40
 800640c:	e787      	b.n	800631e <UART_SetConfig+0x10a>
 800640e:	2380      	movs	r3, #128	; 0x80
 8006410:	e785      	b.n	800631e <UART_SetConfig+0x10a>
 8006412:	4b17      	ldr	r3, [pc, #92]	; (8006470 <UART_SetConfig+0x25c>)
 8006414:	6d5b      	ldr	r3, [r3, #84]	; 0x54
 8006416:	f003 0307 	and.w	r3, r3, #7
 800641a:	2b05      	cmp	r3, #5
 800641c:	d80f      	bhi.n	800643e <UART_SetConfig+0x22a>
 800641e:	e8df f013 	tbh	[pc, r3, lsl #1]
 8006422:	00d9      	.short	0x00d9
 8006424:	00060201 	.word	0x00060201
 8006428:	000a0008 	.word	0x000a0008
 800642c:	000c      	.short	0x000c
 800642e:	2308      	movs	r3, #8
 8006430:	e775      	b.n	800631e <UART_SetConfig+0x10a>
 8006432:	2310      	movs	r3, #16
 8006434:	e773      	b.n	800631e <UART_SetConfig+0x10a>
 8006436:	2320      	movs	r3, #32
 8006438:	e771      	b.n	800631e <UART_SetConfig+0x10a>
 800643a:	2340      	movs	r3, #64	; 0x40
 800643c:	e76f      	b.n	800631e <UART_SetConfig+0x10a>
 800643e:	2380      	movs	r3, #128	; 0x80
 8006440:	e76d      	b.n	800631e <UART_SetConfig+0x10a>
 8006442:	bf00      	nop
 8006444:	cfff69f3 	.word	0xcfff69f3
 8006448:	58000c00 	.word	0x58000c00
 800644c:	11fff4ff 	.word	0x11fff4ff
 8006450:	40011000 	.word	0x40011000
 8006454:	40004400 	.word	0x40004400
 8006458:	40004800 	.word	0x40004800
 800645c:	40004c00 	.word	0x40004c00
 8006460:	40005000 	.word	0x40005000
 8006464:	40011400 	.word	0x40011400
 8006468:	40007800 	.word	0x40007800
 800646c:	40007c00 	.word	0x40007c00
 8006470:	58024400 	.word	0x58024400
 8006474:	4b83      	ldr	r3, [pc, #524]	; (8006684 <UART_SetConfig+0x470>)
 8006476:	6d5b      	ldr	r3, [r3, #84]	; 0x54
 8006478:	f003 0338 	and.w	r3, r3, #56	; 0x38
 800647c:	2b28      	cmp	r3, #40	; 0x28
 800647e:	d832      	bhi.n	80064e6 <UART_SetConfig+0x2d2>
 8006480:	e8df f013 	tbh	[pc, r3, lsl #1]
 8006484:	003100aa 	.word	0x003100aa
 8006488:	00310031 	.word	0x00310031
 800648c:	00310031 	.word	0x00310031
 8006490:	00310031 	.word	0x00310031
 8006494:	003101d2 	.word	0x003101d2
 8006498:	00310031 	.word	0x00310031
 800649c:	00310031 	.word	0x00310031
 80064a0:	00310031 	.word	0x00310031
 80064a4:	00310029 	.word	0x00310029
 80064a8:	00310031 	.word	0x00310031
 80064ac:	00310031 	.word	0x00310031
 80064b0:	00310031 	.word	0x00310031
 80064b4:	0031002b 	.word	0x0031002b
 80064b8:	00310031 	.word	0x00310031
 80064bc:	00310031 	.word	0x00310031
 80064c0:	00310031 	.word	0x00310031
 80064c4:	0031002d 	.word	0x0031002d
 80064c8:	00310031 	.word	0x00310031
 80064cc:	00310031 	.word	0x00310031
 80064d0:	00310031 	.word	0x00310031
 80064d4:	002f      	.short	0x002f
 80064d6:	2308      	movs	r3, #8
 80064d8:	e721      	b.n	800631e <UART_SetConfig+0x10a>
 80064da:	2310      	movs	r3, #16
 80064dc:	e71f      	b.n	800631e <UART_SetConfig+0x10a>
 80064de:	2320      	movs	r3, #32
 80064e0:	e71d      	b.n	800631e <UART_SetConfig+0x10a>
 80064e2:	2340      	movs	r3, #64	; 0x40
 80064e4:	e71b      	b.n	800631e <UART_SetConfig+0x10a>
 80064e6:	2380      	movs	r3, #128	; 0x80
 80064e8:	e719      	b.n	800631e <UART_SetConfig+0x10a>
 80064ea:	4b66      	ldr	r3, [pc, #408]	; (8006684 <UART_SetConfig+0x470>)
 80064ec:	6d5b      	ldr	r3, [r3, #84]	; 0x54
 80064ee:	f003 0307 	and.w	r3, r3, #7
 80064f2:	2b05      	cmp	r3, #5
 80064f4:	d80f      	bhi.n	8006516 <UART_SetConfig+0x302>
 80064f6:	e8df f013 	tbh	[pc, r3, lsl #1]
 80064fa:	0071      	.short	0x0071
 80064fc:	00060199 	.word	0x00060199
 8006500:	000a0008 	.word	0x000a0008
 8006504:	000c      	.short	0x000c
 8006506:	2308      	movs	r3, #8
 8006508:	e709      	b.n	800631e <UART_SetConfig+0x10a>
 800650a:	2310      	movs	r3, #16
 800650c:	e707      	b.n	800631e <UART_SetConfig+0x10a>
 800650e:	2320      	movs	r3, #32
 8006510:	e705      	b.n	800631e <UART_SetConfig+0x10a>
 8006512:	2340      	movs	r3, #64	; 0x40
 8006514:	e703      	b.n	800631e <UART_SetConfig+0x10a>
 8006516:	2380      	movs	r3, #128	; 0x80
 8006518:	e701      	b.n	800631e <UART_SetConfig+0x10a>
 800651a:	4b5a      	ldr	r3, [pc, #360]	; (8006684 <UART_SetConfig+0x470>)
 800651c:	6d5b      	ldr	r3, [r3, #84]	; 0x54
 800651e:	f003 0307 	and.w	r3, r3, #7
 8006522:	2b05      	cmp	r3, #5
 8006524:	d80f      	bhi.n	8006546 <UART_SetConfig+0x332>
 8006526:	e8df f013 	tbh	[pc, r3, lsl #1]
 800652a:	005b      	.short	0x005b
 800652c:	00060183 	.word	0x00060183
 8006530:	000a0008 	.word	0x000a0008
 8006534:	000c      	.short	0x000c
 8006536:	2308      	movs	r3, #8
 8006538:	e6f1      	b.n	800631e <UART_SetConfig+0x10a>
 800653a:	2310      	movs	r3, #16
 800653c:	e6ef      	b.n	800631e <UART_SetConfig+0x10a>
 800653e:	2320      	movs	r3, #32
 8006540:	e6ed      	b.n	800631e <UART_SetConfig+0x10a>
 8006542:	2340      	movs	r3, #64	; 0x40
 8006544:	e6eb      	b.n	800631e <UART_SetConfig+0x10a>
 8006546:	2380      	movs	r3, #128	; 0x80
 8006548:	e6e9      	b.n	800631e <UART_SetConfig+0x10a>
 800654a:	f503 330e 	add.w	r3, r3, #145408	; 0x23800
 800654e:	6d9b      	ldr	r3, [r3, #88]	; 0x58
 8006550:	f003 0307 	and.w	r3, r3, #7
 8006554:	2b05      	cmp	r3, #5
 8006556:	f200 8147 	bhi.w	80067e8 <UART_SetConfig+0x5d4>
 800655a:	e8df f003 	tbb	[pc, r3]
 800655e:	4a43      	.short	0x4a43
 8006560:	038c544f 	.word	0x038c544f
 8006564:	f44f 4000 	mov.w	r0, #32768	; 0x8000
 8006568:	e058      	b.n	800661c <UART_SetConfig+0x408>
 800656a:	2301      	movs	r3, #1
 800656c:	e000      	b.n	8006570 <UART_SetConfig+0x35c>
 800656e:	2300      	movs	r3, #0
 8006570:	4945      	ldr	r1, [pc, #276]	; (8006688 <UART_SetConfig+0x474>)
 8006572:	428a      	cmp	r2, r1
 8006574:	f040 815e 	bne.w	8006834 <UART_SetConfig+0x620>
 8006578:	1e9a      	subs	r2, r3, #2
 800657a:	b2d2      	uxtb	r2, r2
 800657c:	2a1e      	cmp	r2, #30
 800657e:	f200 8135 	bhi.w	80067ec <UART_SetConfig+0x5d8>
 8006582:	3b02      	subs	r3, #2
 8006584:	2b1e      	cmp	r3, #30
 8006586:	f200 8133 	bhi.w	80067f0 <UART_SetConfig+0x5dc>
 800658a:	e8df f013 	tbh	[pc, r3, lsl #1]
 800658e:	002d      	.short	0x002d
 8006590:	00320131 	.word	0x00320131
 8006594:	01310131 	.word	0x01310131
 8006598:	00370131 	.word	0x00370131
 800659c:	01310131 	.word	0x01310131
 80065a0:	01310131 	.word	0x01310131
 80065a4:	01310131 	.word	0x01310131
 80065a8:	003c0131 	.word	0x003c0131
 80065ac:	01310131 	.word	0x01310131
 80065b0:	01310131 	.word	0x01310131
 80065b4:	01310131 	.word	0x01310131
 80065b8:	01310131 	.word	0x01310131
 80065bc:	01310131 	.word	0x01310131
 80065c0:	01310131 	.word	0x01310131
 80065c4:	01310131 	.word	0x01310131
 80065c8:	00760131 	.word	0x00760131
 80065cc:	2300      	movs	r3, #0
 80065ce:	e7cf      	b.n	8006570 <UART_SetConfig+0x35c>
 80065d0:	2300      	movs	r3, #0
 80065d2:	e7cd      	b.n	8006570 <UART_SetConfig+0x35c>
 80065d4:	2300      	movs	r3, #0
 80065d6:	e7cb      	b.n	8006570 <UART_SetConfig+0x35c>
 80065d8:	2301      	movs	r3, #1
 80065da:	e7c9      	b.n	8006570 <UART_SetConfig+0x35c>
 80065dc:	2300      	movs	r3, #0
 80065de:	e7c7      	b.n	8006570 <UART_SetConfig+0x35c>
 80065e0:	2300      	movs	r3, #0
 80065e2:	e7c5      	b.n	8006570 <UART_SetConfig+0x35c>
 80065e4:	2302      	movs	r3, #2
 80065e6:	e7c3      	b.n	8006570 <UART_SetConfig+0x35c>
 80065e8:	f7fe fefc 	bl	80053e4 <HAL_RCCEx_GetD3PCLK1Freq>
 80065ec:	b9b0      	cbnz	r0, 800661c <UART_SetConfig+0x408>
 80065ee:	2000      	movs	r0, #0
 80065f0:	e0cc      	b.n	800678c <UART_SetConfig+0x578>
 80065f2:	a803      	add	r0, sp, #12
 80065f4:	f7fe ff08 	bl	8005408 <HAL_RCCEx_GetPLL2ClockFreq>
 80065f8:	9804      	ldr	r0, [sp, #16]
 80065fa:	e7f7      	b.n	80065ec <UART_SetConfig+0x3d8>
 80065fc:	4668      	mov	r0, sp
 80065fe:	f7ff f801 	bl	8005604 <HAL_RCCEx_GetPLL3ClockFreq>
 8006602:	9801      	ldr	r0, [sp, #4]
 8006604:	e7f2      	b.n	80065ec <UART_SetConfig+0x3d8>
 8006606:	4b1f      	ldr	r3, [pc, #124]	; (8006684 <UART_SetConfig+0x470>)
 8006608:	681b      	ldr	r3, [r3, #0]
 800660a:	f013 0f20 	tst.w	r3, #32
 800660e:	d036      	beq.n	800667e <UART_SetConfig+0x46a>
 8006610:	4b1c      	ldr	r3, [pc, #112]	; (8006684 <UART_SetConfig+0x470>)
 8006612:	681b      	ldr	r3, [r3, #0]
 8006614:	f3c3 03c1 	ubfx	r3, r3, #3, #2
 8006618:	481c      	ldr	r0, [pc, #112]	; (800668c <UART_SetConfig+0x478>)
 800661a:	40d8      	lsrs	r0, r3
 800661c:	6a62      	ldr	r2, [r4, #36]	; 0x24
 800661e:	4b1c      	ldr	r3, [pc, #112]	; (8006690 <UART_SetConfig+0x47c>)
 8006620:	f833 2012 	ldrh.w	r2, [r3, r2, lsl #1]
 8006624:	fbb0 f3f2 	udiv	r3, r0, r2
 8006628:	6865      	ldr	r5, [r4, #4]
 800662a:	eb05 0145 	add.w	r1, r5, r5, lsl #1
 800662e:	4299      	cmp	r1, r3
 8006630:	f200 80e0 	bhi.w	80067f4 <UART_SetConfig+0x5e0>
 8006634:	ebb3 3f05 	cmp.w	r3, r5, lsl #12
 8006638:	f200 80de 	bhi.w	80067f8 <UART_SetConfig+0x5e4>
 800663c:	f04f 0800 	mov.w	r8, #0
 8006640:	b292      	uxth	r2, r2
 8006642:	2300      	movs	r3, #0
 8006644:	4641      	mov	r1, r8
 8006646:	f7f9 fe47 	bl	80002d8 <__aeabi_uldivmod>
 800664a:	020f      	lsls	r7, r1, #8
 800664c:	ea47 6710 	orr.w	r7, r7, r0, lsr #24
 8006650:	0206      	lsls	r6, r0, #8
 8006652:	0868      	lsrs	r0, r5, #1
 8006654:	462a      	mov	r2, r5
 8006656:	4643      	mov	r3, r8
 8006658:	1830      	adds	r0, r6, r0
 800665a:	f147 0100 	adc.w	r1, r7, #0
 800665e:	f7f9 fe3b 	bl	80002d8 <__aeabi_uldivmod>
 8006662:	f5a0 7240 	sub.w	r2, r0, #768	; 0x300
 8006666:	4b0b      	ldr	r3, [pc, #44]	; (8006694 <UART_SetConfig+0x480>)
 8006668:	429a      	cmp	r2, r3
 800666a:	f200 80c7 	bhi.w	80067fc <UART_SetConfig+0x5e8>
 800666e:	6823      	ldr	r3, [r4, #0]
 8006670:	60d8      	str	r0, [r3, #12]
 8006672:	4640      	mov	r0, r8
 8006674:	e08a      	b.n	800678c <UART_SetConfig+0x578>
 8006676:	4808      	ldr	r0, [pc, #32]	; (8006698 <UART_SetConfig+0x484>)
 8006678:	e7d0      	b.n	800661c <UART_SetConfig+0x408>
 800667a:	4807      	ldr	r0, [pc, #28]	; (8006698 <UART_SetConfig+0x484>)
 800667c:	e7ce      	b.n	800661c <UART_SetConfig+0x408>
 800667e:	4803      	ldr	r0, [pc, #12]	; (800668c <UART_SetConfig+0x478>)
 8006680:	e7cc      	b.n	800661c <UART_SetConfig+0x408>
 8006682:	bf00      	nop
 8006684:	58024400 	.word	0x58024400
 8006688:	58000c00 	.word	0x58000c00
 800668c:	03d09000 	.word	0x03d09000
 8006690:	08006c74 	.word	0x08006c74
 8006694:	000ffcff 	.word	0x000ffcff
 8006698:	003d0900 	.word	0x003d0900
 800669c:	2b20      	cmp	r3, #32
 800669e:	d815      	bhi.n	80066cc <UART_SetConfig+0x4b8>
 80066a0:	2b20      	cmp	r3, #32
 80066a2:	f200 80ad 	bhi.w	8006800 <UART_SetConfig+0x5ec>
 80066a6:	e8df f003 	tbb	[pc, r3]
 80066aa:	3933      	.short	0x3933
 80066ac:	ab3cabab 	.word	0xab3cabab
 80066b0:	ab41abab 	.word	0xab41abab
 80066b4:	abababab 	.word	0xabababab
 80066b8:	ab46abab 	.word	0xab46abab
 80066bc:	abababab 	.word	0xabababab
 80066c0:	abababab 	.word	0xabababab
 80066c4:	abababab 	.word	0xabababab
 80066c8:	abab      	.short	0xabab
 80066ca:	52          	.byte	0x52
 80066cb:	00          	.byte	0x00
 80066cc:	2b40      	cmp	r3, #64	; 0x40
 80066ce:	d11d      	bne.n	800670c <UART_SetConfig+0x4f8>
 80066d0:	6862      	ldr	r2, [r4, #4]
 80066d2:	6a61      	ldr	r1, [r4, #36]	; 0x24
 80066d4:	4b5a      	ldr	r3, [pc, #360]	; (8006840 <UART_SetConfig+0x62c>)
 80066d6:	f833 3011 	ldrh.w	r3, [r3, r1, lsl #1]
 80066da:	fbb0 f0f3 	udiv	r0, r0, r3
 80066de:	0853      	lsrs	r3, r2, #1
 80066e0:	eb03 0040 	add.w	r0, r3, r0, lsl #1
 80066e4:	fbb0 f0f2 	udiv	r0, r0, r2
 80066e8:	b283      	uxth	r3, r0
 80066ea:	f1a3 0110 	sub.w	r1, r3, #16
 80066ee:	f64f 72ef 	movw	r2, #65519	; 0xffef
 80066f2:	4291      	cmp	r1, r2
 80066f4:	f200 8086 	bhi.w	8006804 <UART_SetConfig+0x5f0>
 80066f8:	f020 000f 	bic.w	r0, r0, #15
 80066fc:	b280      	uxth	r0, r0
 80066fe:	6822      	ldr	r2, [r4, #0]
 8006700:	f3c3 0342 	ubfx	r3, r3, #1, #3
 8006704:	4318      	orrs	r0, r3
 8006706:	60d0      	str	r0, [r2, #12]
 8006708:	2000      	movs	r0, #0
 800670a:	e03f      	b.n	800678c <UART_SetConfig+0x578>
 800670c:	2001      	movs	r0, #1
 800670e:	e03d      	b.n	800678c <UART_SetConfig+0x578>
 8006710:	f7fe f85c 	bl	80047cc <HAL_RCC_GetPCLK1Freq>
 8006714:	2800      	cmp	r0, #0
 8006716:	d1db      	bne.n	80066d0 <UART_SetConfig+0x4bc>
 8006718:	2000      	movs	r0, #0
 800671a:	e037      	b.n	800678c <UART_SetConfig+0x578>
 800671c:	f7fe f868 	bl	80047f0 <HAL_RCC_GetPCLK2Freq>
 8006720:	e7f8      	b.n	8006714 <UART_SetConfig+0x500>
 8006722:	a803      	add	r0, sp, #12
 8006724:	f7fe fe70 	bl	8005408 <HAL_RCCEx_GetPLL2ClockFreq>
 8006728:	9804      	ldr	r0, [sp, #16]
 800672a:	e7f3      	b.n	8006714 <UART_SetConfig+0x500>
 800672c:	4668      	mov	r0, sp
 800672e:	f7fe ff69 	bl	8005604 <HAL_RCCEx_GetPLL3ClockFreq>
 8006732:	9801      	ldr	r0, [sp, #4]
 8006734:	e7ee      	b.n	8006714 <UART_SetConfig+0x500>
 8006736:	4b43      	ldr	r3, [pc, #268]	; (8006844 <UART_SetConfig+0x630>)
 8006738:	681b      	ldr	r3, [r3, #0]
 800673a:	f013 0f20 	tst.w	r3, #32
 800673e:	d008      	beq.n	8006752 <UART_SetConfig+0x53e>
 8006740:	4b40      	ldr	r3, [pc, #256]	; (8006844 <UART_SetConfig+0x630>)
 8006742:	681b      	ldr	r3, [r3, #0]
 8006744:	f3c3 03c1 	ubfx	r3, r3, #3, #2
 8006748:	483f      	ldr	r0, [pc, #252]	; (8006848 <UART_SetConfig+0x634>)
 800674a:	40d8      	lsrs	r0, r3
 800674c:	e7c0      	b.n	80066d0 <UART_SetConfig+0x4bc>
 800674e:	483f      	ldr	r0, [pc, #252]	; (800684c <UART_SetConfig+0x638>)
 8006750:	e7be      	b.n	80066d0 <UART_SetConfig+0x4bc>
 8006752:	483d      	ldr	r0, [pc, #244]	; (8006848 <UART_SetConfig+0x634>)
 8006754:	e7bc      	b.n	80066d0 <UART_SetConfig+0x4bc>
 8006756:	2b40      	cmp	r3, #64	; 0x40
 8006758:	d117      	bne.n	800678a <UART_SetConfig+0x576>
 800675a:	f44f 4000 	mov.w	r0, #32768	; 0x8000
 800675e:	6863      	ldr	r3, [r4, #4]
 8006760:	6a61      	ldr	r1, [r4, #36]	; 0x24
 8006762:	4a37      	ldr	r2, [pc, #220]	; (8006840 <UART_SetConfig+0x62c>)
 8006764:	f832 2011 	ldrh.w	r2, [r2, r1, lsl #1]
 8006768:	fbb0 f0f2 	udiv	r0, r0, r2
 800676c:	eb00 0053 	add.w	r0, r0, r3, lsr #1
 8006770:	fbb0 f0f3 	udiv	r0, r0, r3
 8006774:	b280      	uxth	r0, r0
 8006776:	f1a0 0210 	sub.w	r2, r0, #16
 800677a:	f64f 73ef 	movw	r3, #65519	; 0xffef
 800677e:	429a      	cmp	r2, r3
 8006780:	d844      	bhi.n	800680c <UART_SetConfig+0x5f8>
 8006782:	6823      	ldr	r3, [r4, #0]
 8006784:	60d8      	str	r0, [r3, #12]
 8006786:	2000      	movs	r0, #0
 8006788:	e000      	b.n	800678c <UART_SetConfig+0x578>
 800678a:	2001      	movs	r0, #1
 800678c:	2301      	movs	r3, #1
 800678e:	f8a4 306a 	strh.w	r3, [r4, #106]	; 0x6a
 8006792:	f8a4 3068 	strh.w	r3, [r4, #104]	; 0x68
 8006796:	2300      	movs	r3, #0
 8006798:	6723      	str	r3, [r4, #112]	; 0x70
 800679a:	6763      	str	r3, [r4, #116]	; 0x74
 800679c:	b006      	add	sp, #24
 800679e:	e8bd 81f0 	ldmia.w	sp!, {r4, r5, r6, r7, r8, pc}
 80067a2:	f7fe f813 	bl	80047cc <HAL_RCC_GetPCLK1Freq>
 80067a6:	2800      	cmp	r0, #0
 80067a8:	d1d9      	bne.n	800675e <UART_SetConfig+0x54a>
 80067aa:	2000      	movs	r0, #0
 80067ac:	e7ee      	b.n	800678c <UART_SetConfig+0x578>
 80067ae:	f7fe f81f 	bl	80047f0 <HAL_RCC_GetPCLK2Freq>
 80067b2:	e7f8      	b.n	80067a6 <UART_SetConfig+0x592>
 80067b4:	a803      	add	r0, sp, #12
 80067b6:	f7fe fe27 	bl	8005408 <HAL_RCCEx_GetPLL2ClockFreq>
 80067ba:	9804      	ldr	r0, [sp, #16]
 80067bc:	e7f3      	b.n	80067a6 <UART_SetConfig+0x592>
 80067be:	4668      	mov	r0, sp
 80067c0:	f7fe ff20 	bl	8005604 <HAL_RCCEx_GetPLL3ClockFreq>
 80067c4:	9801      	ldr	r0, [sp, #4]
 80067c6:	e7ee      	b.n	80067a6 <UART_SetConfig+0x592>
 80067c8:	4b1e      	ldr	r3, [pc, #120]	; (8006844 <UART_SetConfig+0x630>)
 80067ca:	681b      	ldr	r3, [r3, #0]
 80067cc:	f013 0f20 	tst.w	r3, #32
 80067d0:	d008      	beq.n	80067e4 <UART_SetConfig+0x5d0>
 80067d2:	4b1c      	ldr	r3, [pc, #112]	; (8006844 <UART_SetConfig+0x630>)
 80067d4:	681b      	ldr	r3, [r3, #0]
 80067d6:	f3c3 03c1 	ubfx	r3, r3, #3, #2
 80067da:	481b      	ldr	r0, [pc, #108]	; (8006848 <UART_SetConfig+0x634>)
 80067dc:	40d8      	lsrs	r0, r3
 80067de:	e7be      	b.n	800675e <UART_SetConfig+0x54a>
 80067e0:	481a      	ldr	r0, [pc, #104]	; (800684c <UART_SetConfig+0x638>)
 80067e2:	e7bc      	b.n	800675e <UART_SetConfig+0x54a>
 80067e4:	4818      	ldr	r0, [pc, #96]	; (8006848 <UART_SetConfig+0x634>)
 80067e6:	e7ba      	b.n	800675e <UART_SetConfig+0x54a>
 80067e8:	2001      	movs	r0, #1
 80067ea:	e7cf      	b.n	800678c <UART_SetConfig+0x578>
 80067ec:	2001      	movs	r0, #1
 80067ee:	e7cd      	b.n	800678c <UART_SetConfig+0x578>
 80067f0:	2001      	movs	r0, #1
 80067f2:	e7cb      	b.n	800678c <UART_SetConfig+0x578>
 80067f4:	2001      	movs	r0, #1
 80067f6:	e7c9      	b.n	800678c <UART_SetConfig+0x578>
 80067f8:	2001      	movs	r0, #1
 80067fa:	e7c7      	b.n	800678c <UART_SetConfig+0x578>
 80067fc:	2001      	movs	r0, #1
 80067fe:	e7c5      	b.n	800678c <UART_SetConfig+0x578>
 8006800:	2001      	movs	r0, #1
 8006802:	e7c3      	b.n	800678c <UART_SetConfig+0x578>
 8006804:	2001      	movs	r0, #1
 8006806:	e7c1      	b.n	800678c <UART_SetConfig+0x578>
 8006808:	2001      	movs	r0, #1
 800680a:	e7bf      	b.n	800678c <UART_SetConfig+0x578>
 800680c:	2001      	movs	r0, #1
 800680e:	e7bd      	b.n	800678c <UART_SetConfig+0x578>
 8006810:	2304      	movs	r3, #4
 8006812:	e584      	b.n	800631e <UART_SetConfig+0x10a>
 8006814:	2310      	movs	r3, #16
 8006816:	e582      	b.n	800631e <UART_SetConfig+0x10a>
 8006818:	2304      	movs	r3, #4
 800681a:	e580      	b.n	800631e <UART_SetConfig+0x10a>
 800681c:	2304      	movs	r3, #4
 800681e:	e57e      	b.n	800631e <UART_SetConfig+0x10a>
 8006820:	2304      	movs	r3, #4
 8006822:	e57c      	b.n	800631e <UART_SetConfig+0x10a>
 8006824:	2304      	movs	r3, #4
 8006826:	e57a      	b.n	800631e <UART_SetConfig+0x10a>
 8006828:	2304      	movs	r3, #4
 800682a:	e578      	b.n	800631e <UART_SetConfig+0x10a>
 800682c:	2304      	movs	r3, #4
 800682e:	e576      	b.n	800631e <UART_SetConfig+0x10a>
 8006830:	2304      	movs	r3, #4
 8006832:	e574      	b.n	800631e <UART_SetConfig+0x10a>
 8006834:	69e2      	ldr	r2, [r4, #28]
 8006836:	f5b2 4f00 	cmp.w	r2, #32768	; 0x8000
 800683a:	f47f ad75 	bne.w	8006328 <UART_SetConfig+0x114>
 800683e:	e72f      	b.n	80066a0 <UART_SetConfig+0x48c>
 8006840:	08006c74 	.word	0x08006c74
 8006844:	58024400 	.word	0x58024400
 8006848:	03d09000 	.word	0x03d09000
 800684c:	003d0900 	.word	0x003d0900

08006850 <UART_AdvFeatureConfig>:
 8006850:	6a83      	ldr	r3, [r0, #40]	; 0x28
 8006852:	f013 0f01 	tst.w	r3, #1
 8006856:	d006      	beq.n	8006866 <UART_AdvFeatureConfig+0x16>
 8006858:	6802      	ldr	r2, [r0, #0]
 800685a:	6853      	ldr	r3, [r2, #4]
 800685c:	f423 3300 	bic.w	r3, r3, #131072	; 0x20000
 8006860:	6ac1      	ldr	r1, [r0, #44]	; 0x2c
 8006862:	430b      	orrs	r3, r1
 8006864:	6053      	str	r3, [r2, #4]
 8006866:	6a83      	ldr	r3, [r0, #40]	; 0x28
 8006868:	f013 0f02 	tst.w	r3, #2
 800686c:	d006      	beq.n	800687c <UART_AdvFeatureConfig+0x2c>
 800686e:	6802      	ldr	r2, [r0, #0]
 8006870:	6853      	ldr	r3, [r2, #4]
 8006872:	f423 3380 	bic.w	r3, r3, #65536	; 0x10000
 8006876:	6b01      	ldr	r1, [r0, #48]	; 0x30
 8006878:	430b      	orrs	r3, r1
 800687a:	6053      	str	r3, [r2, #4]
 800687c:	6a83      	ldr	r3, [r0, #40]	; 0x28
 800687e:	f013 0f04 	tst.w	r3, #4
 8006882:	d006      	beq.n	8006892 <UART_AdvFeatureConfig+0x42>
 8006884:	6802      	ldr	r2, [r0, #0]
 8006886:	6853      	ldr	r3, [r2, #4]
 8006888:	f423 2380 	bic.w	r3, r3, #262144	; 0x40000
 800688c:	6b41      	ldr	r1, [r0, #52]	; 0x34
 800688e:	430b      	orrs	r3, r1
 8006890:	6053      	str	r3, [r2, #4]
 8006892:	6a83      	ldr	r3, [r0, #40]	; 0x28
 8006894:	f013 0f08 	tst.w	r3, #8
 8006898:	d006      	beq.n	80068a8 <UART_AdvFeatureConfig+0x58>
 800689a:	6802      	ldr	r2, [r0, #0]
 800689c:	6853      	ldr	r3, [r2, #4]
 800689e:	f423 4300 	bic.w	r3, r3, #32768	; 0x8000
 80068a2:	6b81      	ldr	r1, [r0, #56]	; 0x38
 80068a4:	430b      	orrs	r3, r1
 80068a6:	6053      	str	r3, [r2, #4]
 80068a8:	6a83      	ldr	r3, [r0, #40]	; 0x28
 80068aa:	f013 0f10 	tst.w	r3, #16
 80068ae:	d006      	beq.n	80068be <UART_AdvFeatureConfig+0x6e>
 80068b0:	6802      	ldr	r2, [r0, #0]
 80068b2:	6893      	ldr	r3, [r2, #8]
 80068b4:	f423 5380 	bic.w	r3, r3, #4096	; 0x1000
 80068b8:	6bc1      	ldr	r1, [r0, #60]	; 0x3c
 80068ba:	430b      	orrs	r3, r1
 80068bc:	6093      	str	r3, [r2, #8]
 80068be:	6a83      	ldr	r3, [r0, #40]	; 0x28
 80068c0:	f013 0f20 	tst.w	r3, #32
 80068c4:	d006      	beq.n	80068d4 <UART_AdvFeatureConfig+0x84>
 80068c6:	6802      	ldr	r2, [r0, #0]
 80068c8:	6893      	ldr	r3, [r2, #8]
 80068ca:	f423 5300 	bic.w	r3, r3, #8192	; 0x2000
 80068ce:	6c01      	ldr	r1, [r0, #64]	; 0x40
 80068d0:	430b      	orrs	r3, r1
 80068d2:	6093      	str	r3, [r2, #8]
 80068d4:	6a83      	ldr	r3, [r0, #40]	; 0x28
 80068d6:	f013 0f40 	tst.w	r3, #64	; 0x40
 80068da:	d00a      	beq.n	80068f2 <UART_AdvFeatureConfig+0xa2>
 80068dc:	6802      	ldr	r2, [r0, #0]
 80068de:	6853      	ldr	r3, [r2, #4]
 80068e0:	f423 1380 	bic.w	r3, r3, #1048576	; 0x100000
 80068e4:	6c41      	ldr	r1, [r0, #68]	; 0x44
 80068e6:	430b      	orrs	r3, r1
 80068e8:	6053      	str	r3, [r2, #4]
 80068ea:	6c43      	ldr	r3, [r0, #68]	; 0x44
 80068ec:	f5b3 1f80 	cmp.w	r3, #1048576	; 0x100000
 80068f0:	d00b      	beq.n	800690a <UART_AdvFeatureConfig+0xba>
 80068f2:	6a83      	ldr	r3, [r0, #40]	; 0x28
 80068f4:	f013 0f80 	tst.w	r3, #128	; 0x80
 80068f8:	d006      	beq.n	8006908 <UART_AdvFeatureConfig+0xb8>
 80068fa:	6802      	ldr	r2, [r0, #0]
 80068fc:	6853      	ldr	r3, [r2, #4]
 80068fe:	f423 2300 	bic.w	r3, r3, #524288	; 0x80000
 8006902:	6cc1      	ldr	r1, [r0, #76]	; 0x4c
 8006904:	430b      	orrs	r3, r1
 8006906:	6053      	str	r3, [r2, #4]
 8006908:	4770      	bx	lr
 800690a:	6802      	ldr	r2, [r0, #0]
 800690c:	6853      	ldr	r3, [r2, #4]
 800690e:	f423 03c0 	bic.w	r3, r3, #6291456	; 0x600000
 8006912:	6c81      	ldr	r1, [r0, #72]	; 0x48
 8006914:	430b      	orrs	r3, r1
 8006916:	6053      	str	r3, [r2, #4]
 8006918:	e7eb      	b.n	80068f2 <UART_AdvFeatureConfig+0xa2>

0800691a <UART_WaitOnFlagUntilTimeout>:
 800691a:	e92d 43f8 	stmdb	sp!, {r3, r4, r5, r6, r7, r8, r9, lr}
 800691e:	4680      	mov	r8, r0
 8006920:	460e      	mov	r6, r1
 8006922:	4615      	mov	r5, r2
 8006924:	4699      	mov	r9, r3
 8006926:	9f08      	ldr	r7, [sp, #32]
 8006928:	f8d8 2000 	ldr.w	r2, [r8]
 800692c:	69d4      	ldr	r4, [r2, #28]
 800692e:	ea36 0304 	bics.w	r3, r6, r4
 8006932:	bf0c      	ite	eq
 8006934:	2401      	moveq	r4, #1
 8006936:	2400      	movne	r4, #0
 8006938:	42ac      	cmp	r4, r5
 800693a:	d144      	bne.n	80069c6 <UART_WaitOnFlagUntilTimeout+0xac>
 800693c:	f1b7 3fff 	cmp.w	r7, #4294967295
 8006940:	d0f4      	beq.n	800692c <UART_WaitOnFlagUntilTimeout+0x12>
 8006942:	f7fa ffe1 	bl	8001908 <HAL_GetTick>
 8006946:	eba0 0009 	sub.w	r0, r0, r9
 800694a:	42b8      	cmp	r0, r7
 800694c:	d825      	bhi.n	800699a <UART_WaitOnFlagUntilTimeout+0x80>
 800694e:	b327      	cbz	r7, 800699a <UART_WaitOnFlagUntilTimeout+0x80>
 8006950:	f8d8 3000 	ldr.w	r3, [r8]
 8006954:	681a      	ldr	r2, [r3, #0]
 8006956:	f012 0f04 	tst.w	r2, #4
 800695a:	d0e5      	beq.n	8006928 <UART_WaitOnFlagUntilTimeout+0xe>
 800695c:	69da      	ldr	r2, [r3, #28]
 800695e:	f412 6f00 	tst.w	r2, #2048	; 0x800
 8006962:	d0e1      	beq.n	8006928 <UART_WaitOnFlagUntilTimeout+0xe>
 8006964:	f44f 6200 	mov.w	r2, #2048	; 0x800
 8006968:	621a      	str	r2, [r3, #32]
 800696a:	f8d8 2000 	ldr.w	r2, [r8]
 800696e:	6813      	ldr	r3, [r2, #0]
 8006970:	f423 73d0 	bic.w	r3, r3, #416	; 0x1a0
 8006974:	6013      	str	r3, [r2, #0]
 8006976:	f8d8 2000 	ldr.w	r2, [r8]
 800697a:	6893      	ldr	r3, [r2, #8]
 800697c:	f023 0301 	bic.w	r3, r3, #1
 8006980:	6093      	str	r3, [r2, #8]
 8006982:	2320      	movs	r3, #32
 8006984:	f8c8 3084 	str.w	r3, [r8, #132]	; 0x84
 8006988:	f8c8 3088 	str.w	r3, [r8, #136]	; 0x88
 800698c:	f8c8 308c 	str.w	r3, [r8, #140]	; 0x8c
 8006990:	2300      	movs	r3, #0
 8006992:	f888 3080 	strb.w	r3, [r8, #128]	; 0x80
 8006996:	2003      	movs	r0, #3
 8006998:	e016      	b.n	80069c8 <UART_WaitOnFlagUntilTimeout+0xae>
 800699a:	f8d8 2000 	ldr.w	r2, [r8]
 800699e:	6813      	ldr	r3, [r2, #0]
 80069a0:	f423 73d0 	bic.w	r3, r3, #416	; 0x1a0
 80069a4:	6013      	str	r3, [r2, #0]
 80069a6:	f8d8 2000 	ldr.w	r2, [r8]
 80069aa:	6893      	ldr	r3, [r2, #8]
 80069ac:	f023 0301 	bic.w	r3, r3, #1
 80069b0:	6093      	str	r3, [r2, #8]
 80069b2:	2320      	movs	r3, #32
 80069b4:	f8c8 3084 	str.w	r3, [r8, #132]	; 0x84
 80069b8:	f8c8 3088 	str.w	r3, [r8, #136]	; 0x88
 80069bc:	2300      	movs	r3, #0
 80069be:	f888 3080 	strb.w	r3, [r8, #128]	; 0x80
 80069c2:	2003      	movs	r0, #3
 80069c4:	e000      	b.n	80069c8 <UART_WaitOnFlagUntilTimeout+0xae>
 80069c6:	2000      	movs	r0, #0
 80069c8:	e8bd 83f8 	ldmia.w	sp!, {r3, r4, r5, r6, r7, r8, r9, pc}

080069cc <UART_CheckIdleState>:
 80069cc:	b530      	push	{r4, r5, lr}
 80069ce:	b083      	sub	sp, #12
 80069d0:	4604      	mov	r4, r0
 80069d2:	2300      	movs	r3, #0
 80069d4:	f8c0 308c 	str.w	r3, [r0, #140]	; 0x8c
 80069d8:	f7fa ff96 	bl	8001908 <HAL_GetTick>
 80069dc:	4605      	mov	r5, r0
 80069de:	6823      	ldr	r3, [r4, #0]
 80069e0:	681b      	ldr	r3, [r3, #0]
 80069e2:	f013 0f08 	tst.w	r3, #8
 80069e6:	d10f      	bne.n	8006a08 <UART_CheckIdleState+0x3c>
 80069e8:	6823      	ldr	r3, [r4, #0]
 80069ea:	681b      	ldr	r3, [r3, #0]
 80069ec:	f013 0f04 	tst.w	r3, #4
 80069f0:	d118      	bne.n	8006a24 <UART_CheckIdleState+0x58>
 80069f2:	2320      	movs	r3, #32
 80069f4:	f8c4 3084 	str.w	r3, [r4, #132]	; 0x84
 80069f8:	f8c4 3088 	str.w	r3, [r4, #136]	; 0x88
 80069fc:	2000      	movs	r0, #0
 80069fe:	66e0      	str	r0, [r4, #108]	; 0x6c
 8006a00:	f884 0080 	strb.w	r0, [r4, #128]	; 0x80
 8006a04:	b003      	add	sp, #12
 8006a06:	bd30      	pop	{r4, r5, pc}
 8006a08:	f06f 437e 	mvn.w	r3, #4261412864	; 0xfe000000
 8006a0c:	9300      	str	r3, [sp, #0]
 8006a0e:	4603      	mov	r3, r0
 8006a10:	2200      	movs	r2, #0
 8006a12:	f44f 1100 	mov.w	r1, #2097152	; 0x200000
 8006a16:	4620      	mov	r0, r4
 8006a18:	f7ff ff7f 	bl	800691a <UART_WaitOnFlagUntilTimeout>
 8006a1c:	2800      	cmp	r0, #0
 8006a1e:	d0e3      	beq.n	80069e8 <UART_CheckIdleState+0x1c>
 8006a20:	2003      	movs	r0, #3
 8006a22:	e7ef      	b.n	8006a04 <UART_CheckIdleState+0x38>
 8006a24:	f06f 437e 	mvn.w	r3, #4261412864	; 0xfe000000
 8006a28:	9300      	str	r3, [sp, #0]
 8006a2a:	462b      	mov	r3, r5
 8006a2c:	2200      	movs	r2, #0
 8006a2e:	f44f 0180 	mov.w	r1, #4194304	; 0x400000
 8006a32:	4620      	mov	r0, r4
 8006a34:	f7ff ff71 	bl	800691a <UART_WaitOnFlagUntilTimeout>
 8006a38:	2800      	cmp	r0, #0
 8006a3a:	d0da      	beq.n	80069f2 <UART_CheckIdleState+0x26>
 8006a3c:	2003      	movs	r0, #3
 8006a3e:	e7e1      	b.n	8006a04 <UART_CheckIdleState+0x38>

08006a40 <HAL_UART_Init>:
 8006a40:	b378      	cbz	r0, 8006aa2 <HAL_UART_Init+0x62>
 8006a42:	b510      	push	{r4, lr}
 8006a44:	4604      	mov	r4, r0
 8006a46:	f8d0 3084 	ldr.w	r3, [r0, #132]	; 0x84
 8006a4a:	b30b      	cbz	r3, 8006a90 <HAL_UART_Init+0x50>
 8006a4c:	2324      	movs	r3, #36	; 0x24
 8006a4e:	f8c4 3084 	str.w	r3, [r4, #132]	; 0x84
 8006a52:	6822      	ldr	r2, [r4, #0]
 8006a54:	6813      	ldr	r3, [r2, #0]
 8006a56:	f023 0301 	bic.w	r3, r3, #1
 8006a5a:	6013      	str	r3, [r2, #0]
 8006a5c:	4620      	mov	r0, r4
 8006a5e:	f7ff fbd9 	bl	8006214 <UART_SetConfig>
 8006a62:	2801      	cmp	r0, #1
 8006a64:	d013      	beq.n	8006a8e <HAL_UART_Init+0x4e>
 8006a66:	6aa3      	ldr	r3, [r4, #40]	; 0x28
 8006a68:	b9bb      	cbnz	r3, 8006a9a <HAL_UART_Init+0x5a>
 8006a6a:	6822      	ldr	r2, [r4, #0]
 8006a6c:	6853      	ldr	r3, [r2, #4]
 8006a6e:	f423 4390 	bic.w	r3, r3, #18432	; 0x4800
 8006a72:	6053      	str	r3, [r2, #4]
 8006a74:	6822      	ldr	r2, [r4, #0]
 8006a76:	6893      	ldr	r3, [r2, #8]
 8006a78:	f023 032a 	bic.w	r3, r3, #42	; 0x2a
 8006a7c:	6093      	str	r3, [r2, #8]
 8006a7e:	6822      	ldr	r2, [r4, #0]
 8006a80:	6813      	ldr	r3, [r2, #0]
 8006a82:	f043 0301 	orr.w	r3, r3, #1
 8006a86:	6013      	str	r3, [r2, #0]
 8006a88:	4620      	mov	r0, r4
 8006a8a:	f7ff ff9f 	bl	80069cc <UART_CheckIdleState>
 8006a8e:	bd10      	pop	{r4, pc}
 8006a90:	f880 3080 	strb.w	r3, [r0, #128]	; 0x80
 8006a94:	f7fa fc0c 	bl	80012b0 <HAL_UART_MspInit>
 8006a98:	e7d8      	b.n	8006a4c <HAL_UART_Init+0xc>
 8006a9a:	4620      	mov	r0, r4
 8006a9c:	f7ff fed8 	bl	8006850 <UART_AdvFeatureConfig>
 8006aa0:	e7e3      	b.n	8006a6a <HAL_UART_Init+0x2a>
 8006aa2:	2001      	movs	r0, #1
 8006aa4:	4770      	bx	lr
	...

08006aa8 <UARTEx_SetNbDataToProcess>:
 8006aa8:	6e43      	ldr	r3, [r0, #100]	; 0x64
 8006aaa:	b92b      	cbnz	r3, 8006ab8 <UARTEx_SetNbDataToProcess+0x10>
 8006aac:	2301      	movs	r3, #1
 8006aae:	f8a0 306a 	strh.w	r3, [r0, #106]	; 0x6a
 8006ab2:	f8a0 3068 	strh.w	r3, [r0, #104]	; 0x68
 8006ab6:	4770      	bx	lr
 8006ab8:	b430      	push	{r4, r5}
 8006aba:	6803      	ldr	r3, [r0, #0]
 8006abc:	689a      	ldr	r2, [r3, #8]
 8006abe:	6899      	ldr	r1, [r3, #8]
 8006ac0:	0f49      	lsrs	r1, r1, #29
 8006ac2:	4d0a      	ldr	r5, [pc, #40]	; (8006aec <UARTEx_SetNbDataToProcess+0x44>)
 8006ac4:	5c6b      	ldrb	r3, [r5, r1]
 8006ac6:	011b      	lsls	r3, r3, #4
 8006ac8:	4c09      	ldr	r4, [pc, #36]	; (8006af0 <UARTEx_SetNbDataToProcess+0x48>)
 8006aca:	5c61      	ldrb	r1, [r4, r1]
 8006acc:	fb93 f3f1 	sdiv	r3, r3, r1
 8006ad0:	f8a0 306a 	strh.w	r3, [r0, #106]	; 0x6a
 8006ad4:	f3c2 6242 	ubfx	r2, r2, #25, #3
 8006ad8:	5cab      	ldrb	r3, [r5, r2]
 8006ada:	011b      	lsls	r3, r3, #4
 8006adc:	5ca2      	ldrb	r2, [r4, r2]
 8006ade:	fb93 f3f2 	sdiv	r3, r3, r2
 8006ae2:	f8a0 3068 	strh.w	r3, [r0, #104]	; 0x68
 8006ae6:	bc30      	pop	{r4, r5}
 8006ae8:	4770      	bx	lr
 8006aea:	bf00      	nop
 8006aec:	08006c94 	.word	0x08006c94
 8006af0:	08006c8c 	.word	0x08006c8c

08006af4 <HAL_UARTEx_WakeupCallback>:
 8006af4:	4770      	bx	lr

08006af6 <HAL_UARTEx_RxFifoFullCallback>:
 8006af6:	4770      	bx	lr

08006af8 <HAL_UARTEx_TxFifoEmptyCallback>:
 8006af8:	4770      	bx	lr

08006afa <HAL_UARTEx_EnableFifoMode>:
 8006afa:	f890 3080 	ldrb.w	r3, [r0, #128]	; 0x80
 8006afe:	2b01      	cmp	r3, #1
 8006b00:	d01d      	beq.n	8006b3e <HAL_UARTEx_EnableFifoMode+0x44>
 8006b02:	b510      	push	{r4, lr}
 8006b04:	4604      	mov	r4, r0
 8006b06:	2301      	movs	r3, #1
 8006b08:	f880 3080 	strb.w	r3, [r0, #128]	; 0x80
 8006b0c:	2324      	movs	r3, #36	; 0x24
 8006b0e:	f8c0 3084 	str.w	r3, [r0, #132]	; 0x84
 8006b12:	6802      	ldr	r2, [r0, #0]
 8006b14:	6813      	ldr	r3, [r2, #0]
 8006b16:	6811      	ldr	r1, [r2, #0]
 8006b18:	f021 0101 	bic.w	r1, r1, #1
 8006b1c:	6011      	str	r1, [r2, #0]
 8006b1e:	f043 5300 	orr.w	r3, r3, #536870912	; 0x20000000
 8006b22:	f04f 5200 	mov.w	r2, #536870912	; 0x20000000
 8006b26:	6642      	str	r2, [r0, #100]	; 0x64
 8006b28:	6802      	ldr	r2, [r0, #0]
 8006b2a:	6013      	str	r3, [r2, #0]
 8006b2c:	f7ff ffbc 	bl	8006aa8 <UARTEx_SetNbDataToProcess>
 8006b30:	2320      	movs	r3, #32
 8006b32:	f8c4 3084 	str.w	r3, [r4, #132]	; 0x84
 8006b36:	2000      	movs	r0, #0
 8006b38:	f884 0080 	strb.w	r0, [r4, #128]	; 0x80
 8006b3c:	bd10      	pop	{r4, pc}
 8006b3e:	2002      	movs	r0, #2
 8006b40:	4770      	bx	lr

08006b42 <HAL_UARTEx_SetTxFifoThreshold>:
 8006b42:	b538      	push	{r3, r4, r5, lr}
 8006b44:	f890 3080 	ldrb.w	r3, [r0, #128]	; 0x80
 8006b48:	2b01      	cmp	r3, #1
 8006b4a:	d01d      	beq.n	8006b88 <HAL_UARTEx_SetTxFifoThreshold+0x46>
 8006b4c:	4604      	mov	r4, r0
 8006b4e:	2301      	movs	r3, #1
 8006b50:	f880 3080 	strb.w	r3, [r0, #128]	; 0x80
 8006b54:	2324      	movs	r3, #36	; 0x24
 8006b56:	f8c0 3084 	str.w	r3, [r0, #132]	; 0x84
 8006b5a:	6803      	ldr	r3, [r0, #0]
 8006b5c:	681d      	ldr	r5, [r3, #0]
 8006b5e:	681a      	ldr	r2, [r3, #0]
 8006b60:	f022 0201 	bic.w	r2, r2, #1
 8006b64:	601a      	str	r2, [r3, #0]
 8006b66:	6802      	ldr	r2, [r0, #0]
 8006b68:	6893      	ldr	r3, [r2, #8]
 8006b6a:	f023 4360 	bic.w	r3, r3, #3758096384	; 0xe0000000
 8006b6e:	4319      	orrs	r1, r3
 8006b70:	6091      	str	r1, [r2, #8]
 8006b72:	f7ff ff99 	bl	8006aa8 <UARTEx_SetNbDataToProcess>
 8006b76:	6823      	ldr	r3, [r4, #0]
 8006b78:	601d      	str	r5, [r3, #0]
 8006b7a:	2320      	movs	r3, #32
 8006b7c:	f8c4 3084 	str.w	r3, [r4, #132]	; 0x84
 8006b80:	2000      	movs	r0, #0
 8006b82:	f884 0080 	strb.w	r0, [r4, #128]	; 0x80
 8006b86:	bd38      	pop	{r3, r4, r5, pc}
 8006b88:	2002      	movs	r0, #2
 8006b8a:	e7fc      	b.n	8006b86 <HAL_UARTEx_SetTxFifoThreshold+0x44>

08006b8c <HAL_UARTEx_SetRxFifoThreshold>:
 8006b8c:	b538      	push	{r3, r4, r5, lr}
 8006b8e:	f890 3080 	ldrb.w	r3, [r0, #128]	; 0x80
 8006b92:	2b01      	cmp	r3, #1
 8006b94:	d01d      	beq.n	8006bd2 <HAL_UARTEx_SetRxFifoThreshold+0x46>
 8006b96:	4604      	mov	r4, r0
 8006b98:	2301      	movs	r3, #1
 8006b9a:	f880 3080 	strb.w	r3, [r0, #128]	; 0x80
 8006b9e:	2324      	movs	r3, #36	; 0x24
 8006ba0:	f8c0 3084 	str.w	r3, [r0, #132]	; 0x84
 8006ba4:	6803      	ldr	r3, [r0, #0]
 8006ba6:	681d      	ldr	r5, [r3, #0]
 8006ba8:	681a      	ldr	r2, [r3, #0]
 8006baa:	f022 0201 	bic.w	r2, r2, #1
 8006bae:	601a      	str	r2, [r3, #0]
 8006bb0:	6802      	ldr	r2, [r0, #0]
 8006bb2:	6893      	ldr	r3, [r2, #8]
 8006bb4:	f023 6360 	bic.w	r3, r3, #234881024	; 0xe000000
 8006bb8:	4319      	orrs	r1, r3
 8006bba:	6091      	str	r1, [r2, #8]
 8006bbc:	f7ff ff74 	bl	8006aa8 <UARTEx_SetNbDataToProcess>
 8006bc0:	6823      	ldr	r3, [r4, #0]
 8006bc2:	601d      	str	r5, [r3, #0]
 8006bc4:	2320      	movs	r3, #32
 8006bc6:	f8c4 3084 	str.w	r3, [r4, #132]	; 0x84
 8006bca:	2000      	movs	r0, #0
 8006bcc:	f884 0080 	strb.w	r0, [r4, #128]	; 0x80
 8006bd0:	bd38      	pop	{r3, r4, r5, pc}
 8006bd2:	2002      	movs	r0, #2
 8006bd4:	e7fc      	b.n	8006bd0 <HAL_UARTEx_SetRxFifoThreshold+0x44>
	...

08006bd8 <__libc_init_array>:
 8006bd8:	b570      	push	{r4, r5, r6, lr}
 8006bda:	4d0d      	ldr	r5, [pc, #52]	; (8006c10 <__libc_init_array+0x38>)
 8006bdc:	4c0d      	ldr	r4, [pc, #52]	; (8006c14 <__libc_init_array+0x3c>)
 8006bde:	1b64      	subs	r4, r4, r5
 8006be0:	10a4      	asrs	r4, r4, #2
 8006be2:	2600      	movs	r6, #0
 8006be4:	42a6      	cmp	r6, r4
 8006be6:	d109      	bne.n	8006bfc <__libc_init_array+0x24>
 8006be8:	4d0b      	ldr	r5, [pc, #44]	; (8006c18 <__libc_init_array+0x40>)
 8006bea:	4c0c      	ldr	r4, [pc, #48]	; (8006c1c <__libc_init_array+0x44>)
 8006bec:	f000 f820 	bl	8006c30 <_init>
 8006bf0:	1b64      	subs	r4, r4, r5
 8006bf2:	10a4      	asrs	r4, r4, #2
 8006bf4:	2600      	movs	r6, #0
 8006bf6:	42a6      	cmp	r6, r4
 8006bf8:	d105      	bne.n	8006c06 <__libc_init_array+0x2e>
 8006bfa:	bd70      	pop	{r4, r5, r6, pc}
 8006bfc:	f855 3b04 	ldr.w	r3, [r5], #4
 8006c00:	4798      	blx	r3
 8006c02:	3601      	adds	r6, #1
 8006c04:	e7ee      	b.n	8006be4 <__libc_init_array+0xc>
 8006c06:	f855 3b04 	ldr.w	r3, [r5], #4
 8006c0a:	4798      	blx	r3
 8006c0c:	3601      	adds	r6, #1
 8006c0e:	e7f2      	b.n	8006bf6 <__libc_init_array+0x1e>
 8006c10:	08006ca4 	.word	0x08006ca4
 8006c14:	08006ca4 	.word	0x08006ca4
 8006c18:	08006ca4 	.word	0x08006ca4
 8006c1c:	08006ca8 	.word	0x08006ca8

08006c20 <memset>:
 8006c20:	4402      	add	r2, r0
 8006c22:	4603      	mov	r3, r0
 8006c24:	4293      	cmp	r3, r2
 8006c26:	d100      	bne.n	8006c2a <memset+0xa>
 8006c28:	4770      	bx	lr
 8006c2a:	f803 1b01 	strb.w	r1, [r3], #1
 8006c2e:	e7f9      	b.n	8006c24 <memset+0x4>

08006c30 <_init>:
 8006c30:	b5f8      	push	{r3, r4, r5, r6, r7, lr}
 8006c32:	bf00      	nop
 8006c34:	bcf8      	pop	{r3, r4, r5, r6, r7}
 8006c36:	bc08      	pop	{r3}
 8006c38:	469e      	mov	lr, r3
 8006c3a:	4770      	bx	lr

08006c3c <_fini>:
 8006c3c:	b5f8      	push	{r3, r4, r5, r6, r7, lr}
 8006c3e:	bf00      	nop
 8006c40:	bcf8      	pop	{r3, r4, r5, r6, r7}
 8006c42:	bc08      	pop	{r3}
 8006c44:	469e      	mov	lr, r3
 8006c46:	4770      	bx	lr
