
AD4000.elf:     file format elf32-littlearm

Sections:
Idx Name          Size      VMA       LMA       File off  Algn
  0 .isr_vector   00000298  08000000  08000000  00010000  2**0
                  CONTENTS, ALLOC, LOAD, READONLY, DATA
  1 .text         000060c0  08000298  08000298  00010298  2**3
                  CONTENTS, ALLOC, LOAD, READONLY, CODE
  2 .rodata       00000090  08006358  08006358  00016358  2**2
                  CONTENTS, ALLOC, LOAD, READONLY, DATA
  3 .ARM          00000008  080063e8  080063e8  000163e8  2**2
                  CONTENTS, ALLOC, LOAD, READONLY, DATA
  4 .init_array   00000004  080063f0  080063f0  000163f0  2**2
                  CONTENTS, ALLOC, LOAD, DATA
  5 .fini_array   00000004  080063f4  080063f4  000163f4  2**2
                  CONTENTS, ALLOC, LOAD, DATA
  6 .data         00000010  24000000  080063f8  00020000  2**2
                  CONTENTS, ALLOC, LOAD, DATA
  7 .bss          0001a518  24000020  08006408  00020020  2**5
                  ALLOC
  8 ._user_heap_stack 00000600  2401a538  08006408  0002a538  2**0
                  ALLOC
  9 .ARM.attributes 0000002e  00000000  00000000  00020010  2**0
                  CONTENTS, READONLY
 10 .comment      00000053  00000000  00000000  0002003e  2**0
                  CONTENTS, READONLY
 11 .debug_frame  000000ac  00000000  00000000  00020094  2**2
                  CONTENTS, READONLY, DEBUGGING, OCTETS

Disassembly of section .text:

08000298 <__do_global_dtors_aux>:
 8000298:	b510      	push	{r4, lr}
 800029a:	4c05      	ldr	r4, [pc, #20]	; (80002b0 <__do_global_dtors_aux+0x18>)
 800029c:	7823      	ldrb	r3, [r4, #0]
 800029e:	b933      	cbnz	r3, 80002ae <__do_global_dtors_aux+0x16>
 80002a0:	4b04      	ldr	r3, [pc, #16]	; (80002b4 <__do_global_dtors_aux+0x1c>)
 80002a2:	b113      	cbz	r3, 80002aa <__do_global_dtors_aux+0x12>
 80002a4:	4804      	ldr	r0, [pc, #16]	; (80002b8 <__do_global_dtors_aux+0x20>)
 80002a6:	f3af 8000 	nop.w
 80002aa:	2301      	movs	r3, #1
 80002ac:	7023      	strb	r3, [r4, #0]
 80002ae:	bd10      	pop	{r4, pc}
 80002b0:	24000020 	.word	0x24000020
 80002b4:	00000000 	.word	0x00000000
 80002b8:	08006340 	.word	0x08006340

080002bc <frame_dummy>:
 80002bc:	b508      	push	{r3, lr}
 80002be:	4b03      	ldr	r3, [pc, #12]	; (80002cc <frame_dummy+0x10>)
 80002c0:	b11b      	cbz	r3, 80002ca <frame_dummy+0xe>
 80002c2:	4903      	ldr	r1, [pc, #12]	; (80002d0 <frame_dummy+0x14>)
 80002c4:	4803      	ldr	r0, [pc, #12]	; (80002d4 <frame_dummy+0x18>)
 80002c6:	f3af 8000 	nop.w
 80002ca:	bd08      	pop	{r3, pc}
 80002cc:	00000000 	.word	0x00000000
 80002d0:	24000024 	.word	0x24000024
 80002d4:	08006340 	.word	0x08006340

080002d8 <__aeabi_uldivmod>:
 80002d8:	b953      	cbnz	r3, 80002f0 <__aeabi_uldivmod+0x18>
 80002da:	b94a      	cbnz	r2, 80002f0 <__aeabi_uldivmod+0x18>
 80002dc:	2900      	cmp	r1, #0
 80002de:	bf08      	it	eq
 80002e0:	2800      	cmpeq	r0, #0
 80002e2:	bf1c      	itt	ne
 80002e4:	f04f 31ff 	movne.w	r1, #4294967295
 80002e8:	f04f 30ff 	movne.w	r0, #4294967295
 80002ec:	f000 b96e 	b.w	80005cc <__aeabi_idiv0>
 80002f0:	f1ad 0c08 	sub.w	ip, sp, #8
 80002f4:	e96d ce04 	strd	ip, lr, [sp, #-16]!
 80002f8:	f000 f806 	bl	8000308 <__udivmoddi4>
 80002fc:	f8dd e004 	ldr.w	lr, [sp, #4]
 8000300:	e9dd 2302 	ldrd	r2, r3, [sp, #8]
 8000304:	b004      	add	sp, #16
 8000306:	4770      	bx	lr

08000308 <__udivmoddi4>:
 8000308:	e92d 47f0 	stmdb	sp!, {r4, r5, r6, r7, r8, r9, sl, lr}
 800030c:	9d08      	ldr	r5, [sp, #32]
 800030e:	4604      	mov	r4, r0
 8000310:	468c      	mov	ip, r1
 8000312:	2b00      	cmp	r3, #0
 8000314:	f040 8083 	bne.w	800041e <__udivmoddi4+0x116>
 8000318:	428a      	cmp	r2, r1
 800031a:	4617      	mov	r7, r2
 800031c:	d947      	bls.n	80003ae <__udivmoddi4+0xa6>
 800031e:	fab2 f282 	clz	r2, r2
 8000322:	b142      	cbz	r2, 8000336 <__udivmoddi4+0x2e>
 8000324:	f1c2 0020 	rsb	r0, r2, #32
 8000328:	fa24 f000 	lsr.w	r0, r4, r0
 800032c:	4091      	lsls	r1, r2
 800032e:	4097      	lsls	r7, r2
 8000330:	ea40 0c01 	orr.w	ip, r0, r1
 8000334:	4094      	lsls	r4, r2
 8000336:	ea4f 4817 	mov.w	r8, r7, lsr #16
 800033a:	0c23      	lsrs	r3, r4, #16
 800033c:	fbbc f6f8 	udiv	r6, ip, r8
 8000340:	fa1f fe87 	uxth.w	lr, r7
 8000344:	fb08 c116 	mls	r1, r8, r6, ip
 8000348:	ea43 4301 	orr.w	r3, r3, r1, lsl #16
 800034c:	fb06 f10e 	mul.w	r1, r6, lr
 8000350:	4299      	cmp	r1, r3
 8000352:	d909      	bls.n	8000368 <__udivmoddi4+0x60>
 8000354:	18fb      	adds	r3, r7, r3
 8000356:	f106 30ff 	add.w	r0, r6, #4294967295
 800035a:	f080 8119 	bcs.w	8000590 <__udivmoddi4+0x288>
 800035e:	4299      	cmp	r1, r3
 8000360:	f240 8116 	bls.w	8000590 <__udivmoddi4+0x288>
 8000364:	3e02      	subs	r6, #2
 8000366:	443b      	add	r3, r7
 8000368:	1a5b      	subs	r3, r3, r1
 800036a:	b2a4      	uxth	r4, r4
 800036c:	fbb3 f0f8 	udiv	r0, r3, r8
 8000370:	fb08 3310 	mls	r3, r8, r0, r3
 8000374:	ea44 4403 	orr.w	r4, r4, r3, lsl #16
 8000378:	fb00 fe0e 	mul.w	lr, r0, lr
 800037c:	45a6      	cmp	lr, r4
 800037e:	d909      	bls.n	8000394 <__udivmoddi4+0x8c>
 8000380:	193c      	adds	r4, r7, r4
 8000382:	f100 33ff 	add.w	r3, r0, #4294967295
 8000386:	f080 8105 	bcs.w	8000594 <__udivmoddi4+0x28c>
 800038a:	45a6      	cmp	lr, r4
 800038c:	f240 8102 	bls.w	8000594 <__udivmoddi4+0x28c>
 8000390:	3802      	subs	r0, #2
 8000392:	443c      	add	r4, r7
 8000394:	ea40 4006 	orr.w	r0, r0, r6, lsl #16
 8000398:	eba4 040e 	sub.w	r4, r4, lr
 800039c:	2600      	movs	r6, #0
 800039e:	b11d      	cbz	r5, 80003a8 <__udivmoddi4+0xa0>
 80003a0:	40d4      	lsrs	r4, r2
 80003a2:	2300      	movs	r3, #0
 80003a4:	e9c5 4300 	strd	r4, r3, [r5]
 80003a8:	4631      	mov	r1, r6
 80003aa:	e8bd 87f0 	ldmia.w	sp!, {r4, r5, r6, r7, r8, r9, sl, pc}
 80003ae:	b902      	cbnz	r2, 80003b2 <__udivmoddi4+0xaa>
 80003b0:	deff      	udf	#255	; 0xff
 80003b2:	fab2 f282 	clz	r2, r2
 80003b6:	2a00      	cmp	r2, #0
 80003b8:	d150      	bne.n	800045c <__udivmoddi4+0x154>
 80003ba:	1bcb      	subs	r3, r1, r7
 80003bc:	ea4f 4e17 	mov.w	lr, r7, lsr #16
 80003c0:	fa1f f887 	uxth.w	r8, r7
 80003c4:	2601      	movs	r6, #1
 80003c6:	fbb3 fcfe 	udiv	ip, r3, lr
 80003ca:	0c21      	lsrs	r1, r4, #16
 80003cc:	fb0e 331c 	mls	r3, lr, ip, r3
 80003d0:	ea41 4103 	orr.w	r1, r1, r3, lsl #16
 80003d4:	fb08 f30c 	mul.w	r3, r8, ip
 80003d8:	428b      	cmp	r3, r1
 80003da:	d907      	bls.n	80003ec <__udivmoddi4+0xe4>
 80003dc:	1879      	adds	r1, r7, r1
 80003de:	f10c 30ff 	add.w	r0, ip, #4294967295
 80003e2:	d202      	bcs.n	80003ea <__udivmoddi4+0xe2>
 80003e4:	428b      	cmp	r3, r1
 80003e6:	f200 80e9 	bhi.w	80005bc <__udivmoddi4+0x2b4>
 80003ea:	4684      	mov	ip, r0
 80003ec:	1ac9      	subs	r1, r1, r3
 80003ee:	b2a3      	uxth	r3, r4
 80003f0:	fbb1 f0fe 	udiv	r0, r1, lr
 80003f4:	fb0e 1110 	mls	r1, lr, r0, r1
 80003f8:	ea43 4401 	orr.w	r4, r3, r1, lsl #16
 80003fc:	fb08 f800 	mul.w	r8, r8, r0
 8000400:	45a0      	cmp	r8, r4
 8000402:	d907      	bls.n	8000414 <__udivmoddi4+0x10c>
 8000404:	193c      	adds	r4, r7, r4
 8000406:	f100 33ff 	add.w	r3, r0, #4294967295
 800040a:	d202      	bcs.n	8000412 <__udivmoddi4+0x10a>
 800040c:	45a0      	cmp	r8, r4
 800040e:	f200 80d9 	bhi.w	80005c4 <__udivmoddi4+0x2bc>
 8000412:	4618      	mov	r0, r3
 8000414:	eba4 0408 	sub.w	r4, r4, r8
 8000418:	ea40 400c 	orr.w	r0, r0, ip, lsl #16
 800041c:	e7bf      	b.n	800039e <__udivmoddi4+0x96>
 800041e:	428b      	cmp	r3, r1
 8000420:	d909      	bls.n	8000436 <__udivmoddi4+0x12e>
 8000422:	2d00      	cmp	r5, #0
 8000424:	f000 80b1 	beq.w	800058a <__udivmoddi4+0x282>
 8000428:	2600      	movs	r6, #0
 800042a:	e9c5 0100 	strd	r0, r1, [r5]
 800042e:	4630      	mov	r0, r6
 8000430:	4631      	mov	r1, r6
 8000432:	e8bd 87f0 	ldmia.w	sp!, {r4, r5, r6, r7, r8, r9, sl, pc}
 8000436:	fab3 f683 	clz	r6, r3
 800043a:	2e00      	cmp	r6, #0
 800043c:	d14a      	bne.n	80004d4 <__udivmoddi4+0x1cc>
 800043e:	428b      	cmp	r3, r1
 8000440:	d302      	bcc.n	8000448 <__udivmoddi4+0x140>
 8000442:	4282      	cmp	r2, r0
 8000444:	f200 80b8 	bhi.w	80005b8 <__udivmoddi4+0x2b0>
 8000448:	1a84      	subs	r4, r0, r2
 800044a:	eb61 0103 	sbc.w	r1, r1, r3
 800044e:	2001      	movs	r0, #1
 8000450:	468c      	mov	ip, r1
 8000452:	2d00      	cmp	r5, #0
 8000454:	d0a8      	beq.n	80003a8 <__udivmoddi4+0xa0>
 8000456:	e9c5 4c00 	strd	r4, ip, [r5]
 800045a:	e7a5      	b.n	80003a8 <__udivmoddi4+0xa0>
 800045c:	f1c2 0320 	rsb	r3, r2, #32
 8000460:	fa20 f603 	lsr.w	r6, r0, r3
 8000464:	4097      	lsls	r7, r2
 8000466:	fa01 f002 	lsl.w	r0, r1, r2
 800046a:	ea4f 4e17 	mov.w	lr, r7, lsr #16
 800046e:	40d9      	lsrs	r1, r3
 8000470:	4330      	orrs	r0, r6
 8000472:	0c03      	lsrs	r3, r0, #16
 8000474:	fbb1 f6fe 	udiv	r6, r1, lr
 8000478:	fa1f f887 	uxth.w	r8, r7
 800047c:	fb0e 1116 	mls	r1, lr, r6, r1
 8000480:	ea43 4301 	orr.w	r3, r3, r1, lsl #16
 8000484:	fb06 f108 	mul.w	r1, r6, r8
 8000488:	4299      	cmp	r1, r3
 800048a:	fa04 f402 	lsl.w	r4, r4, r2
 800048e:	d909      	bls.n	80004a4 <__udivmoddi4+0x19c>
 8000490:	18fb      	adds	r3, r7, r3
 8000492:	f106 3cff 	add.w	ip, r6, #4294967295
 8000496:	f080 808d 	bcs.w	80005b4 <__udivmoddi4+0x2ac>
 800049a:	4299      	cmp	r1, r3
 800049c:	f240 808a 	bls.w	80005b4 <__udivmoddi4+0x2ac>
 80004a0:	3e02      	subs	r6, #2
 80004a2:	443b      	add	r3, r7
 80004a4:	1a5b      	subs	r3, r3, r1
 80004a6:	b281      	uxth	r1, r0
 80004a8:	fbb3 f0fe 	udiv	r0, r3, lr
 80004ac:	fb0e 3310 	mls	r3, lr, r0, r3
 80004b0:	ea41 4103 	orr.w	r1, r1, r3, lsl #16
 80004b4:	fb00 f308 	mul.w	r3, r0, r8
 80004b8:	428b      	cmp	r3, r1
 80004ba:	d907      	bls.n	80004cc <__udivmoddi4+0x1c4>
 80004bc:	1879      	adds	r1, r7, r1
 80004be:	f100 3cff 	add.w	ip, r0, #4294967295
 80004c2:	d273      	bcs.n	80005ac <__udivmoddi4+0x2a4>
 80004c4:	428b      	cmp	r3, r1
 80004c6:	d971      	bls.n	80005ac <__udivmoddi4+0x2a4>
 80004c8:	3802      	subs	r0, #2
 80004ca:	4439      	add	r1, r7
 80004cc:	1acb      	subs	r3, r1, r3
 80004ce:	ea40 4606 	orr.w	r6, r0, r6, lsl #16
 80004d2:	e778      	b.n	80003c6 <__udivmoddi4+0xbe>
 80004d4:	f1c6 0c20 	rsb	ip, r6, #32
 80004d8:	fa03 f406 	lsl.w	r4, r3, r6
 80004dc:	fa22 f30c 	lsr.w	r3, r2, ip
 80004e0:	431c      	orrs	r4, r3
 80004e2:	fa20 f70c 	lsr.w	r7, r0, ip
 80004e6:	fa01 f306 	lsl.w	r3, r1, r6
 80004ea:	ea4f 4e14 	mov.w	lr, r4, lsr #16
 80004ee:	fa21 f10c 	lsr.w	r1, r1, ip
 80004f2:	431f      	orrs	r7, r3
 80004f4:	0c3b      	lsrs	r3, r7, #16
 80004f6:	fbb1 f9fe 	udiv	r9, r1, lr
 80004fa:	fa1f f884 	uxth.w	r8, r4
 80004fe:	fb0e 1119 	mls	r1, lr, r9, r1
 8000502:	ea43 4101 	orr.w	r1, r3, r1, lsl #16
 8000506:	fb09 fa08 	mul.w	sl, r9, r8
 800050a:	458a      	cmp	sl, r1
 800050c:	fa02 f206 	lsl.w	r2, r2, r6
 8000510:	fa00 f306 	lsl.w	r3, r0, r6
 8000514:	d908      	bls.n	8000528 <__udivmoddi4+0x220>
 8000516:	1861      	adds	r1, r4, r1
 8000518:	f109 30ff 	add.w	r0, r9, #4294967295
 800051c:	d248      	bcs.n	80005b0 <__udivmoddi4+0x2a8>
 800051e:	458a      	cmp	sl, r1
 8000520:	d946      	bls.n	80005b0 <__udivmoddi4+0x2a8>
 8000522:	f1a9 0902 	sub.w	r9, r9, #2
 8000526:	4421      	add	r1, r4
 8000528:	eba1 010a 	sub.w	r1, r1, sl
 800052c:	b2bf      	uxth	r7, r7
 800052e:	fbb1 f0fe 	udiv	r0, r1, lr
 8000532:	fb0e 1110 	mls	r1, lr, r0, r1
 8000536:	ea47 4701 	orr.w	r7, r7, r1, lsl #16
 800053a:	fb00 f808 	mul.w	r8, r0, r8
 800053e:	45b8      	cmp	r8, r7
 8000540:	d907      	bls.n	8000552 <__udivmoddi4+0x24a>
 8000542:	19e7      	adds	r7, r4, r7
 8000544:	f100 31ff 	add.w	r1, r0, #4294967295
 8000548:	d22e      	bcs.n	80005a8 <__udivmoddi4+0x2a0>
 800054a:	45b8      	cmp	r8, r7
 800054c:	d92c      	bls.n	80005a8 <__udivmoddi4+0x2a0>
 800054e:	3802      	subs	r0, #2
 8000550:	4427      	add	r7, r4
 8000552:	ea40 4009 	orr.w	r0, r0, r9, lsl #16
 8000556:	eba7 0708 	sub.w	r7, r7, r8
 800055a:	fba0 8902 	umull	r8, r9, r0, r2
 800055e:	454f      	cmp	r7, r9
 8000560:	46c6      	mov	lr, r8
 8000562:	4649      	mov	r1, r9
 8000564:	d31a      	bcc.n	800059c <__udivmoddi4+0x294>
 8000566:	d017      	beq.n	8000598 <__udivmoddi4+0x290>
 8000568:	b15d      	cbz	r5, 8000582 <__udivmoddi4+0x27a>
 800056a:	ebb3 020e 	subs.w	r2, r3, lr
 800056e:	eb67 0701 	sbc.w	r7, r7, r1
 8000572:	fa07 fc0c 	lsl.w	ip, r7, ip
 8000576:	40f2      	lsrs	r2, r6
 8000578:	ea4c 0202 	orr.w	r2, ip, r2
 800057c:	40f7      	lsrs	r7, r6
 800057e:	e9c5 2700 	strd	r2, r7, [r5]
 8000582:	2600      	movs	r6, #0
 8000584:	4631      	mov	r1, r6
 8000586:	e8bd 87f0 	ldmia.w	sp!, {r4, r5, r6, r7, r8, r9, sl, pc}
 800058a:	462e      	mov	r6, r5
 800058c:	4628      	mov	r0, r5
 800058e:	e70b      	b.n	80003a8 <__udivmoddi4+0xa0>
 8000590:	4606      	mov	r6, r0
 8000592:	e6e9      	b.n	8000368 <__udivmoddi4+0x60>
 8000594:	4618      	mov	r0, r3
 8000596:	e6fd      	b.n	8000394 <__udivmoddi4+0x8c>
 8000598:	4543      	cmp	r3, r8
 800059a:	d2e5      	bcs.n	8000568 <__udivmoddi4+0x260>
 800059c:	ebb8 0e02 	subs.w	lr, r8, r2
 80005a0:	eb69 0104 	sbc.w	r1, r9, r4
 80005a4:	3801      	subs	r0, #1
 80005a6:	e7df      	b.n	8000568 <__udivmoddi4+0x260>
 80005a8:	4608      	mov	r0, r1
 80005aa:	e7d2      	b.n	8000552 <__udivmoddi4+0x24a>
 80005ac:	4660      	mov	r0, ip
 80005ae:	e78d      	b.n	80004cc <__udivmoddi4+0x1c4>
 80005b0:	4681      	mov	r9, r0
 80005b2:	e7b9      	b.n	8000528 <__udivmoddi4+0x220>
 80005b4:	4666      	mov	r6, ip
 80005b6:	e775      	b.n	80004a4 <__udivmoddi4+0x19c>
 80005b8:	4630      	mov	r0, r6
 80005ba:	e74a      	b.n	8000452 <__udivmoddi4+0x14a>
 80005bc:	f1ac 0c02 	sub.w	ip, ip, #2
 80005c0:	4439      	add	r1, r7
 80005c2:	e713      	b.n	80003ec <__udivmoddi4+0xe4>
 80005c4:	3802      	subs	r0, #2
 80005c6:	443c      	add	r4, r7
 80005c8:	e724      	b.n	8000414 <__udivmoddi4+0x10c>
 80005ca:	bf00      	nop

080005cc <__aeabi_idiv0>:
 80005cc:	4770      	bx	lr
 80005ce:	bf00      	nop

080005d0 <tx_h_complete>:
 80005d0:	4b01      	ldr	r3, [pc, #4]	; (80005d8 <tx_h_complete+0x8>)
 80005d2:	2201      	movs	r2, #1
 80005d4:	601a      	str	r2, [r3, #0]
 80005d6:	4770      	bx	lr
 80005d8:	2400a060 	.word	0x2400a060

080005dc <HAL_GPIO_EXTI_Callback>:
 80005dc:	f5b0 5f00 	cmp.w	r0, #8192	; 0x2000
 80005e0:	d104      	bne.n	80005ec <HAL_GPIO_EXTI_Callback+0x10>
 80005e2:	4a03      	ldr	r2, [pc, #12]	; (80005f0 <HAL_GPIO_EXTI_Callback+0x14>)
 80005e4:	6813      	ldr	r3, [r2, #0]
 80005e6:	f083 0301 	eor.w	r3, r3, #1
 80005ea:	6013      	str	r3, [r2, #0]
 80005ec:	4770      	bx	lr
 80005ee:	bf00      	nop
 80005f0:	2400003c 	.word	0x2400003c

080005f4 <Error_Handler>:
 80005f4:	b508      	push	{r3, lr}
 80005f6:	f001 fb5d 	bl	8001cb4 <HAL_ResumeTick>
 80005fa:	b672      	cpsid	i
 80005fc:	2002      	movs	r0, #2
 80005fe:	f001 f9dd 	bl	80019bc <BSP_LED_Toggle>
 8000602:	2064      	movs	r0, #100	; 0x64
 8000604:	f001 fb3c 	bl	8001c80 <HAL_Delay>
 8000608:	e7f8      	b.n	80005fc <Error_Handler+0x8>
 800060a:	bf00      	nop

0800060c <SystemClock_Config>:
 800060c:	b5f0      	push	{r4, r5, r6, r7, lr}
 800060e:	b09d      	sub	sp, #116	; 0x74
 8000610:	224c      	movs	r2, #76	; 0x4c
 8000612:	2100      	movs	r1, #0
 8000614:	a809      	add	r0, sp, #36	; 0x24
 8000616:	f005 fe8b 	bl	8006330 <memset>
 800061a:	2220      	movs	r2, #32
 800061c:	2100      	movs	r1, #0
 800061e:	a801      	add	r0, sp, #4
 8000620:	f005 fe86 	bl	8006330 <memset>
 8000624:	2002      	movs	r0, #2
 8000626:	f003 f881 	bl	800372c <HAL_PWREx_ConfigSupply>
 800062a:	4b28      	ldr	r3, [pc, #160]	; (80006cc <SystemClock_Config+0xc0>)
 800062c:	2200      	movs	r2, #0
 800062e:	4928      	ldr	r1, [pc, #160]	; (80006d0 <SystemClock_Config+0xc4>)
 8000630:	9200      	str	r2, [sp, #0]
 8000632:	461a      	mov	r2, r3
 8000634:	6998      	ldr	r0, [r3, #24]
 8000636:	f440 4040 	orr.w	r0, r0, #49152	; 0xc000
 800063a:	6198      	str	r0, [r3, #24]
 800063c:	699b      	ldr	r3, [r3, #24]
 800063e:	f403 4340 	and.w	r3, r3, #49152	; 0xc000
 8000642:	9300      	str	r3, [sp, #0]
 8000644:	6acb      	ldr	r3, [r1, #44]	; 0x2c
 8000646:	f043 0301 	orr.w	r3, r3, #1
 800064a:	62cb      	str	r3, [r1, #44]	; 0x2c
 800064c:	6acb      	ldr	r3, [r1, #44]	; 0x2c
 800064e:	f003 0301 	and.w	r3, r3, #1
 8000652:	9300      	str	r3, [sp, #0]
 8000654:	9b00      	ldr	r3, [sp, #0]
 8000656:	6993      	ldr	r3, [r2, #24]
 8000658:	049b      	lsls	r3, r3, #18
 800065a:	d5fc      	bpl.n	8000656 <SystemClock_Config+0x4a>
 800065c:	4c1d      	ldr	r4, [pc, #116]	; (80006d4 <SystemClock_Config+0xc8>)
 800065e:	2202      	movs	r2, #2
 8000660:	f44f 25a0 	mov.w	r5, #327680	; 0x50000
 8000664:	2101      	movs	r1, #1
 8000666:	6aa3      	ldr	r3, [r4, #40]	; 0x28
 8000668:	2721      	movs	r7, #33	; 0x21
 800066a:	2673      	movs	r6, #115	; 0x73
 800066c:	a809      	add	r0, sp, #36	; 0x24
 800066e:	f023 0303 	bic.w	r3, r3, #3
 8000672:	4313      	orrs	r3, r2
 8000674:	62a3      	str	r3, [r4, #40]	; 0x28
 8000676:	2300      	movs	r3, #0
 8000678:	950a      	str	r5, [sp, #40]	; 0x28
 800067a:	2404      	movs	r4, #4
 800067c:	250c      	movs	r5, #12
 800067e:	931b      	str	r3, [sp, #108]	; 0x6c
 8000680:	9709      	str	r7, [sp, #36]	; 0x24
 8000682:	910f      	str	r1, [sp, #60]	; 0x3c
 8000684:	9114      	str	r1, [sp, #80]	; 0x50
 8000686:	9216      	str	r2, [sp, #88]	; 0x58
 8000688:	9218      	str	r2, [sp, #96]	; 0x60
 800068a:	9615      	str	r6, [sp, #84]	; 0x54
 800068c:	9417      	str	r4, [sp, #92]	; 0x5c
 800068e:	e9cd 5319 	strd	r5, r3, [sp, #100]	; 0x64
 8000692:	e9cd 2212 	strd	r2, r2, [sp, #72]	; 0x48
 8000696:	f003 f86f 	bl	8003778 <HAL_RCC_OscConfig>
 800069a:	4603      	mov	r3, r0
 800069c:	b9a0      	cbnz	r0, 80006c8 <SystemClock_Config+0xbc>
 800069e:	223f      	movs	r2, #63	; 0x3f
 80006a0:	2603      	movs	r6, #3
 80006a2:	2508      	movs	r5, #8
 80006a4:	9303      	str	r3, [sp, #12]
 80006a6:	9201      	str	r2, [sp, #4]
 80006a8:	2340      	movs	r3, #64	; 0x40
 80006aa:	f44f 6280 	mov.w	r2, #1024	; 0x400
 80006ae:	4621      	mov	r1, r4
 80006b0:	a801      	add	r0, sp, #4
 80006b2:	9602      	str	r6, [sp, #8]
 80006b4:	9306      	str	r3, [sp, #24]
 80006b6:	e9cd 5304 	strd	r5, r3, [sp, #16]
 80006ba:	e9cd 2307 	strd	r2, r3, [sp, #28]
 80006be:	f003 fbf1 	bl	8003ea4 <HAL_RCC_ClockConfig>
 80006c2:	b908      	cbnz	r0, 80006c8 <SystemClock_Config+0xbc>
 80006c4:	b01d      	add	sp, #116	; 0x74
 80006c6:	bdf0      	pop	{r4, r5, r6, r7, pc}
 80006c8:	f7ff ff94 	bl	80005f4 <Error_Handler>
 80006cc:	58024800 	.word	0x58024800
 80006d0:	58000400 	.word	0x58000400
 80006d4:	58024400 	.word	0x58024400

080006d8 <main>:
 80006d8:	e92d 4ff0 	stmdb	sp!, {r4, r5, r6, r7, r8, r9, sl, fp, lr}
 80006dc:	2300      	movs	r3, #0
 80006de:	f8df b3ac 	ldr.w	fp, [pc, #940]	; 8000a8c <main+0x3b4>
 80006e2:	f8df a3ac 	ldr.w	sl, [pc, #940]	; 8000a90 <main+0x3b8>
 80006e6:	ed2d 8b10 	vpush	{d8-d15}
 80006ea:	b095      	sub	sp, #84	; 0x54
 80006ec:	b29a      	uxth	r2, r3
 80006ee:	f82b 2013 	strh.w	r2, [fp, r3, lsl #1]
 80006f2:	f83b 2013 	ldrh.w	r2, [fp, r3, lsl #1]
 80006f6:	b292      	uxth	r2, r2
 80006f8:	f82a 2013 	strh.w	r2, [sl, r3, lsl #1]
 80006fc:	3301      	adds	r3, #1
 80006fe:	f5b3 6f00 	cmp.w	r3, #2048	; 0x800
 8000702:	d1f3      	bne.n	80006ec <main+0x14>
 8000704:	4bd5      	ldr	r3, [pc, #852]	; (8000a5c <main+0x384>)
 8000706:	695a      	ldr	r2, [r3, #20]
 8000708:	f412 3200 	ands.w	r2, r2, #131072	; 0x20000
 800070c:	d111      	bne.n	8000732 <main+0x5a>
 800070e:	f3bf 8f4f 	dsb	sy
 8000712:	f3bf 8f6f 	isb	sy
 8000716:	f8c3 2250 	str.w	r2, [r3, #592]	; 0x250
 800071a:	f3bf 8f4f 	dsb	sy
 800071e:	f3bf 8f6f 	isb	sy
 8000722:	695a      	ldr	r2, [r3, #20]
 8000724:	f442 3200 	orr.w	r2, r2, #131072	; 0x20000
 8000728:	615a      	str	r2, [r3, #20]
 800072a:	f3bf 8f4f 	dsb	sy
 800072e:	f3bf 8f6f 	isb	sy
 8000732:	4dcb      	ldr	r5, [pc, #812]	; (8000a60 <main+0x388>)
 8000734:	2400      	movs	r4, #0
 8000736:	2701      	movs	r7, #1
 8000738:	f001 fa60 	bl	8001bfc <HAL_Init>
 800073c:	f7ff ff66 	bl	800060c <SystemClock_Config>
 8000740:	9411      	str	r4, [sp, #68]	; 0x44
 8000742:	9412      	str	r4, [sp, #72]	; 0x48
 8000744:	f04f 0802 	mov.w	r8, #2
 8000748:	9413      	str	r4, [sp, #76]	; 0x4c
 800074a:	4622      	mov	r2, r4
 800074c:	f244 0101 	movw	r1, #16385	; 0x4001
 8000750:	48c4      	ldr	r0, [pc, #784]	; (8000a64 <main+0x38c>)
 8000752:	f8df 9340 	ldr.w	r9, [pc, #832]	; 8000a94 <main+0x3bc>
 8000756:	4ec4      	ldr	r6, [pc, #784]	; (8000a68 <main+0x390>)
 8000758:	e9cd 440f 	strd	r4, r4, [sp, #60]	; 0x3c
 800075c:	f8d5 30e0 	ldr.w	r3, [r5, #224]	; 0xe0
 8000760:	433b      	orrs	r3, r7
 8000762:	f8c5 30e0 	str.w	r3, [r5, #224]	; 0xe0
 8000766:	f8d5 30e0 	ldr.w	r3, [r5, #224]	; 0xe0
 800076a:	403b      	ands	r3, r7
 800076c:	9307      	str	r3, [sp, #28]
 800076e:	9b07      	ldr	r3, [sp, #28]
 8000770:	f8d5 30e0 	ldr.w	r3, [r5, #224]	; 0xe0
 8000774:	ea43 0308 	orr.w	r3, r3, r8
 8000778:	f8c5 30e0 	str.w	r3, [r5, #224]	; 0xe0
 800077c:	f8d5 30e0 	ldr.w	r3, [r5, #224]	; 0xe0
 8000780:	ea03 0308 	and.w	r3, r3, r8
 8000784:	9308      	str	r3, [sp, #32]
 8000786:	9b08      	ldr	r3, [sp, #32]
 8000788:	f8d5 30e0 	ldr.w	r3, [r5, #224]	; 0xe0
 800078c:	f043 0304 	orr.w	r3, r3, #4
 8000790:	f8c5 30e0 	str.w	r3, [r5, #224]	; 0xe0
 8000794:	f8d5 30e0 	ldr.w	r3, [r5, #224]	; 0xe0
 8000798:	f003 0304 	and.w	r3, r3, #4
 800079c:	9309      	str	r3, [sp, #36]	; 0x24
 800079e:	9b09      	ldr	r3, [sp, #36]	; 0x24
 80007a0:	f8d5 30e0 	ldr.w	r3, [r5, #224]	; 0xe0
 80007a4:	f043 0308 	orr.w	r3, r3, #8
 80007a8:	f8c5 30e0 	str.w	r3, [r5, #224]	; 0xe0
 80007ac:	f8d5 30e0 	ldr.w	r3, [r5, #224]	; 0xe0
 80007b0:	f003 0308 	and.w	r3, r3, #8
 80007b4:	930a      	str	r3, [sp, #40]	; 0x28
 80007b6:	9b0a      	ldr	r3, [sp, #40]	; 0x28
 80007b8:	f8d5 30e0 	ldr.w	r3, [r5, #224]	; 0xe0
 80007bc:	f043 0310 	orr.w	r3, r3, #16
 80007c0:	f8c5 30e0 	str.w	r3, [r5, #224]	; 0xe0
 80007c4:	f8d5 30e0 	ldr.w	r3, [r5, #224]	; 0xe0
 80007c8:	f003 0310 	and.w	r3, r3, #16
 80007cc:	930b      	str	r3, [sp, #44]	; 0x2c
 80007ce:	9b0b      	ldr	r3, [sp, #44]	; 0x2c
 80007d0:	f8d5 30e0 	ldr.w	r3, [r5, #224]	; 0xe0
 80007d4:	f043 0320 	orr.w	r3, r3, #32
 80007d8:	f8c5 30e0 	str.w	r3, [r5, #224]	; 0xe0
 80007dc:	f8d5 30e0 	ldr.w	r3, [r5, #224]	; 0xe0
 80007e0:	f003 0320 	and.w	r3, r3, #32
 80007e4:	930c      	str	r3, [sp, #48]	; 0x30
 80007e6:	9b0c      	ldr	r3, [sp, #48]	; 0x30
 80007e8:	f8d5 30e0 	ldr.w	r3, [r5, #224]	; 0xe0
 80007ec:	f043 0340 	orr.w	r3, r3, #64	; 0x40
 80007f0:	f8c5 30e0 	str.w	r3, [r5, #224]	; 0xe0
 80007f4:	f8d5 30e0 	ldr.w	r3, [r5, #224]	; 0xe0
 80007f8:	f003 0340 	and.w	r3, r3, #64	; 0x40
 80007fc:	930d      	str	r3, [sp, #52]	; 0x34
 80007fe:	9b0d      	ldr	r3, [sp, #52]	; 0x34
 8000800:	f8d5 30e0 	ldr.w	r3, [r5, #224]	; 0xe0
 8000804:	f043 0380 	orr.w	r3, r3, #128	; 0x80
 8000808:	f8c5 30e0 	str.w	r3, [r5, #224]	; 0xe0
 800080c:	f8d5 30e0 	ldr.w	r3, [r5, #224]	; 0xe0
 8000810:	f003 0380 	and.w	r3, r3, #128	; 0x80
 8000814:	930e      	str	r3, [sp, #56]	; 0x38
 8000816:	9b0e      	ldr	r3, [sp, #56]	; 0x38
 8000818:	f002 ff6c 	bl	80036f4 <HAL_GPIO_WritePin>
 800081c:	4622      	mov	r2, r4
 800081e:	4641      	mov	r1, r8
 8000820:	4892      	ldr	r0, [pc, #584]	; (8000a6c <main+0x394>)
 8000822:	f002 ff67 	bl	80036f4 <HAL_GPIO_WritePin>
 8000826:	f44f 5300 	mov.w	r3, #8192	; 0x2000
 800082a:	a90f      	add	r1, sp, #60	; 0x3c
 800082c:	4890      	ldr	r0, [pc, #576]	; (8000a70 <main+0x398>)
 800082e:	930f      	str	r3, [sp, #60]	; 0x3c
 8000830:	e9cd 4410 	strd	r4, r4, [sp, #64]	; 0x40
 8000834:	f002 fe40 	bl	80034b8 <HAL_GPIO_Init>
 8000838:	f244 0301 	movw	r3, #16385	; 0x4001
 800083c:	a90f      	add	r1, sp, #60	; 0x3c
 800083e:	4889      	ldr	r0, [pc, #548]	; (8000a64 <main+0x38c>)
 8000840:	e9cd 370f 	strd	r3, r7, [sp, #60]	; 0x3c
 8000844:	e9cd 4411 	strd	r4, r4, [sp, #68]	; 0x44
 8000848:	f002 fe36 	bl	80034b8 <HAL_GPIO_Init>
 800084c:	a90f      	add	r1, sp, #60	; 0x3c
 800084e:	4887      	ldr	r0, [pc, #540]	; (8000a6c <main+0x394>)
 8000850:	f8cd 803c 	str.w	r8, [sp, #60]	; 0x3c
 8000854:	9412      	str	r4, [sp, #72]	; 0x48
 8000856:	e9cd 7410 	strd	r7, r4, [sp, #64]	; 0x40
 800085a:	f002 fe2d 	bl	80034b8 <HAL_GPIO_Init>
 800085e:	f24a 0301 	movw	r3, #40961	; 0xa001
 8000862:	a90f      	add	r1, sp, #60	; 0x3c
 8000864:	4881      	ldr	r0, [pc, #516]	; (8000a6c <main+0x394>)
 8000866:	930f      	str	r3, [sp, #60]	; 0x3c
 8000868:	9412      	str	r4, [sp, #72]	; 0x48
 800086a:	e9cd 7410 	strd	r7, r4, [sp, #64]	; 0x40
 800086e:	f002 fe23 	bl	80034b8 <HAL_GPIO_Init>
 8000872:	f44f 4338 	mov.w	r3, #47104	; 0xb800
 8000876:	a90f      	add	r1, sp, #60	; 0x3c
 8000878:	487e      	ldr	r0, [pc, #504]	; (8000a74 <main+0x39c>)
 800087a:	930f      	str	r3, [sp, #60]	; 0x3c
 800087c:	9412      	str	r4, [sp, #72]	; 0x48
 800087e:	e9cd 7410 	strd	r7, r4, [sp, #64]	; 0x40
 8000882:	f002 fe19 	bl	80034b8 <HAL_GPIO_Init>
 8000886:	f244 1370 	movw	r3, #16752	; 0x4170
 800088a:	a90f      	add	r1, sp, #60	; 0x3c
 800088c:	4648      	mov	r0, r9
 800088e:	930f      	str	r3, [sp, #60]	; 0x3c
 8000890:	9412      	str	r4, [sp, #72]	; 0x48
 8000892:	e9cd 7410 	strd	r7, r4, [sp, #64]	; 0x40
 8000896:	f002 fe0f 	bl	80034b8 <HAL_GPIO_Init>
 800089a:	4620      	mov	r0, r4
 800089c:	f001 f814 	bl	80018c8 <BSP_LED_Init>
 80008a0:	4638      	mov	r0, r7
 80008a2:	f001 f811 	bl	80018c8 <BSP_LED_Init>
 80008a6:	4640      	mov	r0, r8
 80008a8:	f001 f80e 	bl	80018c8 <BSP_LED_Init>
 80008ac:	4639      	mov	r1, r7
 80008ae:	4620      	mov	r0, r4
 80008b0:	f44f 4800 	mov.w	r8, #32768	; 0x8000
 80008b4:	f001 f896 	bl	80019e4 <BSP_PB_Init>
 80008b8:	4b6c      	ldr	r3, [pc, #432]	; (8000a6c <main+0x394>)
 80008ba:	f24a 0201 	movw	r2, #40961	; 0xa001
 80008be:	619a      	str	r2, [r3, #24]
 80008c0:	f44f 4238 	mov.w	r2, #47104	; 0xb800
 80008c4:	f8c3 2418 	str.w	r2, [r3, #1048]	; 0x418
 80008c8:	f244 1370 	movw	r3, #16752	; 0x4170
 80008cc:	f8c9 3018 	str.w	r3, [r9, #24]
 80008d0:	f001 f9fe 	bl	8001cd0 <HAL_EnableCompensationCell>
 80008d4:	f8d5 30d8 	ldr.w	r3, [r5, #216]	; 0xd8
 80008d8:	463a      	mov	r2, r7
 80008da:	4621      	mov	r1, r4
 80008dc:	433b      	orrs	r3, r7
 80008de:	200b      	movs	r0, #11
 80008e0:	f8df 91b4 	ldr.w	r9, [pc, #436]	; 8000a98 <main+0x3c0>
 80008e4:	f8c5 30d8 	str.w	r3, [r5, #216]	; 0xd8
 80008e8:	f8d5 30d8 	ldr.w	r3, [r5, #216]	; 0xd8
 80008ec:	403b      	ands	r3, r7
 80008ee:	9306      	str	r3, [sp, #24]
 80008f0:	9b06      	ldr	r3, [sp, #24]
 80008f2:	f8d5 30d8 	ldr.w	r3, [r5, #216]	; 0xd8
 80008f6:	f043 0302 	orr.w	r3, r3, #2
 80008fa:	f8c5 30d8 	str.w	r3, [r5, #216]	; 0xd8
 80008fe:	f8d5 30d8 	ldr.w	r3, [r5, #216]	; 0xd8
 8000902:	f003 0302 	and.w	r3, r3, #2
 8000906:	930f      	str	r3, [sp, #60]	; 0x3c
 8000908:	9b0f      	ldr	r3, [sp, #60]	; 0x3c
 800090a:	f001 f9fd 	bl	8001d08 <HAL_NVIC_SetPriority>
 800090e:	200b      	movs	r0, #11
 8000910:	f001 fa34 	bl	8001d7c <HAL_NVIC_EnableIRQ>
 8000914:	463a      	mov	r2, r7
 8000916:	4621      	mov	r1, r4
 8000918:	200c      	movs	r0, #12
 800091a:	f001 f9f5 	bl	8001d08 <HAL_NVIC_SetPriority>
 800091e:	200c      	movs	r0, #12
 8000920:	f001 fa2c 	bl	8001d7c <HAL_NVIC_EnableIRQ>
 8000924:	463a      	mov	r2, r7
 8000926:	4621      	mov	r1, r4
 8000928:	2038      	movs	r0, #56	; 0x38
 800092a:	f001 f9ed 	bl	8001d08 <HAL_NVIC_SetPriority>
 800092e:	2038      	movs	r0, #56	; 0x38
 8000930:	f001 fa24 	bl	8001d7c <HAL_NVIC_EnableIRQ>
 8000934:	4621      	mov	r1, r4
 8000936:	463a      	mov	r2, r7
 8000938:	2039      	movs	r0, #57	; 0x39
 800093a:	f001 f9e5 	bl	8001d08 <HAL_NVIC_SetPriority>
 800093e:	2039      	movs	r0, #57	; 0x39
 8000940:	f001 fa1c 	bl	8001d7c <HAL_NVIC_EnableIRQ>
 8000944:	4b4c      	ldr	r3, [pc, #304]	; (8000a78 <main+0x3a0>)
 8000946:	4630      	mov	r0, r6
 8000948:	6134      	str	r4, [r6, #16]
 800094a:	61b4      	str	r4, [r6, #24]
 800094c:	62b4      	str	r4, [r6, #40]	; 0x28
 800094e:	f8c6 801c 	str.w	r8, [r6, #28]
 8000952:	e9c6 3900 	strd	r3, r9, [r6]
 8000956:	230c      	movs	r3, #12
 8000958:	e9c6 4402 	strd	r4, r4, [r6, #8]
 800095c:	e9c6 4408 	strd	r4, r4, [r6, #32]
 8000960:	6173      	str	r3, [r6, #20]
 8000962:	f005 fbef 	bl	8006144 <HAL_UART_Init>
 8000966:	4601      	mov	r1, r0
 8000968:	2800      	cmp	r0, #0
 800096a:	f040 815d 	bne.w	8000c28 <main+0x550>
 800096e:	4630      	mov	r0, r6
 8000970:	f005 fc62 	bl	8006238 <HAL_UARTEx_SetTxFifoThreshold>
 8000974:	4601      	mov	r1, r0
 8000976:	2800      	cmp	r0, #0
 8000978:	f040 8156 	bne.w	8000c28 <main+0x550>
 800097c:	4630      	mov	r0, r6
 800097e:	f005 fc87 	bl	8006290 <HAL_UARTEx_SetRxFifoThreshold>
 8000982:	2800      	cmp	r0, #0
 8000984:	f040 8150 	bne.w	8000c28 <main+0x550>
 8000988:	4630      	mov	r0, r6
 800098a:	f005 fc33 	bl	80061f4 <HAL_UARTEx_EnableFifoMode>
 800098e:	4605      	mov	r5, r0
 8000990:	2800      	cmp	r0, #0
 8000992:	f040 8149 	bne.w	8000c28 <main+0x550>
 8000996:	4601      	mov	r1, r0
 8000998:	463a      	mov	r2, r7
 800099a:	2025      	movs	r0, #37	; 0x25
 800099c:	4c37      	ldr	r4, [pc, #220]	; (8000a7c <main+0x3a4>)
 800099e:	f001 f9b3 	bl	8001d08 <HAL_NVIC_SetPriority>
 80009a2:	2025      	movs	r0, #37	; 0x25
 80009a4:	f001 f9ea 	bl	8001d7c <HAL_NVIC_EnableIRQ>
 80009a8:	4b35      	ldr	r3, [pc, #212]	; (8000a80 <main+0x3a8>)
 80009aa:	220c      	movs	r2, #12
 80009ac:	4620      	mov	r0, r4
 80009ae:	6023      	str	r3, [r4, #0]
 80009b0:	e9c4 9501 	strd	r9, r5, [r4, #4]
 80009b4:	e9c4 5503 	strd	r5, r5, [r4, #12]
 80009b8:	e9c4 2505 	strd	r2, r5, [r4, #20]
 80009bc:	e9c4 8507 	strd	r8, r5, [r4, #28]
 80009c0:	e9c4 5509 	strd	r5, r5, [r4, #36]	; 0x24
 80009c4:	f005 fbbe 	bl	8006144 <HAL_UART_Init>
 80009c8:	4601      	mov	r1, r0
 80009ca:	2800      	cmp	r0, #0
 80009cc:	f040 812c 	bne.w	8000c28 <main+0x550>
 80009d0:	4620      	mov	r0, r4
 80009d2:	f005 fc31 	bl	8006238 <HAL_UARTEx_SetTxFifoThreshold>
 80009d6:	4601      	mov	r1, r0
 80009d8:	2800      	cmp	r0, #0
 80009da:	f040 8125 	bne.w	8000c28 <main+0x550>
 80009de:	4620      	mov	r0, r4
 80009e0:	f005 fc56 	bl	8006290 <HAL_UARTEx_SetRxFifoThreshold>
 80009e4:	2800      	cmp	r0, #0
 80009e6:	f040 811f 	bne.w	8000c28 <main+0x550>
 80009ea:	4620      	mov	r0, r4
 80009ec:	f005 fc02 	bl	80061f4 <HAL_UARTEx_EnableFifoMode>
 80009f0:	4604      	mov	r4, r0
 80009f2:	2800      	cmp	r0, #0
 80009f4:	f040 8118 	bne.w	8000c28 <main+0x550>
 80009f8:	463a      	mov	r2, r7
 80009fa:	4601      	mov	r1, r0
 80009fc:	2027      	movs	r0, #39	; 0x27
 80009fe:	4d21      	ldr	r5, [pc, #132]	; (8000a84 <main+0x3ac>)
 8000a00:	f001 f982 	bl	8001d08 <HAL_NVIC_SetPriority>
 8000a04:	2027      	movs	r0, #39	; 0x27
 8000a06:	f001 f9b9 	bl	8001d7c <HAL_NVIC_EnableIRQ>
 8000a0a:	4e18      	ldr	r6, [pc, #96]	; (8000a6c <main+0x394>)
 8000a0c:	491e      	ldr	r1, [pc, #120]	; (8000a88 <main+0x3b0>)
 8000a0e:	f44f 3080 	mov.w	r0, #65536	; 0x10000
 8000a12:	f44f 0280 	mov.w	r2, #4194304	; 0x400000
 8000a16:	f44f 2380 	mov.w	r3, #262144	; 0x40000
 8000a1a:	61b0      	str	r0, [r6, #24]
 8000a1c:	f04f 5900 	mov.w	r9, #536870912	; 0x20000000
 8000a20:	60ab      	str	r3, [r5, #8]
 8000a22:	f04f 5840 	mov.w	r8, #805306368	; 0x30000000
 8000a26:	f04f 7300 	mov.w	r3, #33554432	; 0x2000000
 8000a2a:	f04f 4780 	mov.w	r7, #1073741824	; 0x40000000
 8000a2e:	2620      	movs	r6, #32
 8000a30:	4628      	mov	r0, r5
 8000a32:	616c      	str	r4, [r5, #20]
 8000a34:	64ac      	str	r4, [r5, #72]	; 0x48
 8000a36:	65ac      	str	r4, [r5, #88]	; 0x58
 8000a38:	636f      	str	r7, [r5, #52]	; 0x34
 8000a3a:	64ee      	str	r6, [r5, #76]	; 0x4c
 8000a3c:	e9c5 1200 	strd	r1, r2, [r5]
 8000a40:	220d      	movs	r2, #13
 8000a42:	e9c5 4408 	strd	r4, r4, [r5, #32]
 8000a46:	e9c5 440a 	strd	r4, r4, [r5, #40]	; 0x28
 8000a4a:	e9c5 4410 	strd	r4, r4, [r5, #64]	; 0x40
 8000a4e:	e9c5 440e 	strd	r4, r4, [r5, #56]	; 0x38
 8000a52:	e9c5 4414 	strd	r4, r4, [r5, #80]	; 0x50
 8000a56:	e9c5 2303 	strd	r2, r3, [r5, #12]
 8000a5a:	e01f      	b.n	8000a9c <main+0x3c4>
 8000a5c:	e000ed00 	.word	0xe000ed00
 8000a60:	58024400 	.word	0x58024400
 8000a64:	58020400 	.word	0x58020400
 8000a68:	2401a30c 	.word	0x2401a30c
 8000a6c:	58021000 	.word	0x58021000
 8000a70:	58020800 	.word	0x58020800
 8000a74:	58021400 	.word	0x58021400
 8000a78:	40011000 	.word	0x40011000
 8000a7c:	2401a114 	.word	0x2401a114
 8000a80:	40004800 	.word	0x40004800
 8000a84:	2401a39c 	.word	0x2401a39c
 8000a88:	40013000 	.word	0x40013000
 8000a8c:	24008060 	.word	0x24008060
 8000a90:	24009060 	.word	0x24009060
 8000a94:	58021800 	.word	0x58021800
 8000a98:	00b6c7c0 	.word	0x00b6c7c0
 8000a9c:	e9c5 9806 	strd	r9, r8, [r5, #24]
 8000aa0:	f004 fba8 	bl	80051f4 <HAL_SPI_Init>
 8000aa4:	4601      	mov	r1, r0
 8000aa6:	2800      	cmp	r0, #0
 8000aa8:	f040 80be 	bne.w	8000c28 <main+0x550>
 8000aac:	4c5f      	ldr	r4, [pc, #380]	; (8000c2c <main+0x554>)
 8000aae:	230d      	movs	r3, #13
 8000ab0:	f44f 2e80 	mov.w	lr, #262144	; 0x40000
 8000ab4:	f8df c1a0 	ldr.w	ip, [pc, #416]	; 8000c58 <main+0x580>
 8000ab8:	f44f 0280 	mov.w	r2, #4194304	; 0x400000
 8000abc:	4620      	mov	r0, r4
 8000abe:	63e1      	str	r1, [r4, #60]	; 0x3c
 8000ac0:	6062      	str	r2, [r4, #4]
 8000ac2:	65a1      	str	r1, [r4, #88]	; 0x58
 8000ac4:	f8c4 c000 	str.w	ip, [r4]
 8000ac8:	e9c4 e302 	strd	lr, r3, [r4, #8]
 8000acc:	f04f 7300 	mov.w	r3, #33554432	; 0x2000000
 8000ad0:	e9c4 9806 	strd	r9, r8, [r4, #24]
 8000ad4:	e9c4 3104 	strd	r3, r1, [r4, #16]
 8000ad8:	e9c4 1108 	strd	r1, r1, [r4, #32]
 8000adc:	e9c4 110a 	strd	r1, r1, [r4, #40]	; 0x28
 8000ae0:	e9c4 1110 	strd	r1, r1, [r4, #64]	; 0x40
 8000ae4:	e9c4 710d 	strd	r7, r1, [r4, #52]	; 0x34
 8000ae8:	e9c4 1612 	strd	r1, r6, [r4, #72]	; 0x48
 8000aec:	e9c4 1114 	strd	r1, r1, [r4, #80]	; 0x50
 8000af0:	f004 fb80 	bl	80051f4 <HAL_SPI_Init>
 8000af4:	2800      	cmp	r0, #0
 8000af6:	f040 8097 	bne.w	8000c28 <main+0x550>
 8000afa:	4e4d      	ldr	r6, [pc, #308]	; (8000c30 <main+0x558>)
 8000afc:	6833      	ldr	r3, [r6, #0]
 8000afe:	b943      	cbnz	r3, 8000b12 <main+0x43a>
 8000b00:	2000      	movs	r0, #0
 8000b02:	f000 ff5b 	bl	80019bc <BSP_LED_Toggle>
 8000b06:	2064      	movs	r0, #100	; 0x64
 8000b08:	f001 f8ba 	bl	8001c80 <HAL_Delay>
 8000b0c:	6833      	ldr	r3, [r6, #0]
 8000b0e:	2b00      	cmp	r3, #0
 8000b10:	d0f6      	beq.n	8000b00 <main+0x428>
 8000b12:	2000      	movs	r0, #0
 8000b14:	6030      	str	r0, [r6, #0]
 8000b16:	f000 ff3b 	bl	8001990 <BSP_LED_Off>
 8000b1a:	2001      	movs	r0, #1
 8000b1c:	4e45      	ldr	r6, [pc, #276]	; (8000c34 <main+0x55c>)
 8000b1e:	f000 ff37 	bl	8001990 <BSP_LED_Off>
 8000b22:	2002      	movs	r0, #2
 8000b24:	f000 ff34 	bl	8001990 <BSP_LED_Off>
 8000b28:	682f      	ldr	r7, [r5, #0]
 8000b2a:	6820      	ldr	r0, [r4, #0]
 8000b2c:	f44f 4380 	mov.w	r3, #16384	; 0x4000
 8000b30:	683a      	ldr	r2, [r7, #0]
 8000b32:	f8d5 c07c 	ldr.w	ip, [r5, #124]	; 0x7c
 8000b36:	4601      	mov	r1, r0
 8000b38:	f422 6200 	bic.w	r2, r2, #2048	; 0x800
 8000b3c:	603a      	str	r2, [r7, #0]
 8000b3e:	6802      	ldr	r2, [r0, #0]
 8000b40:	6fe0      	ldr	r0, [r4, #124]	; 0x7c
 8000b42:	f422 6200 	bic.w	r2, r2, #2048	; 0x800
 8000b46:	4f3c      	ldr	r7, [pc, #240]	; (8000c38 <main+0x560>)
 8000b48:	f841 2b30 	str.w	r2, [r1], #48
 8000b4c:	6832      	ldr	r2, [r6, #0]
 8000b4e:	f8cc 7040 	str.w	r7, [ip, #64]	; 0x40
 8000b52:	f042 0218 	orr.w	r2, r2, #24
 8000b56:	6407      	str	r7, [r0, #64]	; 0x40
 8000b58:	4f38      	ldr	r7, [pc, #224]	; (8000c3c <main+0x564>)
 8000b5a:	6032      	str	r2, [r6, #0]
 8000b5c:	683e      	ldr	r6, [r7, #0]
 8000b5e:	4a38      	ldr	r2, [pc, #224]	; (8000c40 <main+0x568>)
 8000b60:	f046 0618 	orr.w	r6, r6, #24
 8000b64:	603e      	str	r6, [r7, #0]
 8000b66:	f001 fd7f 	bl	8002668 <HAL_DMA_Start>
 8000b6a:	2800      	cmp	r0, #0
 8000b6c:	d15c      	bne.n	8000c28 <main+0x550>
 8000b6e:	682a      	ldr	r2, [r5, #0]
 8000b70:	4834      	ldr	r0, [pc, #208]	; (8000c44 <main+0x56c>)
 8000b72:	6851      	ldr	r1, [r2, #4]
 8000b74:	6823      	ldr	r3, [r4, #0]
 8000b76:	4001      	ands	r1, r0
 8000b78:	4e33      	ldr	r6, [pc, #204]	; (8000c48 <main+0x570>)
 8000b7a:	6051      	str	r1, [r2, #4]
 8000b7c:	6859      	ldr	r1, [r3, #4]
 8000b7e:	4001      	ands	r1, r0
 8000b80:	6059      	str	r1, [r3, #4]
 8000b82:	6891      	ldr	r1, [r2, #8]
 8000b84:	f441 4180 	orr.w	r1, r1, #16384	; 0x4000
 8000b88:	6091      	str	r1, [r2, #8]
 8000b8a:	6899      	ldr	r1, [r3, #8]
 8000b8c:	f441 4180 	orr.w	r1, r1, #16384	; 0x4000
 8000b90:	6099      	str	r1, [r3, #8]
 8000b92:	6911      	ldr	r1, [r2, #16]
 8000b94:	f441 7150 	orr.w	r1, r1, #832	; 0x340
 8000b98:	6111      	str	r1, [r2, #16]
 8000b9a:	6919      	ldr	r1, [r3, #16]
 8000b9c:	f441 7150 	orr.w	r1, r1, #832	; 0x340
 8000ba0:	6119      	str	r1, [r3, #16]
 8000ba2:	6811      	ldr	r1, [r2, #0]
 8000ba4:	f041 0101 	orr.w	r1, r1, #1
 8000ba8:	6011      	str	r1, [r2, #0]
 8000baa:	681a      	ldr	r2, [r3, #0]
 8000bac:	f042 0201 	orr.w	r2, r2, #1
 8000bb0:	601a      	str	r2, [r3, #0]
 8000bb2:	681a      	ldr	r2, [r3, #0]
 8000bb4:	f442 7200 	orr.w	r2, r2, #512	; 0x200
 8000bb8:	601a      	str	r2, [r3, #0]
 8000bba:	6833      	ldr	r3, [r6, #0]
 8000bbc:	2b01      	cmp	r3, #1
 8000bbe:	d008      	beq.n	8000bd2 <main+0x4fa>
 8000bc0:	2014      	movs	r0, #20
 8000bc2:	f001 f85d 	bl	8001c80 <HAL_Delay>
 8000bc6:	2002      	movs	r0, #2
 8000bc8:	f000 fef8 	bl	80019bc <BSP_LED_Toggle>
 8000bcc:	6833      	ldr	r3, [r6, #0]
 8000bce:	2b01      	cmp	r3, #1
 8000bd0:	d1f6      	bne.n	8000bc0 <main+0x4e8>
 8000bd2:	2500      	movs	r5, #0
 8000bd4:	270a      	movs	r7, #10
 8000bd6:	4c1d      	ldr	r4, [pc, #116]	; (8000c4c <main+0x574>)
 8000bd8:	4628      	mov	r0, r5
 8000bda:	6035      	str	r5, [r6, #0]
 8000bdc:	f000 fed8 	bl	8001990 <BSP_LED_Off>
 8000be0:	2001      	movs	r0, #1
 8000be2:	f000 fed5 	bl	8001990 <BSP_LED_Off>
 8000be6:	2002      	movs	r0, #2
 8000be8:	f000 fed2 	bl	8001990 <BSP_LED_Off>
 8000bec:	462b      	mov	r3, r5
 8000bee:	f242 010a 	movw	r1, #8202	; 0x200a
 8000bf2:	4638      	mov	r0, r7
 8000bf4:	f834 2010 	ldrh.w	r2, [r4, r0, lsl #1]
 8000bf8:	3004      	adds	r0, #4
 8000bfa:	b292      	uxth	r2, r2
 8000bfc:	4288      	cmp	r0, r1
 8000bfe:	ea4f 1202 	mov.w	r2, r2, lsl #4
 8000c02:	b292      	uxth	r2, r2
 8000c04:	f82b 2013 	strh.w	r2, [fp, r3, lsl #1]
 8000c08:	f83b 2013 	ldrh.w	r2, [fp, r3, lsl #1]
 8000c0c:	b292      	uxth	r2, r2
 8000c0e:	f82a 2013 	strh.w	r2, [sl, r3, lsl #1]
 8000c12:	f103 0301 	add.w	r3, r3, #1
 8000c16:	d1ed      	bne.n	8000bf4 <main+0x51c>
 8000c18:	9005      	str	r0, [sp, #20]
 8000c1a:	f44f 5280 	mov.w	r2, #4096	; 0x1000
 8000c1e:	490c      	ldr	r1, [pc, #48]	; (8000c50 <main+0x578>)
 8000c20:	480c      	ldr	r0, [pc, #48]	; (8000c54 <main+0x57c>)
 8000c22:	f004 fcd7 	bl	80055d4 <HAL_UART_Transmit_DMA>
 8000c26:	b1c8      	cbz	r0, 8000c5c <main+0x584>
 8000c28:	f7ff fce4 	bl	80005f4 <Error_Handler>
 8000c2c:	2401a08c 	.word	0x2401a08c
 8000c30:	2400003c 	.word	0x2400003c
 8000c34:	40020410 	.word	0x40020410
 8000c38:	080005d1 	.word	0x080005d1
 8000c3c:	40020428 	.word	0x40020428
 8000c40:	24000054 	.word	0x24000054
 8000c44:	ffff0000 	.word	0xffff0000
 8000c48:	2400a060 	.word	0x2400a060
 8000c4c:	24000040 	.word	0x24000040
 8000c50:	24008060 	.word	0x24008060
 8000c54:	2401a114 	.word	0x2401a114
 8000c58:	40003800 	.word	0x40003800
 8000c5c:	f44f 5280 	mov.w	r2, #4096	; 0x1000
 8000c60:	49e1      	ldr	r1, [pc, #900]	; (8000fe8 <main+0x910>)
 8000c62:	48e2      	ldr	r0, [pc, #904]	; (8000fec <main+0x914>)
 8000c64:	f004 fcb6 	bl	80055d4 <HAL_UART_Transmit_DMA>
 8000c68:	4605      	mov	r5, r0
 8000c6a:	2800      	cmp	r0, #0
 8000c6c:	d1dc      	bne.n	8000c28 <main+0x550>
 8000c6e:	f001 f819 	bl	8001ca4 <HAL_SuspendTick>
 8000c72:	2027      	movs	r0, #39	; 0x27
 8000c74:	f001 f890 	bl	8001d98 <HAL_NVIC_DisableIRQ>
 8000c78:	2025      	movs	r0, #37	; 0x25
 8000c7a:	f001 f88d 	bl	8001d98 <HAL_NVIC_DisableIRQ>
 8000c7e:	200c      	movs	r0, #12
 8000c80:	f001 f88a 	bl	8001d98 <HAL_NVIC_DisableIRQ>
 8000c84:	200b      	movs	r0, #11
 8000c86:	f001 f887 	bl	8001d98 <HAL_NVIC_DisableIRQ>
 8000c8a:	2038      	movs	r0, #56	; 0x38
 8000c8c:	f001 f884 	bl	8001d98 <HAL_NVIC_DisableIRQ>
 8000c90:	2039      	movs	r0, #57	; 0x39
 8000c92:	f001 f881 	bl	8001d98 <HAL_NVIC_DisableIRQ>
 8000c96:	4628      	mov	r0, r5
 8000c98:	f000 fe7a 	bl	8001990 <BSP_LED_Off>
 8000c9c:	2001      	movs	r0, #1
 8000c9e:	f000 fe77 	bl	8001990 <BSP_LED_Off>
 8000ca2:	2002      	movs	r0, #2
 8000ca4:	f000 fe74 	bl	8001990 <BSP_LED_Off>
 8000ca8:	ed9f bbc1 	vldr	d11, [pc, #772]	; 8000fb0 <main+0x8d8>
 8000cac:	ed9f 4bc2 	vldr	d4, [pc, #776]	; 8000fb8 <main+0x8e0>
 8000cb0:	ed9f ebc3 	vldr	d14, [pc, #780]	; 8000fc0 <main+0x8e8>
 8000cb4:	ed9f fbc4 	vldr	d15, [pc, #784]	; 8000fc8 <main+0x8f0>
 8000cb8:	ed9f cbc5 	vldr	d12, [pc, #788]	; 8000fd0 <main+0x8f8>
 8000cbc:	ed9f dbc6 	vldr	d13, [pc, #792]	; 8000fd8 <main+0x900>
 8000cc0:	4bcb      	ldr	r3, [pc, #812]	; (8000ff0 <main+0x918>)
 8000cc2:	681b      	ldr	r3, [r3, #0]
 8000cc4:	051e      	lsls	r6, r3, #20
 8000cc6:	d5fb      	bpl.n	8000cc0 <main+0x5e8>
 8000cc8:	f44f 6102 	mov.w	r1, #2080	; 0x820
 8000ccc:	48c8      	ldr	r0, [pc, #800]	; (8000ff0 <main+0x918>)
 8000cce:	4ac9      	ldr	r2, [pc, #804]	; (8000ff4 <main+0x91c>)
 8000cd0:	2500      	movs	r5, #0
 8000cd2:	f244 070a 	movw	r7, #16394	; 0x400a
 8000cd6:	9b05      	ldr	r3, [sp, #20]
 8000cd8:	6081      	str	r1, [r0, #8]
 8000cda:	1e58      	subs	r0, r3, #1
 8000cdc:	f834 e013 	ldrh.w	lr, [r4, r3, lsl #1]
 8000ce0:	1e9e      	subs	r6, r3, #2
 8000ce2:	f1a3 0c03 	sub.w	ip, r3, #3
 8000ce6:	f834 1010 	ldrh.w	r1, [r4, r0, lsl #1]
 8000cea:	fa1f fe8e 	uxth.w	lr, lr
 8000cee:	f1a3 0804 	sub.w	r8, r3, #4
 8000cf2:	ed92 5a03 	vldr	s10, [r2, #12]
 8000cf6:	b289      	uxth	r1, r1
 8000cf8:	ee07 ea10 	vmov	s14, lr
 8000cfc:	f834 e016 	ldrh.w	lr, [r4, r6, lsl #1]
 8000d00:	3210      	adds	r2, #16
 8000d02:	ee06 1a10 	vmov	s12, r1
 8000d06:	eeb8 7bc7 	vcvt.f64.s32	d7, s14
 8000d0a:	fa1f f18e 	uxth.w	r1, lr
 8000d0e:	f834 e01c 	ldrh.w	lr, [r4, ip, lsl #1]
 8000d12:	eeb8 6bc6 	vcvt.f64.s32	d6, s12
 8000d16:	ed12 aa02 	vldr	s20, [r2, #-8]
 8000d1a:	ee09 1a10 	vmov	s18, r1
 8000d1e:	fa1f fe8e 	uxth.w	lr, lr
 8000d22:	f834 1018 	ldrh.w	r1, [r4, r8, lsl #1]
 8000d26:	eeb7 aaca 	vcvt.f64.f32	d10, s20
 8000d2a:	ee26 6b04 	vmul.f64	d6, d6, d4
 8000d2e:	ee00 ea10 	vmov	s0, lr
 8000d32:	b289      	uxth	r1, r1
 8000d34:	f103 0e01 	add.w	lr, r3, #1
 8000d38:	ed12 2a03 	vldr	s4, [r2, #-12]
 8000d3c:	f103 0802 	add.w	r8, r3, #2
 8000d40:	ee05 1a90 	vmov	s11, r1
 8000d44:	f834 101e 	ldrh.w	r1, [r4, lr, lsl #1]
 8000d48:	f834 9013 	ldrh.w	r9, [r4, r3, lsl #1]
 8000d4c:	eeb8 9bc9 	vcvt.f64.s32	d9, s18
 8000d50:	b289      	uxth	r1, r1
 8000d52:	eeb8 0bc0 	vcvt.f64.s32	d0, s0
 8000d56:	eea7 6b0b 	vfma.f64	d6, d7, d11
 8000d5a:	fa1f f989 	uxth.w	r9, r9
 8000d5e:	ee02 1a90 	vmov	s5, r1
 8000d62:	ee07 9a10 	vmov	s14, r9
 8000d66:	f834 9010 	ldrh.w	r9, [r4, r0, lsl #1]
 8000d6a:	f834 1016 	ldrh.w	r1, [r4, r6, lsl #1]
 8000d6e:	eeb8 7bc7 	vcvt.f64.s32	d7, s14
 8000d72:	fa1f f989 	uxth.w	r9, r9
 8000d76:	eeb8 8be2 	vcvt.f64.s32	d8, s5
 8000d7a:	ee01 9a10 	vmov	s2, r9
 8000d7e:	eeb8 3be5 	vcvt.f64.s32	d3, s11
 8000d82:	ee27 7b04 	vmul.f64	d7, d7, d4
 8000d86:	fa1f f981 	uxth.w	r9, r1
 8000d8a:	f834 101c 	ldrh.w	r1, [r4, ip, lsl #1]
 8000d8e:	f103 0c03 	add.w	ip, r3, #3
 8000d92:	eea9 6b0e 	vfma.f64	d6, d9, d14
 8000d96:	b289      	uxth	r1, r1
 8000d98:	eea8 7b0b 	vfma.f64	d7, d8, d11
 8000d9c:	eeb8 1bc1 	vcvt.f64.s32	d1, s2
 8000da0:	eeb7 5ac5 	vcvt.f64.f32	d5, s10
 8000da4:	eea0 6b04 	vfma.f64	d6, d0, d4
 8000da8:	ed52 0a04 	vldr	s1, [r2, #-16]
 8000dac:	eea1 7b0e 	vfma.f64	d7, d1, d14
 8000db0:	ee01 9a90 	vmov	s3, r9
 8000db4:	eeb8 1be1 	vcvt.f64.s32	d1, s3
 8000db8:	eeb7 2ac2 	vcvt.f64.f32	d2, s4
 8000dbc:	eea3 6b0b 	vfma.f64	d6, d3, d11
 8000dc0:	ee03 1a90 	vmov	s7, r1
 8000dc4:	eea1 7b04 	vfma.f64	d7, d1, d4
 8000dc8:	eeb8 3be3 	vcvt.f64.s32	d3, s7
 8000dcc:	eeb7 0ae0 	vcvt.f64.f32	d0, s1
 8000dd0:	eea5 6b4f 	vfms.f64	d6, d5, d15
 8000dd4:	eea3 7b0b 	vfma.f64	d7, d3, d11
 8000dd8:	ed9f 3b81 	vldr	d3, [pc, #516]	; 8000fe0 <main+0x908>
 8000ddc:	eeaa 6b43 	vfms.f64	d6, d10, d3
 8000de0:	eea2 6b4c 	vfms.f64	d6, d2, d12
 8000de4:	eea0 6b4d 	vfms.f64	d6, d0, d13
 8000de8:	eeb7 6bc6 	vcvt.f32.f64	s12, d6
 8000dec:	eeb7 1ac6 	vcvt.f64.f32	d1, s12
 8000df0:	ed82 6a00 	vstr	s12, [r2]
 8000df4:	eea1 7b4f 	vfms.f64	d7, d1, d15
 8000df8:	eeb0 0b47 	vmov.f64	d0, d7
 8000dfc:	eea5 0b43 	vfms.f64	d0, d5, d3
 8000e00:	eeaa 0b4c 	vfms.f64	d0, d10, d12
 8000e04:	eea2 0b4d 	vfms.f64	d0, d2, d13
 8000e08:	eeb7 0bc0 	vcvt.f32.f64	s0, d0
 8000e0c:	eefc 7ac0 	vcvt.u32.f32	s15, s0
 8000e10:	ed82 0a01 	vstr	s0, [r2, #4]
 8000e14:	eeb7 0ac0 	vcvt.f64.f32	d0, s0
 8000e18:	ee17 1a90 	vmov	r1, s15
 8000e1c:	b289      	uxth	r1, r1
 8000e1e:	f82a 1015 	strh.w	r1, [sl, r5, lsl #1]
 8000e22:	f834 9018 	ldrh.w	r9, [r4, r8, lsl #1]
 8000e26:	f834 101e 	ldrh.w	r1, [r4, lr, lsl #1]
 8000e2a:	fa1f f989 	uxth.w	r9, r9
 8000e2e:	b289      	uxth	r1, r1
 8000e30:	ee07 9a90 	vmov	s15, r9
 8000e34:	f834 9013 	ldrh.w	r9, [r4, r3, lsl #1]
 8000e38:	ee06 1a10 	vmov	s12, r1
 8000e3c:	f834 1010 	ldrh.w	r1, [r4, r0, lsl #1]
 8000e40:	eeb8 2be7 	vcvt.f64.s32	d2, s15
 8000e44:	fa1f f989 	uxth.w	r9, r9
 8000e48:	eeb8 6bc6 	vcvt.f64.s32	d6, s12
 8000e4c:	f834 6016 	ldrh.w	r6, [r4, r6, lsl #1]
 8000e50:	ee09 9a10 	vmov	s18, r9
 8000e54:	fa1f f981 	uxth.w	r9, r1
 8000e58:	f834 101c 	ldrh.w	r1, [r4, ip, lsl #1]
 8000e5c:	fa1f fc86 	uxth.w	ip, r6
 8000e60:	ee26 6b04 	vmul.f64	d6, d6, d4
 8000e64:	ee07 9a90 	vmov	s15, r9
 8000e68:	f834 6018 	ldrh.w	r6, [r4, r8, lsl #1]
 8000e6c:	b289      	uxth	r1, r1
 8000e6e:	eeb8 9bc9 	vcvt.f64.s32	d9, s18
 8000e72:	b2b6      	uxth	r6, r6
 8000e74:	eeb8 8be7 	vcvt.f64.s32	d8, s15
 8000e78:	ee07 ca90 	vmov	s15, ip
 8000e7c:	ee07 6a10 	vmov	s14, r6
 8000e80:	ee03 1a10 	vmov	s6, r1
 8000e84:	eea2 6b0b 	vfma.f64	d6, d2, d11
 8000e88:	f834 101e 	ldrh.w	r1, [r4, lr, lsl #1]
 8000e8c:	f834 6013 	ldrh.w	r6, [r4, r3, lsl #1]
 8000e90:	3304      	adds	r3, #4
 8000e92:	b289      	uxth	r1, r1
 8000e94:	b2b6      	uxth	r6, r6
 8000e96:	42bb      	cmp	r3, r7
 8000e98:	eeb8 3bc3 	vcvt.f64.s32	d3, s6
 8000e9c:	ed8d 8b02 	vstr	d8, [sp, #8]
 8000ea0:	ed8d 0b00 	vstr	d0, [sp]
 8000ea4:	eeb8 0be7 	vcvt.f64.s32	d0, s15
 8000ea8:	ee08 1a10 	vmov	s16, r1
 8000eac:	eeb8 7bc7 	vcvt.f64.s32	d7, s14
 8000eb0:	f834 1010 	ldrh.w	r1, [r4, r0, lsl #1]
 8000eb4:	eea9 6b0e 	vfma.f64	d6, d9, d14
 8000eb8:	b289      	uxth	r1, r1
 8000eba:	ee27 7b04 	vmul.f64	d7, d7, d4
 8000ebe:	eeb8 8bc8 	vcvt.f64.s32	d8, s16
 8000ec2:	ed9d 9b02 	vldr	d9, [sp, #8]
 8000ec6:	eea3 7b0b 	vfma.f64	d7, d3, d11
 8000eca:	ee03 6a90 	vmov	s7, r6
 8000ece:	eea9 6b04 	vfma.f64	d6, d9, d4
 8000ed2:	eeb8 2be3 	vcvt.f64.s32	d2, s7
 8000ed6:	ee03 1a90 	vmov	s7, r1
 8000eda:	eea8 7b0e 	vfma.f64	d7, d8, d14
 8000ede:	eea0 6b0b 	vfma.f64	d6, d0, d11
 8000ee2:	eeb8 3be3 	vcvt.f64.s32	d3, s7
 8000ee6:	ed9d 0b00 	vldr	d0, [sp]
 8000eea:	eea2 7b04 	vfma.f64	d7, d2, d4
 8000eee:	eea0 6b4f 	vfms.f64	d6, d0, d15
 8000ef2:	ed9f 2b3b 	vldr	d2, [pc, #236]	; 8000fe0 <main+0x908>
 8000ef6:	eea3 7b0b 	vfma.f64	d7, d3, d11
 8000efa:	eea1 6b42 	vfms.f64	d6, d1, d2
 8000efe:	eea5 6b4c 	vfms.f64	d6, d5, d12
 8000f02:	eeaa 6b4d 	vfms.f64	d6, d10, d13
 8000f06:	eeb7 6bc6 	vcvt.f32.f64	s12, d6
 8000f0a:	eeb7 3ac6 	vcvt.f64.f32	d3, s12
 8000f0e:	ed82 6a02 	vstr	s12, [r2, #8]
 8000f12:	eea3 7b4f 	vfms.f64	d7, d3, d15
 8000f16:	eea0 7b42 	vfms.f64	d7, d0, d2
 8000f1a:	eea1 7b4c 	vfms.f64	d7, d1, d12
 8000f1e:	eea5 7b4d 	vfms.f64	d7, d5, d13
 8000f22:	eeb7 7bc7 	vcvt.f32.f64	s14, d7
 8000f26:	eefc 7ac7 	vcvt.u32.f32	s15, s14
 8000f2a:	ed82 7a03 	vstr	s14, [r2, #12]
 8000f2e:	ee17 1a90 	vmov	r1, s15
 8000f32:	b289      	uxth	r1, r1
 8000f34:	f82b 1015 	strh.w	r1, [fp, r5, lsl #1]
 8000f38:	f105 0501 	add.w	r5, r5, #1
 8000f3c:	f47f aecd 	bne.w	8000cda <main+0x602>
 8000f40:	4b2d      	ldr	r3, [pc, #180]	; (8000ff8 <main+0x920>)
 8000f42:	4a2e      	ldr	r2, [pc, #184]	; (8000ffc <main+0x924>)
 8000f44:	881b      	ldrh	r3, [r3, #0]
 8000f46:	ed92 0a00 	vldr	s0, [r2]
 8000f4a:	b29b      	uxth	r3, r3
 8000f4c:	ed12 8a01 	vldr	s16, [r2, #-4]
 8000f50:	ed52 9a02 	vldr	s19, [r2, #-8]
 8000f54:	8263      	strh	r3, [r4, #18]
 8000f56:	4b2a      	ldr	r3, [pc, #168]	; (8001000 <main+0x928>)
 8000f58:	ed12 9a03 	vldr	s18, [r2, #-12]
 8000f5c:	881b      	ldrh	r3, [r3, #0]
 8000f5e:	4a29      	ldr	r2, [pc, #164]	; (8001004 <main+0x92c>)
 8000f60:	b29b      	uxth	r3, r3
 8000f62:	ed82 0a09 	vstr	s0, [r2, #36]	; 0x24
 8000f66:	8223      	strh	r3, [r4, #16]
 8000f68:	4b27      	ldr	r3, [pc, #156]	; (8001008 <main+0x930>)
 8000f6a:	ed82 8a08 	vstr	s16, [r2, #32]
 8000f6e:	881b      	ldrh	r3, [r3, #0]
 8000f70:	edc2 9a07 	vstr	s19, [r2, #28]
 8000f74:	b29b      	uxth	r3, r3
 8000f76:	ed82 9a06 	vstr	s18, [r2, #24]
 8000f7a:	81e3      	strh	r3, [r4, #14]
 8000f7c:	4b23      	ldr	r3, [pc, #140]	; (800100c <main+0x934>)
 8000f7e:	881b      	ldrh	r3, [r3, #0]
 8000f80:	b29b      	uxth	r3, r3
 8000f82:	81a3      	strh	r3, [r4, #12]
 8000f84:	4b22      	ldr	r3, [pc, #136]	; (8001010 <main+0x938>)
 8000f86:	69db      	ldr	r3, [r3, #28]
 8000f88:	065d      	lsls	r5, r3, #25
 8000f8a:	d5fb      	bpl.n	8000f84 <main+0x8ac>
 8000f8c:	4b21      	ldr	r3, [pc, #132]	; (8001014 <main+0x93c>)
 8000f8e:	69db      	ldr	r3, [r3, #28]
 8000f90:	0658      	lsls	r0, r3, #25
 8000f92:	d5fb      	bpl.n	8000f8c <main+0x8b4>
 8000f94:	4a20      	ldr	r2, [pc, #128]	; (8001018 <main+0x940>)
 8000f96:	2340      	movs	r3, #64	; 0x40
 8000f98:	481d      	ldr	r0, [pc, #116]	; (8001010 <main+0x938>)
 8000f9a:	f44f 6143 	mov.w	r1, #3120	; 0xc30
 8000f9e:	4d1d      	ldr	r5, [pc, #116]	; (8001014 <main+0x93c>)
 8000fa0:	6203      	str	r3, [r0, #32]
 8000fa2:	622b      	str	r3, [r5, #32]
 8000fa4:	6091      	str	r1, [r2, #8]
 8000fa6:	6a93      	ldr	r3, [r2, #40]	; 0x28
 8000fa8:	e038      	b.n	800101c <main+0x944>
 8000faa:	bf00      	nop
 8000fac:	f3af 8000 	nop.w
 8000fb0:	994b9291 	.word	0x994b9291
 8000fb4:	4008e01c 	.word	0x4008e01c
 8000fb8:	994f022d 	.word	0x994f022d
 8000fbc:	4028e01c 	.word	0x4028e01c
 8000fc0:	72fb41a2 	.word	0x72fb41a2
 8000fc4:	4032a815 	.word	0x4032a815
 8000fc8:	c346b8b7 	.word	0xc346b8b7
 8000fcc:	3ff024a2 	.word	0x3ff024a2
 8000fd0:	d3b13bfb 	.word	0xd3b13bfb
 8000fd4:	3fd01ec6 	.word	0x3fd01ec6
 8000fd8:	8a8b9ef2 	.word	0x8a8b9ef2
 8000fdc:	3fa40730 	.word	0x3fa40730
 8000fe0:	6c23e6ce 	.word	0x6c23e6ce
 8000fe4:	3fe9e756 	.word	0x3fe9e756
 8000fe8:	24009060 	.word	0x24009060
 8000fec:	2401a30c 	.word	0x2401a30c
 8000ff0:	40020400 	.word	0x40020400
 8000ff4:	2401207c 	.word	0x2401207c
 8000ff8:	24008052 	.word	0x24008052
 8000ffc:	2401a088 	.word	0x2401a088
 8001000:	24008050 	.word	0x24008050
 8001004:	2400a064 	.word	0x2400a064
 8001008:	2400804e 	.word	0x2400804e
 800100c:	2400804c 	.word	0x2400804c
 8001010:	40004800 	.word	0x40004800
 8001014:	40011000 	.word	0x40011000
 8001018:	40020000 	.word	0x40020000
 800101c:	f043 0301 	orr.w	r3, r3, #1
 8001020:	6293      	str	r3, [r2, #40]	; 0x28
 8001022:	6913      	ldr	r3, [r2, #16]
 8001024:	f043 0301 	orr.w	r3, r3, #1
 8001028:	6113      	str	r3, [r2, #16]
 800102a:	6883      	ldr	r3, [r0, #8]
 800102c:	f043 0380 	orr.w	r3, r3, #128	; 0x80
 8001030:	6083      	str	r3, [r0, #8]
 8001032:	68ab      	ldr	r3, [r5, #8]
 8001034:	f043 0380 	orr.w	r3, r3, #128	; 0x80
 8001038:	60ab      	str	r3, [r5, #8]
 800103a:	4bbb      	ldr	r3, [pc, #748]	; (8001328 <main+0xc50>)
 800103c:	681b      	ldr	r3, [r3, #0]
 800103e:	0559      	lsls	r1, r3, #21
 8001040:	d5fb      	bpl.n	800103a <main+0x962>
 8001042:	f44f 6182 	mov.w	r1, #1040	; 0x410
 8001046:	4db8      	ldr	r5, [pc, #736]	; (8001328 <main+0xc50>)
 8001048:	eeb0 2a40 	vmov.f32	s4, s0
 800104c:	4ab7      	ldr	r2, [pc, #732]	; (800132c <main+0xc54>)
 800104e:	eef0 0a69 	vmov.f32	s1, s19
 8001052:	2000      	movs	r0, #0
 8001054:	eeb0 0a49 	vmov.f32	s0, s18
 8001058:	230a      	movs	r3, #10
 800105a:	f242 090a 	movw	r9, #8202	; 0x200a
 800105e:	60a9      	str	r1, [r5, #8]
 8001060:	e007      	b.n	8001072 <main+0x99a>
 8001062:	ed92 2a09 	vldr	s4, [r2, #36]	; 0x24
 8001066:	ed92 8a08 	vldr	s16, [r2, #32]
 800106a:	edd2 0a07 	vldr	s1, [r2, #28]
 800106e:	ed92 0a06 	vldr	s0, [r2, #24]
 8001072:	1e59      	subs	r1, r3, #1
 8001074:	f834 5013 	ldrh.w	r5, [r4, r3, lsl #1]
 8001078:	1e9e      	subs	r6, r3, #2
 800107a:	1edf      	subs	r7, r3, #3
 800107c:	f834 c011 	ldrh.w	ip, [r4, r1, lsl #1]
 8001080:	b2ad      	uxth	r5, r5
 8001082:	eeb7 8ac8 	vcvt.f64.f32	d8, s16
 8001086:	f103 0e02 	add.w	lr, r3, #2
 800108a:	fa1f fc8c 	uxth.w	ip, ip
 800108e:	ee07 5a10 	vmov	s14, r5
 8001092:	f834 5016 	ldrh.w	r5, [r4, r6, lsl #1]
 8001096:	eeb7 2ac2 	vcvt.f64.f32	d2, s4
 800109a:	ee06 ca10 	vmov	s12, ip
 800109e:	f1a3 0c04 	sub.w	ip, r3, #4
 80010a2:	b2ad      	uxth	r5, r5
 80010a4:	eeb8 7bc7 	vcvt.f64.s32	d7, s14
 80010a8:	eeb8 6bc6 	vcvt.f64.s32	d6, s12
 80010ac:	3210      	adds	r2, #16
 80010ae:	ee03 5a10 	vmov	s6, r5
 80010b2:	f834 5017 	ldrh.w	r5, [r4, r7, lsl #1]
 80010b6:	f834 c01c 	ldrh.w	ip, [r4, ip, lsl #1]
 80010ba:	ee26 6b04 	vmul.f64	d6, d6, d4
 80010be:	b2ad      	uxth	r5, r5
 80010c0:	fa1f fc8c 	uxth.w	ip, ip
 80010c4:	ee05 5a10 	vmov	s10, r5
 80010c8:	1c5d      	adds	r5, r3, #1
 80010ca:	ee01 ca90 	vmov	s3, ip
 80010ce:	eeb8 3bc3 	vcvt.f64.s32	d3, s6
 80010d2:	f834 8015 	ldrh.w	r8, [r4, r5, lsl #1]
 80010d6:	eeb8 5bc5 	vcvt.f64.s32	d5, s10
 80010da:	f834 c013 	ldrh.w	ip, [r4, r3, lsl #1]
 80010de:	eeb8 9be1 	vcvt.f64.s32	d9, s3
 80010e2:	eea7 6b0b 	vfma.f64	d6, d7, d11
 80010e6:	fa1f f888 	uxth.w	r8, r8
 80010ea:	fa1f fc8c 	uxth.w	ip, ip
 80010ee:	ee01 8a10 	vmov	s2, r8
 80010f2:	f103 0803 	add.w	r8, r3, #3
 80010f6:	ee07 ca10 	vmov	s14, ip
 80010fa:	f834 c011 	ldrh.w	ip, [r4, r1, lsl #1]
 80010fe:	eeb8 1bc1 	vcvt.f64.s32	d1, s2
 8001102:	eeb8 7bc7 	vcvt.f64.s32	d7, s14
 8001106:	fa1f fc8c 	uxth.w	ip, ip
 800110a:	ed8d 8b00 	vstr	d8, [sp]
 800110e:	ee27 7b04 	vmul.f64	d7, d7, d4
 8001112:	ee08 ca10 	vmov	s16, ip
 8001116:	f834 c016 	ldrh.w	ip, [r4, r6, lsl #1]
 800111a:	f834 7017 	ldrh.w	r7, [r4, r7, lsl #1]
 800111e:	eea3 6b0e 	vfma.f64	d6, d3, d14
 8001122:	fa1f fc8c 	uxth.w	ip, ip
 8001126:	b2bf      	uxth	r7, r7
 8001128:	ee03 7a90 	vmov	s7, r7
 800112c:	eea1 7b0b 	vfma.f64	d7, d1, d11
 8001130:	eeb8 8bc8 	vcvt.f64.s32	d8, s16
 8001134:	eeb8 3be3 	vcvt.f64.s32	d3, s7
 8001138:	eea5 6b04 	vfma.f64	d6, d5, d4
 800113c:	ee05 ca90 	vmov	s11, ip
 8001140:	eea8 7b0e 	vfma.f64	d7, d8, d14
 8001144:	eeb8 abe5 	vcvt.f64.s32	d10, s11
 8001148:	edd2 5a05 	vldr	s11, [r2, #20]
 800114c:	eeb7 1ae0 	vcvt.f64.f32	d1, s1
 8001150:	eea9 6b0b 	vfma.f64	d6, d9, d11
 8001154:	eeaa 7b04 	vfma.f64	d7, d10, d4
 8001158:	eeb7 0ac0 	vcvt.f64.f32	d0, s0
 800115c:	eeb7 5ae5 	vcvt.f64.f32	d5, s11
 8001160:	eea2 6b4f 	vfms.f64	d6, d2, d15
 8001164:	edd2 2a04 	vldr	s5, [r2, #16]
 8001168:	eea3 7b0b 	vfma.f64	d7, d3, d11
 800116c:	eeb7 8ae2 	vcvt.f64.f32	d8, s5
 8001170:	edd2 2a03 	vldr	s5, [r2, #12]
 8001174:	ed9d 3b00 	vldr	d3, [sp]
 8001178:	ed9f 9b69 	vldr	d9, [pc, #420]	; 8001320 <main+0xc48>
 800117c:	eeb7 2ae2 	vcvt.f64.f32	d2, s5
 8001180:	eea3 6b49 	vfms.f64	d6, d3, d9
 8001184:	eea1 6b4c 	vfms.f64	d6, d1, d12
 8001188:	eea0 6b4d 	vfms.f64	d6, d0, d13
 800118c:	eeb7 6bc6 	vcvt.f32.f64	s12, d6
 8001190:	eeb7 3ac6 	vcvt.f64.f32	d3, s12
 8001194:	ed82 6a06 	vstr	s12, [r2, #24]
 8001198:	eea3 7b4f 	vfms.f64	d7, d3, d15
 800119c:	eea5 7b49 	vfms.f64	d7, d5, d9
 80011a0:	eea8 7b4c 	vfms.f64	d7, d8, d12
 80011a4:	eea2 7b4d 	vfms.f64	d7, d2, d13
 80011a8:	eeb7 0bc7 	vcvt.f32.f64	s0, d7
 80011ac:	eefc 7ac0 	vcvt.u32.f32	s15, s0
 80011b0:	ed82 0a07 	vstr	s0, [r2, #28]
 80011b4:	eeb7 0ac0 	vcvt.f64.f32	d0, s0
 80011b8:	ee17 7a90 	vmov	r7, s15
 80011bc:	b2bf      	uxth	r7, r7
 80011be:	f82a 7010 	strh.w	r7, [sl, r0, lsl #1]
 80011c2:	f834 c01e 	ldrh.w	ip, [r4, lr, lsl #1]
 80011c6:	f834 7015 	ldrh.w	r7, [r4, r5, lsl #1]
 80011ca:	fa1f fc8c 	uxth.w	ip, ip
 80011ce:	b2bf      	uxth	r7, r7
 80011d0:	ee07 ca90 	vmov	s15, ip
 80011d4:	ee06 7a10 	vmov	s12, r7
 80011d8:	f834 7013 	ldrh.w	r7, [r4, r3, lsl #1]
 80011dc:	eeb8 1be7 	vcvt.f64.s32	d1, s15
 80011e0:	f834 c011 	ldrh.w	ip, [r4, r1, lsl #1]
 80011e4:	eeb8 6bc6 	vcvt.f64.s32	d6, s12
 80011e8:	b2bf      	uxth	r7, r7
 80011ea:	ee0a 7a10 	vmov	s20, r7
 80011ee:	f834 7016 	ldrh.w	r7, [r4, r6, lsl #1]
 80011f2:	ee26 6b04 	vmul.f64	d6, d6, d4
 80011f6:	fa1f f68c 	uxth.w	r6, ip
 80011fa:	fa1f fc87 	uxth.w	ip, r7
 80011fe:	ee07 6a90 	vmov	s15, r6
 8001202:	f834 6018 	ldrh.w	r6, [r4, r8, lsl #1]
 8001206:	f834 701e 	ldrh.w	r7, [r4, lr, lsl #1]
 800120a:	eeb8 abca 	vcvt.f64.s32	d10, s20
 800120e:	eeb8 2be7 	vcvt.f64.s32	d2, s15
 8001212:	ee07 ca90 	vmov	s15, ip
 8001216:	b2bf      	uxth	r7, r7
 8001218:	f834 5015 	ldrh.w	r5, [r4, r5, lsl #1]
 800121c:	eea1 6b0b 	vfma.f64	d6, d1, d11
 8001220:	b2b6      	uxth	r6, r6
 8001222:	ee07 7a10 	vmov	s14, r7
 8001226:	b2ad      	uxth	r5, r5
 8001228:	ee09 5a10 	vmov	s18, r5
 800122c:	f834 5013 	ldrh.w	r5, [r4, r3, lsl #1]
 8001230:	f834 1011 	ldrh.w	r1, [r4, r1, lsl #1]
 8001234:	3304      	adds	r3, #4
 8001236:	eeb8 9bc9 	vcvt.f64.s32	d9, s18
 800123a:	b2ad      	uxth	r5, r5
 800123c:	b289      	uxth	r1, r1
 800123e:	454b      	cmp	r3, r9
 8001240:	ed8d 2b00 	vstr	d2, [sp]
 8001244:	eeb8 2be7 	vcvt.f64.s32	d2, s15
 8001248:	eeb8 7bc7 	vcvt.f64.s32	d7, s14
 800124c:	eeaa 6b0e 	vfma.f64	d6, d10, d14
 8001250:	ee27 7b04 	vmul.f64	d7, d7, d4
 8001254:	ed8d 2b02 	vstr	d2, [sp, #8]
 8001258:	ee02 6a90 	vmov	s5, r6
 800125c:	eeb8 2be2 	vcvt.f64.s32	d2, s5
 8001260:	ed9d ab02 	vldr	d10, [sp, #8]
 8001264:	eea2 7b0b 	vfma.f64	d7, d2, d11
 8001268:	ed9d 2b00 	vldr	d2, [sp]
 800126c:	eea2 6b04 	vfma.f64	d6, d2, d4
 8001270:	ee02 5a90 	vmov	s5, r5
 8001274:	eea9 7b0e 	vfma.f64	d7, d9, d14
 8001278:	eeb8 1be2 	vcvt.f64.s32	d1, s5
 800127c:	ee02 1a90 	vmov	s5, r1
 8001280:	eeaa 6b0b 	vfma.f64	d6, d10, d11
 8001284:	eea1 7b04 	vfma.f64	d7, d1, d4
 8001288:	eeb8 2be2 	vcvt.f64.s32	d2, s5
 800128c:	eea0 6b4f 	vfms.f64	d6, d0, d15
 8001290:	eea2 7b0b 	vfma.f64	d7, d2, d11
 8001294:	ed9f 1b22 	vldr	d1, [pc, #136]	; 8001320 <main+0xc48>
 8001298:	eea3 6b41 	vfms.f64	d6, d3, d1
 800129c:	eea5 6b4c 	vfms.f64	d6, d5, d12
 80012a0:	eea8 6b4d 	vfms.f64	d6, d8, d13
 80012a4:	eeb7 6bc6 	vcvt.f32.f64	s12, d6
 80012a8:	eeb7 2ac6 	vcvt.f64.f32	d2, s12
 80012ac:	ed82 6a08 	vstr	s12, [r2, #32]
 80012b0:	eea2 7b4f 	vfms.f64	d7, d2, d15
 80012b4:	eea0 7b41 	vfms.f64	d7, d0, d1
 80012b8:	eea3 7b4c 	vfms.f64	d7, d3, d12
 80012bc:	eea5 7b4d 	vfms.f64	d7, d5, d13
 80012c0:	eeb7 7bc7 	vcvt.f32.f64	s14, d7
 80012c4:	eefc 7ac7 	vcvt.u32.f32	s15, s14
 80012c8:	ed82 7a09 	vstr	s14, [r2, #36]	; 0x24
 80012cc:	ee17 1a90 	vmov	r1, s15
 80012d0:	b289      	uxth	r1, r1
 80012d2:	f82b 1010 	strh.w	r1, [fp, r0, lsl #1]
 80012d6:	f100 0001 	add.w	r0, r0, #1
 80012da:	f47f aec2 	bne.w	8001062 <main+0x98a>
 80012de:	4b14      	ldr	r3, [pc, #80]	; (8001330 <main+0xc58>)
 80012e0:	69db      	ldr	r3, [r3, #28]
 80012e2:	065a      	lsls	r2, r3, #25
 80012e4:	d5fb      	bpl.n	80012de <main+0xc06>
 80012e6:	4813      	ldr	r0, [pc, #76]	; (8001334 <main+0xc5c>)
 80012e8:	69c3      	ldr	r3, [r0, #28]
 80012ea:	065b      	lsls	r3, r3, #25
 80012ec:	d5fb      	bpl.n	80012e6 <main+0xc0e>
 80012ee:	4a12      	ldr	r2, [pc, #72]	; (8001338 <main+0xc60>)
 80012f0:	2340      	movs	r3, #64	; 0x40
 80012f2:	4d0f      	ldr	r5, [pc, #60]	; (8001330 <main+0xc58>)
 80012f4:	f44f 6143 	mov.w	r1, #3120	; 0xc30
 80012f8:	622b      	str	r3, [r5, #32]
 80012fa:	6203      	str	r3, [r0, #32]
 80012fc:	6091      	str	r1, [r2, #8]
 80012fe:	6a93      	ldr	r3, [r2, #40]	; 0x28
 8001300:	f043 0301 	orr.w	r3, r3, #1
 8001304:	6293      	str	r3, [r2, #40]	; 0x28
 8001306:	6913      	ldr	r3, [r2, #16]
 8001308:	f043 0301 	orr.w	r3, r3, #1
 800130c:	6113      	str	r3, [r2, #16]
 800130e:	68ab      	ldr	r3, [r5, #8]
 8001310:	f043 0380 	orr.w	r3, r3, #128	; 0x80
 8001314:	60ab      	str	r3, [r5, #8]
 8001316:	6883      	ldr	r3, [r0, #8]
 8001318:	f043 0380 	orr.w	r3, r3, #128	; 0x80
 800131c:	6083      	str	r3, [r0, #8]
 800131e:	e4cf      	b.n	8000cc0 <main+0x5e8>
 8001320:	6c23e6ce 	.word	0x6c23e6ce
 8001324:	3fe9e756 	.word	0x3fe9e756
 8001328:	40020400 	.word	0x40020400
 800132c:	2400a064 	.word	0x2400a064
 8001330:	40004800 	.word	0x40004800
 8001334:	40011000 	.word	0x40011000
 8001338:	40020000 	.word	0x40020000

0800133c <HAL_SPI_ErrorCallback>:
 800133c:	b508      	push	{r3, lr}
 800133e:	2202      	movs	r2, #2
 8001340:	4b01      	ldr	r3, [pc, #4]	; (8001348 <HAL_SPI_ErrorCallback+0xc>)
 8001342:	601a      	str	r2, [r3, #0]
 8001344:	f7ff f956 	bl	80005f4 <Error_Handler>
 8001348:	2400a060 	.word	0x2400a060

0800134c <HAL_UART_ErrorCallback>:
 800134c:	b508      	push	{r3, lr}
 800134e:	2002      	movs	r0, #2
 8001350:	f000 fb08 	bl	8001964 <BSP_LED_On>
 8001354:	f7ff f94e 	bl	80005f4 <Error_Handler>

08001358 <HAL_MspInit>:
 8001358:	4b07      	ldr	r3, [pc, #28]	; (8001378 <HAL_MspInit+0x20>)
 800135a:	b082      	sub	sp, #8
 800135c:	f8d3 20f4 	ldr.w	r2, [r3, #244]	; 0xf4
 8001360:	f042 0202 	orr.w	r2, r2, #2
 8001364:	f8c3 20f4 	str.w	r2, [r3, #244]	; 0xf4
 8001368:	f8d3 30f4 	ldr.w	r3, [r3, #244]	; 0xf4
 800136c:	f003 0302 	and.w	r3, r3, #2
 8001370:	9301      	str	r3, [sp, #4]
 8001372:	9b01      	ldr	r3, [sp, #4]
 8001374:	b002      	add	sp, #8
 8001376:	4770      	bx	lr
 8001378:	58024400 	.word	0x58024400

0800137c <HAL_SPI_MspInit>:
 800137c:	e92d 41f0 	stmdb	sp!, {r4, r5, r6, r7, r8, lr}
 8001380:	2400      	movs	r4, #0
 8001382:	b0ba      	sub	sp, #232	; 0xe8
 8001384:	4605      	mov	r5, r0
 8001386:	22bc      	movs	r2, #188	; 0xbc
 8001388:	4621      	mov	r1, r4
 800138a:	a80b      	add	r0, sp, #44	; 0x2c
 800138c:	940a      	str	r4, [sp, #40]	; 0x28
 800138e:	e9cd 4406 	strd	r4, r4, [sp, #24]
 8001392:	e9cd 4408 	strd	r4, r4, [sp, #32]
 8001396:	f004 ffcb 	bl	8006330 <memset>
 800139a:	682b      	ldr	r3, [r5, #0]
 800139c:	4a8b      	ldr	r2, [pc, #556]	; (80015cc <HAL_SPI_MspInit+0x250>)
 800139e:	4293      	cmp	r3, r2
 80013a0:	d005      	beq.n	80013ae <HAL_SPI_MspInit+0x32>
 80013a2:	4a8b      	ldr	r2, [pc, #556]	; (80015d0 <HAL_SPI_MspInit+0x254>)
 80013a4:	4293      	cmp	r3, r2
 80013a6:	d06d      	beq.n	8001484 <HAL_SPI_MspInit+0x108>
 80013a8:	b03a      	add	sp, #232	; 0xe8
 80013aa:	e8bd 81f0 	ldmia.w	sp!, {r4, r5, r6, r7, r8, pc}
 80013ae:	f44f 5280 	mov.w	r2, #4096	; 0x1000
 80013b2:	f44f 708c 	mov.w	r0, #280	; 0x118
 80013b6:	2604      	movs	r6, #4
 80013b8:	2302      	movs	r3, #2
 80013ba:	2108      	movs	r1, #8
 80013bc:	920b      	str	r2, [sp, #44]	; 0x2c
 80013be:	9222      	str	r2, [sp, #136]	; 0x88
 80013c0:	2240      	movs	r2, #64	; 0x40
 80013c2:	e9cd 600c 	strd	r6, r0, [sp, #48]	; 0x30
 80013c6:	a80b      	add	r0, sp, #44	; 0x2c
 80013c8:	e9cd 4412 	strd	r4, r4, [sp, #72]	; 0x48
 80013cc:	e9cd 130e 	strd	r1, r3, [sp, #56]	; 0x38
 80013d0:	e9cd 3210 	strd	r3, r2, [sp, #64]	; 0x40
 80013d4:	f002 ffce 	bl	8004374 <HAL_RCCEx_PeriphCLKConfig>
 80013d8:	2800      	cmp	r0, #0
 80013da:	f040 80ee 	bne.w	80015ba <HAL_SPI_MspInit+0x23e>
 80013de:	4b7d      	ldr	r3, [pc, #500]	; (80015d4 <HAL_SPI_MspInit+0x258>)
 80013e0:	2102      	movs	r1, #2
 80013e2:	f248 0060 	movw	r0, #32864	; 0x8060
 80013e6:	2600      	movs	r6, #0
 80013e8:	f8d3 20f0 	ldr.w	r2, [r3, #240]	; 0xf0
 80013ec:	2725      	movs	r7, #37	; 0x25
 80013ee:	4c7a      	ldr	r4, [pc, #488]	; (80015d8 <HAL_SPI_MspInit+0x25c>)
 80013f0:	f442 5280 	orr.w	r2, r2, #4096	; 0x1000
 80013f4:	f8c3 20f0 	str.w	r2, [r3, #240]	; 0xf0
 80013f8:	f8d3 20f0 	ldr.w	r2, [r3, #240]	; 0xf0
 80013fc:	f402 5280 	and.w	r2, r2, #4096	; 0x1000
 8001400:	9200      	str	r2, [sp, #0]
 8001402:	9a00      	ldr	r2, [sp, #0]
 8001404:	f8d3 20e0 	ldr.w	r2, [r3, #224]	; 0xe0
 8001408:	f042 0201 	orr.w	r2, r2, #1
 800140c:	f8c3 20e0 	str.w	r2, [r3, #224]	; 0xe0
 8001410:	2205      	movs	r2, #5
 8001412:	f8d3 30e0 	ldr.w	r3, [r3, #224]	; 0xe0
 8001416:	9006      	str	r0, [sp, #24]
 8001418:	f003 0301 	and.w	r3, r3, #1
 800141c:	486f      	ldr	r0, [pc, #444]	; (80015dc <HAL_SPI_MspInit+0x260>)
 800141e:	9107      	str	r1, [sp, #28]
 8001420:	9109      	str	r1, [sp, #36]	; 0x24
 8001422:	a906      	add	r1, sp, #24
 8001424:	9301      	str	r3, [sp, #4]
 8001426:	9b01      	ldr	r3, [sp, #4]
 8001428:	920a      	str	r2, [sp, #40]	; 0x28
 800142a:	9608      	str	r6, [sp, #32]
 800142c:	f002 f844 	bl	80034b8 <HAL_GPIO_Init>
 8001430:	4b6b      	ldr	r3, [pc, #428]	; (80015e0 <HAL_SPI_MspInit+0x264>)
 8001432:	f44f 6080 	mov.w	r0, #1024	; 0x400
 8001436:	f44f 6100 	mov.w	r1, #2048	; 0x800
 800143a:	f44f 5200 	mov.w	r2, #8192	; 0x2000
 800143e:	6023      	str	r3, [r4, #0]
 8001440:	f44f 7380 	mov.w	r3, #256	; 0x100
 8001444:	6120      	str	r0, [r4, #16]
 8001446:	4620      	mov	r0, r4
 8001448:	60a6      	str	r6, [r4, #8]
 800144a:	60e6      	str	r6, [r4, #12]
 800144c:	6326      	str	r6, [r4, #48]	; 0x30
 800144e:	6067      	str	r7, [r4, #4]
 8001450:	61e3      	str	r3, [r4, #28]
 8001452:	e9c4 6608 	strd	r6, r6, [r4, #32]
 8001456:	e9c4 660a 	strd	r6, r6, [r4, #40]	; 0x28
 800145a:	e9c4 1205 	strd	r1, r2, [r4, #20]
 800145e:	f000 fec9 	bl	80021f4 <HAL_DMA_Init>
 8001462:	2800      	cmp	r0, #0
 8001464:	f040 80a6 	bne.w	80015b4 <HAL_SPI_MspInit+0x238>
 8001468:	2200      	movs	r2, #0
 800146a:	2023      	movs	r0, #35	; 0x23
 800146c:	67ec      	str	r4, [r5, #124]	; 0x7c
 800146e:	4611      	mov	r1, r2
 8001470:	63a5      	str	r5, [r4, #56]	; 0x38
 8001472:	f000 fc49 	bl	8001d08 <HAL_NVIC_SetPriority>
 8001476:	2023      	movs	r0, #35	; 0x23
 8001478:	f000 fc80 	bl	8001d7c <HAL_NVIC_EnableIRQ>
 800147c:	682b      	ldr	r3, [r5, #0]
 800147e:	4a54      	ldr	r2, [pc, #336]	; (80015d0 <HAL_SPI_MspInit+0x254>)
 8001480:	4293      	cmp	r3, r2
 8001482:	d191      	bne.n	80013a8 <HAL_SPI_MspInit+0x2c>
 8001484:	f44f 5380 	mov.w	r3, #4096	; 0x1000
 8001488:	2104      	movs	r1, #4
 800148a:	2202      	movs	r2, #2
 800148c:	f44f 768c 	mov.w	r6, #280	; 0x118
 8001490:	2408      	movs	r4, #8
 8001492:	930b      	str	r3, [sp, #44]	; 0x2c
 8001494:	9322      	str	r3, [sp, #136]	; 0x88
 8001496:	2300      	movs	r3, #0
 8001498:	910c      	str	r1, [sp, #48]	; 0x30
 800149a:	2140      	movs	r1, #64	; 0x40
 800149c:	a80b      	add	r0, sp, #44	; 0x2c
 800149e:	960d      	str	r6, [sp, #52]	; 0x34
 80014a0:	e9cd 420e 	strd	r4, r2, [sp, #56]	; 0x38
 80014a4:	e9cd 2110 	strd	r2, r1, [sp, #64]	; 0x40
 80014a8:	e9cd 3312 	strd	r3, r3, [sp, #72]	; 0x48
 80014ac:	f002 ff62 	bl	8004374 <HAL_RCCEx_PeriphCLKConfig>
 80014b0:	2800      	cmp	r0, #0
 80014b2:	f040 8088 	bne.w	80015c6 <HAL_SPI_MspInit+0x24a>
 80014b6:	4b47      	ldr	r3, [pc, #284]	; (80015d4 <HAL_SPI_MspInit+0x258>)
 80014b8:	2702      	movs	r7, #2
 80014ba:	200c      	movs	r0, #12
 80014bc:	2600      	movs	r6, #0
 80014be:	f8d3 20e8 	ldr.w	r2, [r3, #232]	; 0xe8
 80014c2:	f04f 0805 	mov.w	r8, #5
 80014c6:	a906      	add	r1, sp, #24
 80014c8:	4c46      	ldr	r4, [pc, #280]	; (80015e4 <HAL_SPI_MspInit+0x268>)
 80014ca:	f442 4280 	orr.w	r2, r2, #16384	; 0x4000
 80014ce:	f8c3 20e8 	str.w	r2, [r3, #232]	; 0xe8
 80014d2:	f8d3 20e8 	ldr.w	r2, [r3, #232]	; 0xe8
 80014d6:	f402 4280 	and.w	r2, r2, #16384	; 0x4000
 80014da:	9202      	str	r2, [sp, #8]
 80014dc:	9a02      	ldr	r2, [sp, #8]
 80014de:	f8d3 20e0 	ldr.w	r2, [r3, #224]	; 0xe0
 80014e2:	f042 0204 	orr.w	r2, r2, #4
 80014e6:	f8c3 20e0 	str.w	r2, [r3, #224]	; 0xe0
 80014ea:	f8d3 20e0 	ldr.w	r2, [r3, #224]	; 0xe0
 80014ee:	f002 0204 	and.w	r2, r2, #4
 80014f2:	9203      	str	r2, [sp, #12]
 80014f4:	9a03      	ldr	r2, [sp, #12]
 80014f6:	f8d3 20e0 	ldr.w	r2, [r3, #224]	; 0xe0
 80014fa:	433a      	orrs	r2, r7
 80014fc:	f8c3 20e0 	str.w	r2, [r3, #224]	; 0xe0
 8001500:	f8d3 20e0 	ldr.w	r2, [r3, #224]	; 0xe0
 8001504:	403a      	ands	r2, r7
 8001506:	9204      	str	r2, [sp, #16]
 8001508:	9a04      	ldr	r2, [sp, #16]
 800150a:	f8d3 20e0 	ldr.w	r2, [r3, #224]	; 0xe0
 800150e:	f042 0208 	orr.w	r2, r2, #8
 8001512:	f8c3 20e0 	str.w	r2, [r3, #224]	; 0xe0
 8001516:	f8d3 30e0 	ldr.w	r3, [r3, #224]	; 0xe0
 800151a:	9006      	str	r0, [sp, #24]
 800151c:	f003 0308 	and.w	r3, r3, #8
 8001520:	4831      	ldr	r0, [pc, #196]	; (80015e8 <HAL_SPI_MspInit+0x26c>)
 8001522:	9707      	str	r7, [sp, #28]
 8001524:	9305      	str	r3, [sp, #20]
 8001526:	9b05      	ldr	r3, [sp, #20]
 8001528:	f8cd 8028 	str.w	r8, [sp, #40]	; 0x28
 800152c:	e9cd 6708 	strd	r6, r7, [sp, #32]
 8001530:	f001 ffc2 	bl	80034b8 <HAL_GPIO_Init>
 8001534:	f44f 5380 	mov.w	r3, #4096	; 0x1000
 8001538:	a906      	add	r1, sp, #24
 800153a:	482c      	ldr	r0, [pc, #176]	; (80015ec <HAL_SPI_MspInit+0x270>)
 800153c:	9306      	str	r3, [sp, #24]
 800153e:	e9cd 7607 	strd	r7, r6, [sp, #28]
 8001542:	e9cd 7809 	strd	r7, r8, [sp, #36]	; 0x24
 8001546:	f001 ffb7 	bl	80034b8 <HAL_GPIO_Init>
 800154a:	2308      	movs	r3, #8
 800154c:	a906      	add	r1, sp, #24
 800154e:	4828      	ldr	r0, [pc, #160]	; (80015f0 <HAL_SPI_MspInit+0x274>)
 8001550:	9709      	str	r7, [sp, #36]	; 0x24
 8001552:	9306      	str	r3, [sp, #24]
 8001554:	f8cd 8028 	str.w	r8, [sp, #40]	; 0x28
 8001558:	e9cd 7607 	strd	r7, r6, [sp, #28]
 800155c:	f001 ffac 	bl	80034b8 <HAL_GPIO_Init>
 8001560:	f44f 6780 	mov.w	r7, #1024	; 0x400
 8001564:	f8df e08c 	ldr.w	lr, [pc, #140]	; 80015f4 <HAL_SPI_MspInit+0x278>
 8001568:	f04f 0c27 	mov.w	ip, #39	; 0x27
 800156c:	f44f 6100 	mov.w	r1, #2048	; 0x800
 8001570:	f44f 5200 	mov.w	r2, #8192	; 0x2000
 8001574:	f44f 7380 	mov.w	r3, #256	; 0x100
 8001578:	4620      	mov	r0, r4
 800157a:	6326      	str	r6, [r4, #48]	; 0x30
 800157c:	e9c4 6602 	strd	r6, r6, [r4, #8]
 8001580:	e9c4 6608 	strd	r6, r6, [r4, #32]
 8001584:	e9c4 660a 	strd	r6, r6, [r4, #40]	; 0x28
 8001588:	e9c4 ec00 	strd	lr, ip, [r4]
 800158c:	e9c4 7104 	strd	r7, r1, [r4, #16]
 8001590:	e9c4 2306 	strd	r2, r3, [r4, #24]
 8001594:	f000 fe2e 	bl	80021f4 <HAL_DMA_Init>
 8001598:	b990      	cbnz	r0, 80015c0 <HAL_SPI_MspInit+0x244>
 800159a:	2200      	movs	r2, #0
 800159c:	2024      	movs	r0, #36	; 0x24
 800159e:	67ec      	str	r4, [r5, #124]	; 0x7c
 80015a0:	4611      	mov	r1, r2
 80015a2:	63a5      	str	r5, [r4, #56]	; 0x38
 80015a4:	f000 fbb0 	bl	8001d08 <HAL_NVIC_SetPriority>
 80015a8:	2024      	movs	r0, #36	; 0x24
 80015aa:	f000 fbe7 	bl	8001d7c <HAL_NVIC_EnableIRQ>
 80015ae:	b03a      	add	sp, #232	; 0xe8
 80015b0:	e8bd 81f0 	ldmia.w	sp!, {r4, r5, r6, r7, r8, pc}
 80015b4:	f7ff f81e 	bl	80005f4 <Error_Handler>
 80015b8:	e756      	b.n	8001468 <HAL_SPI_MspInit+0xec>
 80015ba:	f7ff f81b 	bl	80005f4 <Error_Handler>
 80015be:	e70e      	b.n	80013de <HAL_SPI_MspInit+0x62>
 80015c0:	f7ff f818 	bl	80005f4 <Error_Handler>
 80015c4:	e7e9      	b.n	800159a <HAL_SPI_MspInit+0x21e>
 80015c6:	f7ff f815 	bl	80005f4 <Error_Handler>
 80015ca:	e774      	b.n	80014b6 <HAL_SPI_MspInit+0x13a>
 80015cc:	40013000 	.word	0x40013000
 80015d0:	40003800 	.word	0x40003800
 80015d4:	58024400 	.word	0x58024400
 80015d8:	2401a424 	.word	0x2401a424
 80015dc:	58020000 	.word	0x58020000
 80015e0:	40020410 	.word	0x40020410
 80015e4:	2401a1a4 	.word	0x2401a1a4
 80015e8:	58020800 	.word	0x58020800
 80015ec:	58020400 	.word	0x58020400
 80015f0:	58020c00 	.word	0x58020c00
 80015f4:	40020428 	.word	0x40020428

080015f8 <HAL_UART_MspInit>:
 80015f8:	e92d 41f0 	stmdb	sp!, {r4, r5, r6, r7, r8, lr}
 80015fc:	2400      	movs	r4, #0
 80015fe:	b0b8      	sub	sp, #224	; 0xe0
 8001600:	4605      	mov	r5, r0
 8001602:	22bc      	movs	r2, #188	; 0xbc
 8001604:	4621      	mov	r1, r4
 8001606:	a809      	add	r0, sp, #36	; 0x24
 8001608:	9408      	str	r4, [sp, #32]
 800160a:	e9cd 4404 	strd	r4, r4, [sp, #16]
 800160e:	e9cd 4406 	strd	r4, r4, [sp, #24]
 8001612:	f004 fe8d 	bl	8006330 <memset>
 8001616:	682b      	ldr	r3, [r5, #0]
 8001618:	4a67      	ldr	r2, [pc, #412]	; (80017b8 <HAL_UART_MspInit+0x1c0>)
 800161a:	4293      	cmp	r3, r2
 800161c:	d005      	beq.n	800162a <HAL_UART_MspInit+0x32>
 800161e:	4a67      	ldr	r2, [pc, #412]	; (80017bc <HAL_UART_MspInit+0x1c4>)
 8001620:	4293      	cmp	r3, r2
 8001622:	d06b      	beq.n	80016fc <HAL_UART_MspInit+0x104>
 8001624:	b038      	add	sp, #224	; 0xe0
 8001626:	e8bd 81f0 	ldmia.w	sp!, {r4, r5, r6, r7, r8, pc}
 800162a:	2101      	movs	r1, #1
 800162c:	2210      	movs	r2, #16
 800162e:	2304      	movs	r3, #4
 8001630:	f44f 76b8 	mov.w	r6, #368	; 0x170
 8001634:	9418      	str	r4, [sp, #96]	; 0x60
 8001636:	a809      	add	r0, sp, #36	; 0x24
 8001638:	9419      	str	r4, [sp, #100]	; 0x64
 800163a:	2409      	movs	r4, #9
 800163c:	9109      	str	r1, [sp, #36]	; 0x24
 800163e:	2108      	movs	r1, #8
 8001640:	9227      	str	r2, [sp, #156]	; 0x9c
 8001642:	2202      	movs	r2, #2
 8001644:	9312      	str	r3, [sp, #72]	; 0x48
 8001646:	f44f 6380 	mov.w	r3, #1024	; 0x400
 800164a:	e9cd 6413 	strd	r6, r4, [sp, #76]	; 0x4c
 800164e:	e9cd 1215 	strd	r1, r2, [sp, #84]	; 0x54
 8001652:	9317      	str	r3, [sp, #92]	; 0x5c
 8001654:	f002 fe8e 	bl	8004374 <HAL_RCCEx_PeriphCLKConfig>
 8001658:	2800      	cmp	r0, #0
 800165a:	f040 80a7 	bne.w	80017ac <HAL_UART_MspInit+0x1b4>
 800165e:	4b58      	ldr	r3, [pc, #352]	; (80017c0 <HAL_UART_MspInit+0x1c8>)
 8001660:	2402      	movs	r4, #2
 8001662:	2701      	movs	r7, #1
 8001664:	f44f 4100 	mov.w	r1, #32768	; 0x8000
 8001668:	f8d3 20f0 	ldr.w	r2, [r3, #240]	; 0xf0
 800166c:	2004      	movs	r0, #4
 800166e:	2600      	movs	r6, #0
 8001670:	f04f 0840 	mov.w	r8, #64	; 0x40
 8001674:	f042 0210 	orr.w	r2, r2, #16
 8001678:	f8c3 20f0 	str.w	r2, [r3, #240]	; 0xf0
 800167c:	f8d3 20f0 	ldr.w	r2, [r3, #240]	; 0xf0
 8001680:	f002 0210 	and.w	r2, r2, #16
 8001684:	9200      	str	r2, [sp, #0]
 8001686:	9a00      	ldr	r2, [sp, #0]
 8001688:	f8d3 20e0 	ldr.w	r2, [r3, #224]	; 0xe0
 800168c:	4322      	orrs	r2, r4
 800168e:	f8c3 20e0 	str.w	r2, [r3, #224]	; 0xe0
 8001692:	f8d3 30e0 	ldr.w	r3, [r3, #224]	; 0xe0
 8001696:	9104      	str	r1, [sp, #16]
 8001698:	a904      	add	r1, sp, #16
 800169a:	4023      	ands	r3, r4
 800169c:	e9cd 7007 	strd	r7, r0, [sp, #28]
 80016a0:	9301      	str	r3, [sp, #4]
 80016a2:	4848      	ldr	r0, [pc, #288]	; (80017c4 <HAL_UART_MspInit+0x1cc>)
 80016a4:	9b01      	ldr	r3, [sp, #4]
 80016a6:	e9cd 4605 	strd	r4, r6, [sp, #20]
 80016aa:	f001 ff05 	bl	80034b8 <HAL_GPIO_Init>
 80016ae:	2307      	movs	r3, #7
 80016b0:	a904      	add	r1, sp, #16
 80016b2:	4844      	ldr	r0, [pc, #272]	; (80017c4 <HAL_UART_MspInit+0x1cc>)
 80016b4:	9405      	str	r4, [sp, #20]
 80016b6:	9308      	str	r3, [sp, #32]
 80016b8:	4c43      	ldr	r4, [pc, #268]	; (80017c8 <HAL_UART_MspInit+0x1d0>)
 80016ba:	f8cd 8010 	str.w	r8, [sp, #16]
 80016be:	e9cd 6706 	strd	r6, r7, [sp, #24]
 80016c2:	f001 fef9 	bl	80034b8 <HAL_GPIO_Init>
 80016c6:	f44f 6280 	mov.w	r2, #1024	; 0x400
 80016ca:	f44f 5300 	mov.w	r3, #8192	; 0x2000
 80016ce:	4f3f      	ldr	r7, [pc, #252]	; (80017cc <HAL_UART_MspInit+0x1d4>)
 80016d0:	212a      	movs	r1, #42	; 0x2a
 80016d2:	4620      	mov	r0, r4
 80016d4:	6122      	str	r2, [r4, #16]
 80016d6:	61a3      	str	r3, [r4, #24]
 80016d8:	f8c4 8008 	str.w	r8, [r4, #8]
 80016dc:	60e6      	str	r6, [r4, #12]
 80016de:	6166      	str	r6, [r4, #20]
 80016e0:	6266      	str	r6, [r4, #36]	; 0x24
 80016e2:	e9c4 6607 	strd	r6, r6, [r4, #28]
 80016e6:	e9c4 7100 	strd	r7, r1, [r4]
 80016ea:	f000 fd83 	bl	80021f4 <HAL_DMA_Init>
 80016ee:	2800      	cmp	r0, #0
 80016f0:	d159      	bne.n	80017a6 <HAL_UART_MspInit+0x1ae>
 80016f2:	67ac      	str	r4, [r5, #120]	; 0x78
 80016f4:	63a5      	str	r5, [r4, #56]	; 0x38
 80016f6:	b038      	add	sp, #224	; 0xe0
 80016f8:	e8bd 81f0 	ldmia.w	sp!, {r4, r5, r6, r7, r8, pc}
 80016fc:	2302      	movs	r3, #2
 80016fe:	2704      	movs	r7, #4
 8001700:	f44f 76b8 	mov.w	r6, #368	; 0x170
 8001704:	2109      	movs	r1, #9
 8001706:	2208      	movs	r2, #8
 8001708:	9309      	str	r3, [sp, #36]	; 0x24
 800170a:	9326      	str	r3, [sp, #152]	; 0x98
 800170c:	a809      	add	r0, sp, #36	; 0x24
 800170e:	9316      	str	r3, [sp, #88]	; 0x58
 8001710:	f44f 6380 	mov.w	r3, #1024	; 0x400
 8001714:	9418      	str	r4, [sp, #96]	; 0x60
 8001716:	9419      	str	r4, [sp, #100]	; 0x64
 8001718:	9317      	str	r3, [sp, #92]	; 0x5c
 800171a:	e9cd 7612 	strd	r7, r6, [sp, #72]	; 0x48
 800171e:	e9cd 1214 	strd	r1, r2, [sp, #80]	; 0x50
 8001722:	f002 fe27 	bl	8004374 <HAL_RCCEx_PeriphCLKConfig>
 8001726:	2800      	cmp	r0, #0
 8001728:	d143      	bne.n	80017b2 <HAL_UART_MspInit+0x1ba>
 800172a:	4b25      	ldr	r3, [pc, #148]	; (80017c0 <HAL_UART_MspInit+0x1c8>)
 800172c:	2002      	movs	r0, #2
 800172e:	2600      	movs	r6, #0
 8001730:	f44f 7440 	mov.w	r4, #768	; 0x300
 8001734:	f8d3 20e8 	ldr.w	r2, [r3, #232]	; 0xe8
 8001738:	a904      	add	r1, sp, #16
 800173a:	272e      	movs	r7, #46	; 0x2e
 800173c:	f442 2280 	orr.w	r2, r2, #262144	; 0x40000
 8001740:	f8c3 20e8 	str.w	r2, [r3, #232]	; 0xe8
 8001744:	f8d3 20e8 	ldr.w	r2, [r3, #232]	; 0xe8
 8001748:	f402 2280 	and.w	r2, r2, #262144	; 0x40000
 800174c:	9202      	str	r2, [sp, #8]
 800174e:	9a02      	ldr	r2, [sp, #8]
 8001750:	f8d3 20e0 	ldr.w	r2, [r3, #224]	; 0xe0
 8001754:	f042 0208 	orr.w	r2, r2, #8
 8001758:	f8c3 20e0 	str.w	r2, [r3, #224]	; 0xe0
 800175c:	2207      	movs	r2, #7
 800175e:	f8d3 30e0 	ldr.w	r3, [r3, #224]	; 0xe0
 8001762:	9005      	str	r0, [sp, #20]
 8001764:	f003 0308 	and.w	r3, r3, #8
 8001768:	4819      	ldr	r0, [pc, #100]	; (80017d0 <HAL_UART_MspInit+0x1d8>)
 800176a:	9404      	str	r4, [sp, #16]
 800176c:	9303      	str	r3, [sp, #12]
 800176e:	4c19      	ldr	r4, [pc, #100]	; (80017d4 <HAL_UART_MspInit+0x1dc>)
 8001770:	9b03      	ldr	r3, [sp, #12]
 8001772:	9208      	str	r2, [sp, #32]
 8001774:	e9cd 6606 	strd	r6, r6, [sp, #24]
 8001778:	f001 fe9e 	bl	80034b8 <HAL_GPIO_Init>
 800177c:	4816      	ldr	r0, [pc, #88]	; (80017d8 <HAL_UART_MspInit+0x1e0>)
 800177e:	f44f 6280 	mov.w	r2, #1024	; 0x400
 8001782:	f44f 5300 	mov.w	r3, #8192	; 0x2000
 8001786:	2140      	movs	r1, #64	; 0x40
 8001788:	6020      	str	r0, [r4, #0]
 800178a:	6122      	str	r2, [r4, #16]
 800178c:	4620      	mov	r0, r4
 800178e:	61a3      	str	r3, [r4, #24]
 8001790:	60e6      	str	r6, [r4, #12]
 8001792:	6166      	str	r6, [r4, #20]
 8001794:	6266      	str	r6, [r4, #36]	; 0x24
 8001796:	e9c4 6607 	strd	r6, r6, [r4, #28]
 800179a:	e9c4 7101 	strd	r7, r1, [r4, #4]
 800179e:	f000 fd29 	bl	80021f4 <HAL_DMA_Init>
 80017a2:	2800      	cmp	r0, #0
 80017a4:	d0a5      	beq.n	80016f2 <HAL_UART_MspInit+0xfa>
 80017a6:	f7fe ff25 	bl	80005f4 <Error_Handler>
 80017aa:	e7a2      	b.n	80016f2 <HAL_UART_MspInit+0xfa>
 80017ac:	f7fe ff22 	bl	80005f4 <Error_Handler>
 80017b0:	e755      	b.n	800165e <HAL_UART_MspInit+0x66>
 80017b2:	f7fe ff1f 	bl	80005f4 <Error_Handler>
 80017b6:	e7b8      	b.n	800172a <HAL_UART_MspInit+0x132>
 80017b8:	40011000 	.word	0x40011000
 80017bc:	40004800 	.word	0x40004800
 80017c0:	58024400 	.word	0x58024400
 80017c4:	58020400 	.word	0x58020400
 80017c8:	2401a294 	.word	0x2401a294
 80017cc:	40020010 	.word	0x40020010
 80017d0:	58020c00 	.word	0x58020c00
 80017d4:	2401a21c 	.word	0x2401a21c
 80017d8:	40020028 	.word	0x40020028

080017dc <NMI_Handler>:
 80017dc:	e7fe      	b.n	80017dc <NMI_Handler>
 80017de:	bf00      	nop

080017e0 <HardFault_Handler>:
 80017e0:	e7fe      	b.n	80017e0 <HardFault_Handler>
 80017e2:	bf00      	nop

080017e4 <MemManage_Handler>:
 80017e4:	e7fe      	b.n	80017e4 <MemManage_Handler>
 80017e6:	bf00      	nop

080017e8 <BusFault_Handler>:
 80017e8:	e7fe      	b.n	80017e8 <BusFault_Handler>
 80017ea:	bf00      	nop

080017ec <UsageFault_Handler>:
 80017ec:	e7fe      	b.n	80017ec <UsageFault_Handler>
 80017ee:	bf00      	nop

080017f0 <SVC_Handler>:
 80017f0:	4770      	bx	lr
 80017f2:	bf00      	nop

080017f4 <DebugMon_Handler>:
 80017f4:	4770      	bx	lr
 80017f6:	bf00      	nop

080017f8 <PendSV_Handler>:
 80017f8:	4770      	bx	lr
 80017fa:	bf00      	nop

080017fc <SysTick_Handler>:
 80017fc:	f000 ba2e 	b.w	8001c5c <HAL_IncTick>

08001800 <DMA1_Stream0_IRQHandler>:
 8001800:	b508      	push	{r3, lr}
 8001802:	2002      	movs	r0, #2
 8001804:	f000 f8ae 	bl	8001964 <BSP_LED_On>
 8001808:	4802      	ldr	r0, [pc, #8]	; (8001814 <DMA1_Stream0_IRQHandler+0x14>)
 800180a:	e8bd 4008 	ldmia.w	sp!, {r3, lr}
 800180e:	f001 bae7 	b.w	8002de0 <HAL_DMA_IRQHandler>
 8001812:	bf00      	nop
 8001814:	2401a294 	.word	0x2401a294

08001818 <DMA1_Stream1_IRQHandler>:
 8001818:	b508      	push	{r3, lr}
 800181a:	2002      	movs	r0, #2
 800181c:	f000 f8a2 	bl	8001964 <BSP_LED_On>
 8001820:	4802      	ldr	r0, [pc, #8]	; (800182c <DMA1_Stream1_IRQHandler+0x14>)
 8001822:	e8bd 4008 	ldmia.w	sp!, {r3, lr}
 8001826:	f001 badb 	b.w	8002de0 <HAL_DMA_IRQHandler>
 800182a:	bf00      	nop
 800182c:	2401a21c 	.word	0x2401a21c

08001830 <DMA2_Stream0_IRQHandler>:
 8001830:	b508      	push	{r3, lr}
 8001832:	2002      	movs	r0, #2
 8001834:	f000 f896 	bl	8001964 <BSP_LED_On>
 8001838:	4802      	ldr	r0, [pc, #8]	; (8001844 <DMA2_Stream0_IRQHandler+0x14>)
 800183a:	e8bd 4008 	ldmia.w	sp!, {r3, lr}
 800183e:	f001 bacf 	b.w	8002de0 <HAL_DMA_IRQHandler>
 8001842:	bf00      	nop
 8001844:	2401a424 	.word	0x2401a424

08001848 <DMA2_Stream1_IRQHandler>:
 8001848:	b508      	push	{r3, lr}
 800184a:	2002      	movs	r0, #2
 800184c:	f000 f88a 	bl	8001964 <BSP_LED_On>
 8001850:	4802      	ldr	r0, [pc, #8]	; (800185c <DMA2_Stream1_IRQHandler+0x14>)
 8001852:	e8bd 4008 	ldmia.w	sp!, {r3, lr}
 8001856:	f001 bac3 	b.w	8002de0 <HAL_DMA_IRQHandler>
 800185a:	bf00      	nop
 800185c:	2401a1a4 	.word	0x2401a1a4

08001860 <EXTI15_10_IRQHandler>:
 8001860:	f44f 5000 	mov.w	r0, #8192	; 0x2000
 8001864:	f001 bf54 	b.w	8003710 <HAL_GPIO_EXTI_IRQHandler>

08001868 <USART1_IRQHandler>:
 8001868:	b508      	push	{r3, lr}
 800186a:	2002      	movs	r0, #2
 800186c:	f000 f87a 	bl	8001964 <BSP_LED_On>
 8001870:	4802      	ldr	r0, [pc, #8]	; (800187c <USART1_IRQHandler+0x14>)
 8001872:	e8bd 4008 	ldmia.w	sp!, {r3, lr}
 8001876:	f003 bf6d 	b.w	8005754 <HAL_UART_IRQHandler>
 800187a:	bf00      	nop
 800187c:	2401a30c 	.word	0x2401a30c

08001880 <USART3_IRQHandler>:
 8001880:	b508      	push	{r3, lr}
 8001882:	2002      	movs	r0, #2
 8001884:	f000 f86e 	bl	8001964 <BSP_LED_On>
 8001888:	4802      	ldr	r0, [pc, #8]	; (8001894 <USART3_IRQHandler+0x14>)
 800188a:	e8bd 4008 	ldmia.w	sp!, {r3, lr}
 800188e:	f003 bf61 	b.w	8005754 <HAL_UART_IRQHandler>
 8001892:	bf00      	nop
 8001894:	2401a114 	.word	0x2401a114

08001898 <SPI1_IRQHandler>:
 8001898:	b508      	push	{r3, lr}
 800189a:	2002      	movs	r0, #2
 800189c:	f000 f862 	bl	8001964 <BSP_LED_On>
 80018a0:	4802      	ldr	r0, [pc, #8]	; (80018ac <SPI1_IRQHandler+0x14>)
 80018a2:	e8bd 4008 	ldmia.w	sp!, {r3, lr}
 80018a6:	f003 bd65 	b.w	8005374 <HAL_SPI_IRQHandler>
 80018aa:	bf00      	nop
 80018ac:	2401a39c 	.word	0x2401a39c

080018b0 <SPI2_IRQHandler>:
 80018b0:	b508      	push	{r3, lr}
 80018b2:	2002      	movs	r0, #2
 80018b4:	f000 f856 	bl	8001964 <BSP_LED_On>
 80018b8:	4802      	ldr	r0, [pc, #8]	; (80018c4 <SPI2_IRQHandler+0x14>)
 80018ba:	e8bd 4008 	ldmia.w	sp!, {r3, lr}
 80018be:	f003 bd59 	b.w	8005374 <HAL_SPI_IRQHandler>
 80018c2:	bf00      	nop
 80018c4:	2401a08c 	.word	0x2401a08c

080018c8 <BSP_LED_Init>:
 80018c8:	2802      	cmp	r0, #2
 80018ca:	d841      	bhi.n	8001950 <BSP_LED_Init+0x88>
 80018cc:	4a22      	ldr	r2, [pc, #136]	; (8001958 <BSP_LED_Init+0x90>)
 80018ce:	4603      	mov	r3, r0
 80018d0:	b570      	push	{r4, r5, r6, lr}
 80018d2:	f8d2 10e0 	ldr.w	r1, [r2, #224]	; 0xe0
 80018d6:	b08a      	sub	sp, #40	; 0x28
 80018d8:	b320      	cbz	r0, 8001924 <BSP_LED_Init+0x5c>
 80018da:	2801      	cmp	r0, #1
 80018dc:	d02d      	beq.n	800193a <BSP_LED_Init+0x72>
 80018de:	f041 0102 	orr.w	r1, r1, #2
 80018e2:	f8c2 10e0 	str.w	r1, [r2, #224]	; 0xe0
 80018e6:	f8d2 20e0 	ldr.w	r2, [r2, #224]	; 0xe0
 80018ea:	f002 0202 	and.w	r2, r2, #2
 80018ee:	9204      	str	r2, [sp, #16]
 80018f0:	9a04      	ldr	r2, [sp, #16]
 80018f2:	4a1a      	ldr	r2, [pc, #104]	; (800195c <BSP_LED_Init+0x94>)
 80018f4:	2400      	movs	r4, #0
 80018f6:	491a      	ldr	r1, [pc, #104]	; (8001960 <BSP_LED_Init+0x98>)
 80018f8:	2601      	movs	r6, #1
 80018fa:	f852 0023 	ldr.w	r0, [r2, r3, lsl #2]
 80018fe:	2203      	movs	r2, #3
 8001900:	f831 5013 	ldrh.w	r5, [r1, r3, lsl #1]
 8001904:	a905      	add	r1, sp, #20
 8001906:	9001      	str	r0, [sp, #4]
 8001908:	e9cd 4207 	strd	r4, r2, [sp, #28]
 800190c:	e9cd 5605 	strd	r5, r6, [sp, #20]
 8001910:	f001 fdd2 	bl	80034b8 <HAL_GPIO_Init>
 8001914:	9801      	ldr	r0, [sp, #4]
 8001916:	4622      	mov	r2, r4
 8001918:	4629      	mov	r1, r5
 800191a:	f001 feeb 	bl	80036f4 <HAL_GPIO_WritePin>
 800191e:	4620      	mov	r0, r4
 8001920:	b00a      	add	sp, #40	; 0x28
 8001922:	bd70      	pop	{r4, r5, r6, pc}
 8001924:	f041 0102 	orr.w	r1, r1, #2
 8001928:	f8c2 10e0 	str.w	r1, [r2, #224]	; 0xe0
 800192c:	f8d2 20e0 	ldr.w	r2, [r2, #224]	; 0xe0
 8001930:	f002 0202 	and.w	r2, r2, #2
 8001934:	9202      	str	r2, [sp, #8]
 8001936:	9a02      	ldr	r2, [sp, #8]
 8001938:	e7db      	b.n	80018f2 <BSP_LED_Init+0x2a>
 800193a:	f041 0110 	orr.w	r1, r1, #16
 800193e:	f8c2 10e0 	str.w	r1, [r2, #224]	; 0xe0
 8001942:	f8d2 20e0 	ldr.w	r2, [r2, #224]	; 0xe0
 8001946:	f002 0210 	and.w	r2, r2, #16
 800194a:	9203      	str	r2, [sp, #12]
 800194c:	9a03      	ldr	r2, [sp, #12]
 800194e:	e7d0      	b.n	80018f2 <BSP_LED_Init+0x2a>
 8001950:	f06f 0001 	mvn.w	r0, #1
 8001954:	4770      	bx	lr
 8001956:	bf00      	nop
 8001958:	58024400 	.word	0x58024400
 800195c:	08006360 	.word	0x08006360
 8001960:	08006358 	.word	0x08006358

08001964 <BSP_LED_On>:
 8001964:	2802      	cmp	r0, #2
 8001966:	d80b      	bhi.n	8001980 <BSP_LED_On+0x1c>
 8001968:	4907      	ldr	r1, [pc, #28]	; (8001988 <BSP_LED_On+0x24>)
 800196a:	2201      	movs	r2, #1
 800196c:	b508      	push	{r3, lr}
 800196e:	4b07      	ldr	r3, [pc, #28]	; (800198c <BSP_LED_On+0x28>)
 8001970:	f831 1010 	ldrh.w	r1, [r1, r0, lsl #1]
 8001974:	f853 0020 	ldr.w	r0, [r3, r0, lsl #2]
 8001978:	f001 febc 	bl	80036f4 <HAL_GPIO_WritePin>
 800197c:	2000      	movs	r0, #0
 800197e:	bd08      	pop	{r3, pc}
 8001980:	f06f 0001 	mvn.w	r0, #1
 8001984:	4770      	bx	lr
 8001986:	bf00      	nop
 8001988:	08006358 	.word	0x08006358
 800198c:	08006360 	.word	0x08006360

08001990 <BSP_LED_Off>:
 8001990:	2802      	cmp	r0, #2
 8001992:	d80b      	bhi.n	80019ac <BSP_LED_Off+0x1c>
 8001994:	4907      	ldr	r1, [pc, #28]	; (80019b4 <BSP_LED_Off+0x24>)
 8001996:	2200      	movs	r2, #0
 8001998:	b508      	push	{r3, lr}
 800199a:	4b07      	ldr	r3, [pc, #28]	; (80019b8 <BSP_LED_Off+0x28>)
 800199c:	f831 1010 	ldrh.w	r1, [r1, r0, lsl #1]
 80019a0:	f853 0020 	ldr.w	r0, [r3, r0, lsl #2]
 80019a4:	f001 fea6 	bl	80036f4 <HAL_GPIO_WritePin>
 80019a8:	2000      	movs	r0, #0
 80019aa:	bd08      	pop	{r3, pc}
 80019ac:	f06f 0001 	mvn.w	r0, #1
 80019b0:	4770      	bx	lr
 80019b2:	bf00      	nop
 80019b4:	08006358 	.word	0x08006358
 80019b8:	08006360 	.word	0x08006360

080019bc <BSP_LED_Toggle>:
 80019bc:	2802      	cmp	r0, #2
 80019be:	d80a      	bhi.n	80019d6 <BSP_LED_Toggle+0x1a>
 80019c0:	4a06      	ldr	r2, [pc, #24]	; (80019dc <BSP_LED_Toggle+0x20>)
 80019c2:	b508      	push	{r3, lr}
 80019c4:	4b06      	ldr	r3, [pc, #24]	; (80019e0 <BSP_LED_Toggle+0x24>)
 80019c6:	f832 1010 	ldrh.w	r1, [r2, r0, lsl #1]
 80019ca:	f853 0020 	ldr.w	r0, [r3, r0, lsl #2]
 80019ce:	f001 fe95 	bl	80036fc <HAL_GPIO_TogglePin>
 80019d2:	2000      	movs	r0, #0
 80019d4:	bd08      	pop	{r3, pc}
 80019d6:	f06f 0001 	mvn.w	r0, #1
 80019da:	4770      	bx	lr
 80019dc:	08006358 	.word	0x08006358
 80019e0:	08006360 	.word	0x08006360

080019e4 <BSP_PB_Init>:
 80019e4:	4a1e      	ldr	r2, [pc, #120]	; (8001a60 <BSP_PB_Init+0x7c>)
 80019e6:	b570      	push	{r4, r5, r6, lr}
 80019e8:	f8d2 40e0 	ldr.w	r4, [r2, #224]	; 0xe0
 80019ec:	b086      	sub	sp, #24
 80019ee:	f44f 5600 	mov.w	r6, #8192	; 0x2000
 80019f2:	4605      	mov	r5, r0
 80019f4:	f044 0404 	orr.w	r4, r4, #4
 80019f8:	2002      	movs	r0, #2
 80019fa:	f8c2 40e0 	str.w	r4, [r2, #224]	; 0xe0
 80019fe:	f8d2 20e0 	ldr.w	r2, [r2, #224]	; 0xe0
 8001a02:	9601      	str	r6, [sp, #4]
 8001a04:	f002 0204 	and.w	r2, r2, #4
 8001a08:	9200      	str	r2, [sp, #0]
 8001a0a:	9a00      	ldr	r2, [sp, #0]
 8001a0c:	e9cd 0003 	strd	r0, r0, [sp, #12]
 8001a10:	b941      	cbnz	r1, 8001a24 <BSP_PB_Init+0x40>
 8001a12:	460b      	mov	r3, r1
 8001a14:	4813      	ldr	r0, [pc, #76]	; (8001a64 <BSP_PB_Init+0x80>)
 8001a16:	a901      	add	r1, sp, #4
 8001a18:	9302      	str	r3, [sp, #8]
 8001a1a:	f001 fd4d 	bl	80034b8 <HAL_GPIO_Init>
 8001a1e:	2000      	movs	r0, #0
 8001a20:	b006      	add	sp, #24
 8001a22:	bd70      	pop	{r4, r5, r6, pc}
 8001a24:	4b10      	ldr	r3, [pc, #64]	; (8001a68 <BSP_PB_Init+0x84>)
 8001a26:	a901      	add	r1, sp, #4
 8001a28:	480e      	ldr	r0, [pc, #56]	; (8001a64 <BSP_PB_Init+0x80>)
 8001a2a:	9302      	str	r3, [sp, #8]
 8001a2c:	f001 fd44 	bl	80034b8 <HAL_GPIO_Init>
 8001a30:	480e      	ldr	r0, [pc, #56]	; (8001a6c <BSP_PB_Init+0x88>)
 8001a32:	490f      	ldr	r1, [pc, #60]	; (8001a70 <BSP_PB_Init+0x8c>)
 8001a34:	eb00 05c5 	add.w	r5, r0, r5, lsl #3
 8001a38:	4628      	mov	r0, r5
 8001a3a:	f001 fd37 	bl	80034ac <HAL_EXTI_GetHandle>
 8001a3e:	4628      	mov	r0, r5
 8001a40:	4a0c      	ldr	r2, [pc, #48]	; (8001a74 <BSP_PB_Init+0x90>)
 8001a42:	2100      	movs	r1, #0
 8001a44:	f001 fd2a 	bl	800349c <HAL_EXTI_RegisterCallback>
 8001a48:	2200      	movs	r2, #0
 8001a4a:	210f      	movs	r1, #15
 8001a4c:	2028      	movs	r0, #40	; 0x28
 8001a4e:	f000 f95b 	bl	8001d08 <HAL_NVIC_SetPriority>
 8001a52:	2028      	movs	r0, #40	; 0x28
 8001a54:	f000 f992 	bl	8001d7c <HAL_NVIC_EnableIRQ>
 8001a58:	2000      	movs	r0, #0
 8001a5a:	b006      	add	sp, #24
 8001a5c:	bd70      	pop	{r4, r5, r6, pc}
 8001a5e:	bf00      	nop
 8001a60:	58024400 	.word	0x58024400
 8001a64:	58020800 	.word	0x58020800
 8001a68:	11110000 	.word	0x11110000
 8001a6c:	2401a49c 	.word	0x2401a49c
 8001a70:	1630000d 	.word	0x1630000d
 8001a74:	08001a7d 	.word	0x08001a7d

08001a78 <BSP_PB_Callback>:
 8001a78:	4770      	bx	lr
 8001a7a:	bf00      	nop

08001a7c <BUTTON_USER_EXTI_Callback>:
 8001a7c:	2000      	movs	r0, #0
 8001a7e:	b508      	push	{r3, lr}
 8001a80:	f7ff fffa 	bl	8001a78 <BSP_PB_Callback>
 8001a84:	bd08      	pop	{r3, pc}
 8001a86:	bf00      	nop

08001a88 <SystemInit>:
 8001a88:	4929      	ldr	r1, [pc, #164]	; (8001b30 <SystemInit+0xa8>)
 8001a8a:	4a2a      	ldr	r2, [pc, #168]	; (8001b34 <SystemInit+0xac>)
 8001a8c:	f8d1 3088 	ldr.w	r3, [r1, #136]	; 0x88
 8001a90:	f443 0370 	orr.w	r3, r3, #15728640	; 0xf00000
 8001a94:	b410      	push	{r4}
 8001a96:	f8c1 3088 	str.w	r3, [r1, #136]	; 0x88
 8001a9a:	6813      	ldr	r3, [r2, #0]
 8001a9c:	f003 030f 	and.w	r3, r3, #15
 8001aa0:	2b06      	cmp	r3, #6
 8001aa2:	d805      	bhi.n	8001ab0 <SystemInit+0x28>
 8001aa4:	6813      	ldr	r3, [r2, #0]
 8001aa6:	f023 030f 	bic.w	r3, r3, #15
 8001aaa:	f043 0307 	orr.w	r3, r3, #7
 8001aae:	6013      	str	r3, [r2, #0]
 8001ab0:	4b21      	ldr	r3, [pc, #132]	; (8001b38 <SystemInit+0xb0>)
 8001ab2:	2400      	movs	r4, #0
 8001ab4:	4a21      	ldr	r2, [pc, #132]	; (8001b3c <SystemInit+0xb4>)
 8001ab6:	6819      	ldr	r1, [r3, #0]
 8001ab8:	481e      	ldr	r0, [pc, #120]	; (8001b34 <SystemInit+0xac>)
 8001aba:	f041 0101 	orr.w	r1, r1, #1
 8001abe:	6019      	str	r1, [r3, #0]
 8001ac0:	611c      	str	r4, [r3, #16]
 8001ac2:	6819      	ldr	r1, [r3, #0]
 8001ac4:	400a      	ands	r2, r1
 8001ac6:	601a      	str	r2, [r3, #0]
 8001ac8:	6803      	ldr	r3, [r0, #0]
 8001aca:	071b      	lsls	r3, r3, #28
 8001acc:	d505      	bpl.n	8001ada <SystemInit+0x52>
 8001ace:	6803      	ldr	r3, [r0, #0]
 8001ad0:	f023 030f 	bic.w	r3, r3, #15
 8001ad4:	f043 0307 	orr.w	r3, r3, #7
 8001ad8:	6003      	str	r3, [r0, #0]
 8001ada:	4b17      	ldr	r3, [pc, #92]	; (8001b38 <SystemInit+0xb0>)
 8001adc:	2200      	movs	r2, #0
 8001ade:	4918      	ldr	r1, [pc, #96]	; (8001b40 <SystemInit+0xb8>)
 8001ae0:	4c18      	ldr	r4, [pc, #96]	; (8001b44 <SystemInit+0xbc>)
 8001ae2:	4819      	ldr	r0, [pc, #100]	; (8001b48 <SystemInit+0xc0>)
 8001ae4:	619a      	str	r2, [r3, #24]
 8001ae6:	61da      	str	r2, [r3, #28]
 8001ae8:	621a      	str	r2, [r3, #32]
 8001aea:	629c      	str	r4, [r3, #40]	; 0x28
 8001aec:	62d8      	str	r0, [r3, #44]	; 0x2c
 8001aee:	6319      	str	r1, [r3, #48]	; 0x30
 8001af0:	635a      	str	r2, [r3, #52]	; 0x34
 8001af2:	6399      	str	r1, [r3, #56]	; 0x38
 8001af4:	63da      	str	r2, [r3, #60]	; 0x3c
 8001af6:	6419      	str	r1, [r3, #64]	; 0x40
 8001af8:	645a      	str	r2, [r3, #68]	; 0x44
 8001afa:	6818      	ldr	r0, [r3, #0]
 8001afc:	4c13      	ldr	r4, [pc, #76]	; (8001b4c <SystemInit+0xc4>)
 8001afe:	f420 2080 	bic.w	r0, r0, #262144	; 0x40000
 8001b02:	4913      	ldr	r1, [pc, #76]	; (8001b50 <SystemInit+0xc8>)
 8001b04:	6018      	str	r0, [r3, #0]
 8001b06:	661a      	str	r2, [r3, #96]	; 0x60
 8001b08:	6823      	ldr	r3, [r4, #0]
 8001b0a:	4019      	ands	r1, r3
 8001b0c:	f1b1 5f00 	cmp.w	r1, #536870912	; 0x20000000
 8001b10:	d202      	bcs.n	8001b18 <SystemInit+0x90>
 8001b12:	4b10      	ldr	r3, [pc, #64]	; (8001b54 <SystemInit+0xcc>)
 8001b14:	2201      	movs	r2, #1
 8001b16:	601a      	str	r2, [r3, #0]
 8001b18:	490f      	ldr	r1, [pc, #60]	; (8001b58 <SystemInit+0xd0>)
 8001b1a:	f243 00d2 	movw	r0, #12498	; 0x30d2
 8001b1e:	4b04      	ldr	r3, [pc, #16]	; (8001b30 <SystemInit+0xa8>)
 8001b20:	f04f 6200 	mov.w	r2, #134217728	; 0x8000000
 8001b24:	6008      	str	r0, [r1, #0]
 8001b26:	f85d 4b04 	ldr.w	r4, [sp], #4
 8001b2a:	609a      	str	r2, [r3, #8]
 8001b2c:	4770      	bx	lr
 8001b2e:	bf00      	nop
 8001b30:	e000ed00 	.word	0xe000ed00
 8001b34:	52002000 	.word	0x52002000
 8001b38:	58024400 	.word	0x58024400
 8001b3c:	eaf6ed7f 	.word	0xeaf6ed7f
 8001b40:	01010280 	.word	0x01010280
 8001b44:	02020200 	.word	0x02020200
 8001b48:	01ff0000 	.word	0x01ff0000
 8001b4c:	5c001000 	.word	0x5c001000
 8001b50:	ffff0000 	.word	0xffff0000
 8001b54:	51008108 	.word	0x51008108
 8001b58:	52004000 	.word	0x52004000

08001b5c <Reset_Handler>:
 8001b5c:	f8df d034 	ldr.w	sp, [pc, #52]	; 8001b94 <LoopFillZerobss+0xe>
 8001b60:	f7ff ff92 	bl	8001a88 <SystemInit>
 8001b64:	480c      	ldr	r0, [pc, #48]	; (8001b98 <LoopFillZerobss+0x12>)
 8001b66:	490d      	ldr	r1, [pc, #52]	; (8001b9c <LoopFillZerobss+0x16>)
 8001b68:	4a0d      	ldr	r2, [pc, #52]	; (8001ba0 <LoopFillZerobss+0x1a>)
 8001b6a:	2300      	movs	r3, #0
 8001b6c:	e002      	b.n	8001b74 <LoopCopyDataInit>

08001b6e <CopyDataInit>:
 8001b6e:	58d4      	ldr	r4, [r2, r3]
 8001b70:	50c4      	str	r4, [r0, r3]
 8001b72:	3304      	adds	r3, #4

08001b74 <LoopCopyDataInit>:
 8001b74:	18c4      	adds	r4, r0, r3
 8001b76:	428c      	cmp	r4, r1
 8001b78:	d3f9      	bcc.n	8001b6e <CopyDataInit>
 8001b7a:	4a0a      	ldr	r2, [pc, #40]	; (8001ba4 <LoopFillZerobss+0x1e>)
 8001b7c:	4c0a      	ldr	r4, [pc, #40]	; (8001ba8 <LoopFillZerobss+0x22>)
 8001b7e:	2300      	movs	r3, #0
 8001b80:	e001      	b.n	8001b86 <LoopFillZerobss>

08001b82 <FillZerobss>:
 8001b82:	6013      	str	r3, [r2, #0]
 8001b84:	3204      	adds	r2, #4

08001b86 <LoopFillZerobss>:
 8001b86:	42a2      	cmp	r2, r4
 8001b88:	d3fb      	bcc.n	8001b82 <FillZerobss>
 8001b8a:	f004 fbad 	bl	80062e8 <__libc_init_array>
 8001b8e:	f7fe fda3 	bl	80006d8 <main>
 8001b92:	4770      	bx	lr
 8001b94:	24080000 	.word	0x24080000
 8001b98:	24000000 	.word	0x24000000
 8001b9c:	24000010 	.word	0x24000010
 8001ba0:	080063f8 	.word	0x080063f8
 8001ba4:	24000020 	.word	0x24000020
 8001ba8:	2401a538 	.word	0x2401a538

08001bac <ADC3_IRQHandler>:
 8001bac:	e7fe      	b.n	8001bac <ADC3_IRQHandler>
	...

08001bb0 <HAL_InitTick>:
 8001bb0:	4b0f      	ldr	r3, [pc, #60]	; (8001bf0 <HAL_InitTick+0x40>)
 8001bb2:	781b      	ldrb	r3, [r3, #0]
 8001bb4:	b90b      	cbnz	r3, 8001bba <HAL_InitTick+0xa>
 8001bb6:	2001      	movs	r0, #1
 8001bb8:	4770      	bx	lr
 8001bba:	b510      	push	{r4, lr}
 8001bbc:	4604      	mov	r4, r0
 8001bbe:	f44f 707a 	mov.w	r0, #1000	; 0x3e8
 8001bc2:	4a0c      	ldr	r2, [pc, #48]	; (8001bf4 <HAL_InitTick+0x44>)
 8001bc4:	fbb0 f3f3 	udiv	r3, r0, r3
 8001bc8:	6810      	ldr	r0, [r2, #0]
 8001bca:	fbb0 f0f3 	udiv	r0, r0, r3
 8001bce:	f000 f8f7 	bl	8001dc0 <HAL_SYSTICK_Config>
 8001bd2:	2c0f      	cmp	r4, #15
 8001bd4:	d800      	bhi.n	8001bd8 <HAL_InitTick+0x28>
 8001bd6:	b108      	cbz	r0, 8001bdc <HAL_InitTick+0x2c>
 8001bd8:	2001      	movs	r0, #1
 8001bda:	bd10      	pop	{r4, pc}
 8001bdc:	2200      	movs	r2, #0
 8001bde:	4621      	mov	r1, r4
 8001be0:	f04f 30ff 	mov.w	r0, #4294967295
 8001be4:	f000 f890 	bl	8001d08 <HAL_NVIC_SetPriority>
 8001be8:	4b03      	ldr	r3, [pc, #12]	; (8001bf8 <HAL_InitTick+0x48>)
 8001bea:	2000      	movs	r0, #0
 8001bec:	601c      	str	r4, [r3, #0]
 8001bee:	bd10      	pop	{r4, pc}
 8001bf0:	24000008 	.word	0x24000008
 8001bf4:	24000000 	.word	0x24000000
 8001bf8:	2400000c 	.word	0x2400000c

08001bfc <HAL_Init>:
 8001bfc:	b538      	push	{r3, r4, r5, lr}
 8001bfe:	2003      	movs	r0, #3
 8001c00:	4c12      	ldr	r4, [pc, #72]	; (8001c4c <HAL_Init+0x50>)
 8001c02:	f000 f86d 	bl	8001ce0 <HAL_NVIC_SetPriorityGrouping>
 8001c06:	4d12      	ldr	r5, [pc, #72]	; (8001c50 <HAL_Init+0x54>)
 8001c08:	f002 f8ac 	bl	8003d64 <HAL_RCC_GetSysClockFreq>
 8001c0c:	4b11      	ldr	r3, [pc, #68]	; (8001c54 <HAL_Init+0x58>)
 8001c0e:	4602      	mov	r2, r0
 8001c10:	2000      	movs	r0, #0
 8001c12:	6999      	ldr	r1, [r3, #24]
 8001c14:	699b      	ldr	r3, [r3, #24]
 8001c16:	f3c1 2103 	ubfx	r1, r1, #8, #4
 8001c1a:	f003 030f 	and.w	r3, r3, #15
 8001c1e:	5c61      	ldrb	r1, [r4, r1]
 8001c20:	5ce3      	ldrb	r3, [r4, r3]
 8001c22:	f001 011f 	and.w	r1, r1, #31
 8001c26:	4c0c      	ldr	r4, [pc, #48]	; (8001c58 <HAL_Init+0x5c>)
 8001c28:	f003 031f 	and.w	r3, r3, #31
 8001c2c:	40ca      	lsrs	r2, r1
 8001c2e:	fa22 f303 	lsr.w	r3, r2, r3
 8001c32:	6022      	str	r2, [r4, #0]
 8001c34:	602b      	str	r3, [r5, #0]
 8001c36:	f7ff ffbb 	bl	8001bb0 <HAL_InitTick>
 8001c3a:	b110      	cbz	r0, 8001c42 <HAL_Init+0x46>
 8001c3c:	2401      	movs	r4, #1
 8001c3e:	4620      	mov	r0, r4
 8001c40:	bd38      	pop	{r3, r4, r5, pc}
 8001c42:	4604      	mov	r4, r0
 8001c44:	f7ff fb88 	bl	8001358 <HAL_MspInit>
 8001c48:	4620      	mov	r0, r4
 8001c4a:	bd38      	pop	{r3, r4, r5, pc}
 8001c4c:	0800636c 	.word	0x0800636c
 8001c50:	24000004 	.word	0x24000004
 8001c54:	58024400 	.word	0x58024400
 8001c58:	24000000 	.word	0x24000000

08001c5c <HAL_IncTick>:
 8001c5c:	4a03      	ldr	r2, [pc, #12]	; (8001c6c <HAL_IncTick+0x10>)
 8001c5e:	4b04      	ldr	r3, [pc, #16]	; (8001c70 <HAL_IncTick+0x14>)
 8001c60:	6811      	ldr	r1, [r2, #0]
 8001c62:	781b      	ldrb	r3, [r3, #0]
 8001c64:	440b      	add	r3, r1
 8001c66:	6013      	str	r3, [r2, #0]
 8001c68:	4770      	bx	lr
 8001c6a:	bf00      	nop
 8001c6c:	2401a534 	.word	0x2401a534
 8001c70:	24000008 	.word	0x24000008

08001c74 <HAL_GetTick>:
 8001c74:	4b01      	ldr	r3, [pc, #4]	; (8001c7c <HAL_GetTick+0x8>)
 8001c76:	6818      	ldr	r0, [r3, #0]
 8001c78:	4770      	bx	lr
 8001c7a:	bf00      	nop
 8001c7c:	2401a534 	.word	0x2401a534

08001c80 <HAL_Delay>:
 8001c80:	b538      	push	{r3, r4, r5, lr}
 8001c82:	4604      	mov	r4, r0
 8001c84:	f7ff fff6 	bl	8001c74 <HAL_GetTick>
 8001c88:	4605      	mov	r5, r0
 8001c8a:	1c63      	adds	r3, r4, #1
 8001c8c:	d002      	beq.n	8001c94 <HAL_Delay+0x14>
 8001c8e:	4b04      	ldr	r3, [pc, #16]	; (8001ca0 <HAL_Delay+0x20>)
 8001c90:	781b      	ldrb	r3, [r3, #0]
 8001c92:	441c      	add	r4, r3
 8001c94:	f7ff ffee 	bl	8001c74 <HAL_GetTick>
 8001c98:	1b43      	subs	r3, r0, r5
 8001c9a:	42a3      	cmp	r3, r4
 8001c9c:	d3fa      	bcc.n	8001c94 <HAL_Delay+0x14>
 8001c9e:	bd38      	pop	{r3, r4, r5, pc}
 8001ca0:	24000008 	.word	0x24000008

08001ca4 <HAL_SuspendTick>:
 8001ca4:	4a02      	ldr	r2, [pc, #8]	; (8001cb0 <HAL_SuspendTick+0xc>)
 8001ca6:	6813      	ldr	r3, [r2, #0]
 8001ca8:	f023 0302 	bic.w	r3, r3, #2
 8001cac:	6013      	str	r3, [r2, #0]
 8001cae:	4770      	bx	lr
 8001cb0:	e000e010 	.word	0xe000e010

08001cb4 <HAL_ResumeTick>:
 8001cb4:	4a02      	ldr	r2, [pc, #8]	; (8001cc0 <HAL_ResumeTick+0xc>)
 8001cb6:	6813      	ldr	r3, [r2, #0]
 8001cb8:	f043 0302 	orr.w	r3, r3, #2
 8001cbc:	6013      	str	r3, [r2, #0]
 8001cbe:	4770      	bx	lr
 8001cc0:	e000e010 	.word	0xe000e010

08001cc4 <HAL_GetREVID>:
 8001cc4:	4b01      	ldr	r3, [pc, #4]	; (8001ccc <HAL_GetREVID+0x8>)
 8001cc6:	6818      	ldr	r0, [r3, #0]
 8001cc8:	0c00      	lsrs	r0, r0, #16
 8001cca:	4770      	bx	lr
 8001ccc:	5c001000 	.word	0x5c001000

08001cd0 <HAL_EnableCompensationCell>:
 8001cd0:	4a02      	ldr	r2, [pc, #8]	; (8001cdc <HAL_EnableCompensationCell+0xc>)
 8001cd2:	6a13      	ldr	r3, [r2, #32]
 8001cd4:	f043 0301 	orr.w	r3, r3, #1
 8001cd8:	6213      	str	r3, [r2, #32]
 8001cda:	4770      	bx	lr
 8001cdc:	58000400 	.word	0x58000400

08001ce0 <HAL_NVIC_SetPriorityGrouping>:
 8001ce0:	4907      	ldr	r1, [pc, #28]	; (8001d00 <HAL_NVIC_SetPriorityGrouping+0x20>)
 8001ce2:	0200      	lsls	r0, r0, #8
 8001ce4:	4b07      	ldr	r3, [pc, #28]	; (8001d04 <HAL_NVIC_SetPriorityGrouping+0x24>)
 8001ce6:	68ca      	ldr	r2, [r1, #12]
 8001ce8:	f400 60e0 	and.w	r0, r0, #1792	; 0x700
 8001cec:	b410      	push	{r4}
 8001cee:	f64f 04ff 	movw	r4, #63743	; 0xf8ff
 8001cf2:	4022      	ands	r2, r4
 8001cf4:	f85d 4b04 	ldr.w	r4, [sp], #4
 8001cf8:	4310      	orrs	r0, r2
 8001cfa:	4303      	orrs	r3, r0
 8001cfc:	60cb      	str	r3, [r1, #12]
 8001cfe:	4770      	bx	lr
 8001d00:	e000ed00 	.word	0xe000ed00
 8001d04:	05fa0000 	.word	0x05fa0000

08001d08 <HAL_NVIC_SetPriority>:
 8001d08:	4b19      	ldr	r3, [pc, #100]	; (8001d70 <HAL_NVIC_SetPriority+0x68>)
 8001d0a:	68db      	ldr	r3, [r3, #12]
 8001d0c:	f3c3 2302 	ubfx	r3, r3, #8, #3
 8001d10:	b430      	push	{r4, r5}
 8001d12:	f1c3 0507 	rsb	r5, r3, #7
 8001d16:	1d1c      	adds	r4, r3, #4
 8001d18:	2d04      	cmp	r5, #4
 8001d1a:	bf28      	it	cs
 8001d1c:	2504      	movcs	r5, #4
 8001d1e:	2c06      	cmp	r4, #6
 8001d20:	d919      	bls.n	8001d56 <HAL_NVIC_SetPriority+0x4e>
 8001d22:	3b03      	subs	r3, #3
 8001d24:	f04f 34ff 	mov.w	r4, #4294967295
 8001d28:	409c      	lsls	r4, r3
 8001d2a:	ea22 0204 	bic.w	r2, r2, r4
 8001d2e:	f04f 34ff 	mov.w	r4, #4294967295
 8001d32:	2800      	cmp	r0, #0
 8001d34:	fa04 f405 	lsl.w	r4, r4, r5
 8001d38:	ea21 0104 	bic.w	r1, r1, r4
 8001d3c:	fa01 f103 	lsl.w	r1, r1, r3
 8001d40:	ea41 0102 	orr.w	r1, r1, r2
 8001d44:	db0a      	blt.n	8001d5c <HAL_NVIC_SetPriority+0x54>
 8001d46:	0109      	lsls	r1, r1, #4
 8001d48:	4b0a      	ldr	r3, [pc, #40]	; (8001d74 <HAL_NVIC_SetPriority+0x6c>)
 8001d4a:	b2c9      	uxtb	r1, r1
 8001d4c:	4403      	add	r3, r0
 8001d4e:	f883 1300 	strb.w	r1, [r3, #768]	; 0x300
 8001d52:	bc30      	pop	{r4, r5}
 8001d54:	4770      	bx	lr
 8001d56:	2200      	movs	r2, #0
 8001d58:	4613      	mov	r3, r2
 8001d5a:	e7e8      	b.n	8001d2e <HAL_NVIC_SetPriority+0x26>
 8001d5c:	f000 000f 	and.w	r0, r0, #15
 8001d60:	0109      	lsls	r1, r1, #4
 8001d62:	4b05      	ldr	r3, [pc, #20]	; (8001d78 <HAL_NVIC_SetPriority+0x70>)
 8001d64:	b2c9      	uxtb	r1, r1
 8001d66:	4403      	add	r3, r0
 8001d68:	7619      	strb	r1, [r3, #24]
 8001d6a:	bc30      	pop	{r4, r5}
 8001d6c:	4770      	bx	lr
 8001d6e:	bf00      	nop
 8001d70:	e000ed00 	.word	0xe000ed00
 8001d74:	e000e100 	.word	0xe000e100
 8001d78:	e000ecfc 	.word	0xe000ecfc

08001d7c <HAL_NVIC_EnableIRQ>:
 8001d7c:	2800      	cmp	r0, #0
 8001d7e:	db07      	blt.n	8001d90 <HAL_NVIC_EnableIRQ+0x14>
 8001d80:	2301      	movs	r3, #1
 8001d82:	f000 011f 	and.w	r1, r0, #31
 8001d86:	4a03      	ldr	r2, [pc, #12]	; (8001d94 <HAL_NVIC_EnableIRQ+0x18>)
 8001d88:	0940      	lsrs	r0, r0, #5
 8001d8a:	408b      	lsls	r3, r1
 8001d8c:	f842 3020 	str.w	r3, [r2, r0, lsl #2]
 8001d90:	4770      	bx	lr
 8001d92:	bf00      	nop
 8001d94:	e000e100 	.word	0xe000e100

08001d98 <HAL_NVIC_DisableIRQ>:
 8001d98:	2800      	cmp	r0, #0
 8001d9a:	db0d      	blt.n	8001db8 <HAL_NVIC_DisableIRQ+0x20>
 8001d9c:	0943      	lsrs	r3, r0, #5
 8001d9e:	2201      	movs	r2, #1
 8001da0:	f000 001f 	and.w	r0, r0, #31
 8001da4:	4905      	ldr	r1, [pc, #20]	; (8001dbc <HAL_NVIC_DisableIRQ+0x24>)
 8001da6:	3320      	adds	r3, #32
 8001da8:	fa02 f000 	lsl.w	r0, r2, r0
 8001dac:	f841 0023 	str.w	r0, [r1, r3, lsl #2]
 8001db0:	f3bf 8f4f 	dsb	sy
 8001db4:	f3bf 8f6f 	isb	sy
 8001db8:	4770      	bx	lr
 8001dba:	bf00      	nop
 8001dbc:	e000e100 	.word	0xe000e100

08001dc0 <HAL_SYSTICK_Config>:
 8001dc0:	3801      	subs	r0, #1
 8001dc2:	f1b0 7f80 	cmp.w	r0, #16777216	; 0x1000000
 8001dc6:	d20d      	bcs.n	8001de4 <HAL_SYSTICK_Config+0x24>
 8001dc8:	4b07      	ldr	r3, [pc, #28]	; (8001de8 <HAL_SYSTICK_Config+0x28>)
 8001dca:	2200      	movs	r2, #0
 8001dcc:	2107      	movs	r1, #7
 8001dce:	b430      	push	{r4, r5}
 8001dd0:	25f0      	movs	r5, #240	; 0xf0
 8001dd2:	4c06      	ldr	r4, [pc, #24]	; (8001dec <HAL_SYSTICK_Config+0x2c>)
 8001dd4:	6058      	str	r0, [r3, #4]
 8001dd6:	4610      	mov	r0, r2
 8001dd8:	f884 5023 	strb.w	r5, [r4, #35]	; 0x23
 8001ddc:	609a      	str	r2, [r3, #8]
 8001dde:	6019      	str	r1, [r3, #0]
 8001de0:	bc30      	pop	{r4, r5}
 8001de2:	4770      	bx	lr
 8001de4:	2001      	movs	r0, #1
 8001de6:	4770      	bx	lr
 8001de8:	e000e010 	.word	0xe000e010
 8001dec:	e000ed00 	.word	0xe000ed00

08001df0 <DMA_SetConfig>:
 8001df0:	b5f0      	push	{r4, r5, r6, r7, lr}
 8001df2:	4d5e      	ldr	r5, [pc, #376]	; (8001f6c <DMA_SetConfig+0x17c>)
 8001df4:	6804      	ldr	r4, [r0, #0]
 8001df6:	f8d0 c058 	ldr.w	ip, [r0, #88]	; 0x58
 8001dfa:	42ac      	cmp	r4, r5
 8001dfc:	f000 809a 	beq.w	8001f34 <DMA_SetConfig+0x144>
 8001e00:	3518      	adds	r5, #24
 8001e02:	42ac      	cmp	r4, r5
 8001e04:	f000 8096 	beq.w	8001f34 <DMA_SetConfig+0x144>
 8001e08:	3518      	adds	r5, #24
 8001e0a:	4e59      	ldr	r6, [pc, #356]	; (8001f70 <DMA_SetConfig+0x180>)
 8001e0c:	f8df e16c 	ldr.w	lr, [pc, #364]	; 8001f7c <DMA_SetConfig+0x18c>
 8001e10:	42b4      	cmp	r4, r6
 8001e12:	bf18      	it	ne
 8001e14:	42ac      	cmpne	r4, r5
 8001e16:	4f57      	ldr	r7, [pc, #348]	; (8001f74 <DMA_SetConfig+0x184>)
 8001e18:	f106 0648 	add.w	r6, r6, #72	; 0x48
 8001e1c:	bf0c      	ite	eq
 8001e1e:	2501      	moveq	r5, #1
 8001e20:	2500      	movne	r5, #0
 8001e22:	4574      	cmp	r4, lr
 8001e24:	bf08      	it	eq
 8001e26:	f045 0501 	orreq.w	r5, r5, #1
 8001e2a:	f10e 0e48 	add.w	lr, lr, #72	; 0x48
 8001e2e:	42bc      	cmp	r4, r7
 8001e30:	bf08      	it	eq
 8001e32:	f045 0501 	orreq.w	r5, r5, #1
 8001e36:	f507 7762 	add.w	r7, r7, #904	; 0x388
 8001e3a:	42b4      	cmp	r4, r6
 8001e3c:	bf08      	it	eq
 8001e3e:	f045 0501 	orreq.w	r5, r5, #1
 8001e42:	4e4d      	ldr	r6, [pc, #308]	; (8001f78 <DMA_SetConfig+0x188>)
 8001e44:	4574      	cmp	r4, lr
 8001e46:	bf08      	it	eq
 8001e48:	f045 0501 	orreq.w	r5, r5, #1
 8001e4c:	f8df e130 	ldr.w	lr, [pc, #304]	; 8001f80 <DMA_SetConfig+0x190>
 8001e50:	42bc      	cmp	r4, r7
 8001e52:	bf08      	it	eq
 8001e54:	f045 0501 	orreq.w	r5, r5, #1
 8001e58:	4574      	cmp	r4, lr
 8001e5a:	bf18      	it	ne
 8001e5c:	42b4      	cmpne	r4, r6
 8001e5e:	f107 0718 	add.w	r7, r7, #24
 8001e62:	f10e 0e28 	add.w	lr, lr, #40	; 0x28
 8001e66:	bf0c      	ite	eq
 8001e68:	2601      	moveq	r6, #1
 8001e6a:	2600      	movne	r6, #0
 8001e6c:	42bc      	cmp	r4, r7
 8001e6e:	bf08      	it	eq
 8001e70:	f045 0501 	orreq.w	r5, r5, #1
 8001e74:	3718      	adds	r7, #24
 8001e76:	4574      	cmp	r4, lr
 8001e78:	bf08      	it	eq
 8001e7a:	f046 0601 	orreq.w	r6, r6, #1
 8001e7e:	f10e 0e14 	add.w	lr, lr, #20
 8001e82:	42bc      	cmp	r4, r7
 8001e84:	bf08      	it	eq
 8001e86:	f045 0501 	orreq.w	r5, r5, #1
 8001e8a:	3718      	adds	r7, #24
 8001e8c:	4574      	cmp	r4, lr
 8001e8e:	bf08      	it	eq
 8001e90:	f046 0601 	orreq.w	r6, r6, #1
 8001e94:	f10e 0e14 	add.w	lr, lr, #20
 8001e98:	42bc      	cmp	r4, r7
 8001e9a:	bf08      	it	eq
 8001e9c:	f045 0501 	orreq.w	r5, r5, #1
 8001ea0:	3718      	adds	r7, #24
 8001ea2:	4574      	cmp	r4, lr
 8001ea4:	bf08      	it	eq
 8001ea6:	f046 0601 	orreq.w	r6, r6, #1
 8001eaa:	f10e 0e14 	add.w	lr, lr, #20
 8001eae:	42bc      	cmp	r4, r7
 8001eb0:	bf08      	it	eq
 8001eb2:	f045 0501 	orreq.w	r5, r5, #1
 8001eb6:	3718      	adds	r7, #24
 8001eb8:	4574      	cmp	r4, lr
 8001eba:	bf08      	it	eq
 8001ebc:	f046 0601 	orreq.w	r6, r6, #1
 8001ec0:	f10e 0e14 	add.w	lr, lr, #20
 8001ec4:	42bc      	cmp	r4, r7
 8001ec6:	bf08      	it	eq
 8001ec8:	f045 0501 	orreq.w	r5, r5, #1
 8001ecc:	3718      	adds	r7, #24
 8001ece:	4574      	cmp	r4, lr
 8001ed0:	bf08      	it	eq
 8001ed2:	f046 0601 	orreq.w	r6, r6, #1
 8001ed6:	f10e 0e14 	add.w	lr, lr, #20
 8001eda:	42bc      	cmp	r4, r7
 8001edc:	bf08      	it	eq
 8001ede:	f045 0501 	orreq.w	r5, r5, #1
 8001ee2:	3718      	adds	r7, #24
 8001ee4:	4574      	cmp	r4, lr
 8001ee6:	bf08      	it	eq
 8001ee8:	f046 0601 	orreq.w	r6, r6, #1
 8001eec:	42bc      	cmp	r4, r7
 8001eee:	bf08      	it	eq
 8001ef0:	f045 0501 	orreq.w	r5, r5, #1
 8001ef4:	b906      	cbnz	r6, 8001ef8 <DMA_SetConfig+0x108>
 8001ef6:	b1e5      	cbz	r5, 8001f32 <DMA_SetConfig+0x142>
 8001ef8:	6e47      	ldr	r7, [r0, #100]	; 0x64
 8001efa:	e9d0 6e1a 	ldrd	r6, lr, [r0, #104]	; 0x68
 8001efe:	607e      	str	r6, [r7, #4]
 8001f00:	f1be 0f00 	cmp.w	lr, #0
 8001f04:	d020      	beq.n	8001f48 <DMA_SetConfig+0x158>
 8001f06:	e9d0 671c 	ldrd	r6, r7, [r0, #112]	; 0x70
 8001f0a:	6077      	str	r7, [r6, #4]
 8001f0c:	b1f5      	cbz	r5, 8001f4c <DMA_SetConfig+0x15c>
 8001f0e:	6dc6      	ldr	r6, [r0, #92]	; 0x5c
 8001f10:	253f      	movs	r5, #63	; 0x3f
 8001f12:	6887      	ldr	r7, [r0, #8]
 8001f14:	f006 001f 	and.w	r0, r6, #31
 8001f18:	2f40      	cmp	r7, #64	; 0x40
 8001f1a:	fa05 f000 	lsl.w	r0, r5, r0
 8001f1e:	f8cc 0008 	str.w	r0, [ip, #8]
 8001f22:	6820      	ldr	r0, [r4, #0]
 8001f24:	f420 2080 	bic.w	r0, r0, #262144	; 0x40000
 8001f28:	6020      	str	r0, [r4, #0]
 8001f2a:	6063      	str	r3, [r4, #4]
 8001f2c:	d01a      	beq.n	8001f64 <DMA_SetConfig+0x174>
 8001f2e:	60a1      	str	r1, [r4, #8]
 8001f30:	60e2      	str	r2, [r4, #12]
 8001f32:	bdf0      	pop	{r4, r5, r6, r7, pc}
 8001f34:	e9d0 5619 	ldrd	r5, r6, [r0, #100]	; 0x64
 8001f38:	6ec7      	ldr	r7, [r0, #108]	; 0x6c
 8001f3a:	606e      	str	r6, [r5, #4]
 8001f3c:	2f00      	cmp	r7, #0
 8001f3e:	d0e6      	beq.n	8001f0e <DMA_SetConfig+0x11e>
 8001f40:	e9d0 561c 	ldrd	r5, r6, [r0, #112]	; 0x70
 8001f44:	606e      	str	r6, [r5, #4]
 8001f46:	e7e2      	b.n	8001f0e <DMA_SetConfig+0x11e>
 8001f48:	2d00      	cmp	r5, #0
 8001f4a:	d1e0      	bne.n	8001f0e <DMA_SetConfig+0x11e>
 8001f4c:	6dc6      	ldr	r6, [r0, #92]	; 0x5c
 8001f4e:	2501      	movs	r5, #1
 8001f50:	6887      	ldr	r7, [r0, #8]
 8001f52:	f006 001f 	and.w	r0, r6, #31
 8001f56:	2f40      	cmp	r7, #64	; 0x40
 8001f58:	fa05 f000 	lsl.w	r0, r5, r0
 8001f5c:	f8cc 0004 	str.w	r0, [ip, #4]
 8001f60:	6063      	str	r3, [r4, #4]
 8001f62:	d1e4      	bne.n	8001f2e <DMA_SetConfig+0x13e>
 8001f64:	60a2      	str	r2, [r4, #8]
 8001f66:	60e1      	str	r1, [r4, #12]
 8001f68:	bdf0      	pop	{r4, r5, r6, r7, pc}
 8001f6a:	bf00      	nop
 8001f6c:	40020010 	.word	0x40020010
 8001f70:	40020058 	.word	0x40020058
 8001f74:	40020088 	.word	0x40020088
 8001f78:	5802541c 	.word	0x5802541c
 8001f7c:	40020070 	.word	0x40020070
 8001f80:	58025408 	.word	0x58025408

08001f84 <DMA_CalcBaseAndBitshift>:
 8001f84:	6802      	ldr	r2, [r0, #0]
 8001f86:	4b35      	ldr	r3, [pc, #212]	; (800205c <DMA_CalcBaseAndBitshift+0xd8>)
 8001f88:	4935      	ldr	r1, [pc, #212]	; (8002060 <DMA_CalcBaseAndBitshift+0xdc>)
 8001f8a:	b430      	push	{r4, r5}
 8001f8c:	4c35      	ldr	r4, [pc, #212]	; (8002064 <DMA_CalcBaseAndBitshift+0xe0>)
 8001f8e:	4d36      	ldr	r5, [pc, #216]	; (8002068 <DMA_CalcBaseAndBitshift+0xe4>)
 8001f90:	42a2      	cmp	r2, r4
 8001f92:	bf18      	it	ne
 8001f94:	429a      	cmpne	r2, r3
 8001f96:	f104 0448 	add.w	r4, r4, #72	; 0x48
 8001f9a:	bf0c      	ite	eq
 8001f9c:	2301      	moveq	r3, #1
 8001f9e:	2300      	movne	r3, #0
 8001fa0:	428a      	cmp	r2, r1
 8001fa2:	bf08      	it	eq
 8001fa4:	f043 0301 	orreq.w	r3, r3, #1
 8001fa8:	3148      	adds	r1, #72	; 0x48
 8001faa:	42aa      	cmp	r2, r5
 8001fac:	bf08      	it	eq
 8001fae:	f043 0301 	orreq.w	r3, r3, #1
 8001fb2:	3548      	adds	r5, #72	; 0x48
 8001fb4:	42a2      	cmp	r2, r4
 8001fb6:	bf08      	it	eq
 8001fb8:	f043 0301 	orreq.w	r3, r3, #1
 8001fbc:	3448      	adds	r4, #72	; 0x48
 8001fbe:	428a      	cmp	r2, r1
 8001fc0:	bf08      	it	eq
 8001fc2:	f043 0301 	orreq.w	r3, r3, #1
 8001fc6:	f501 7162 	add.w	r1, r1, #904	; 0x388
 8001fca:	42aa      	cmp	r2, r5
 8001fcc:	bf08      	it	eq
 8001fce:	f043 0301 	orreq.w	r3, r3, #1
 8001fd2:	f505 7562 	add.w	r5, r5, #904	; 0x388
 8001fd6:	42a2      	cmp	r2, r4
 8001fd8:	bf08      	it	eq
 8001fda:	f043 0301 	orreq.w	r3, r3, #1
 8001fde:	f504 7462 	add.w	r4, r4, #904	; 0x388
 8001fe2:	428a      	cmp	r2, r1
 8001fe4:	bf08      	it	eq
 8001fe6:	f043 0301 	orreq.w	r3, r3, #1
 8001fea:	3148      	adds	r1, #72	; 0x48
 8001fec:	42aa      	cmp	r2, r5
 8001fee:	bf08      	it	eq
 8001ff0:	f043 0301 	orreq.w	r3, r3, #1
 8001ff4:	3548      	adds	r5, #72	; 0x48
 8001ff6:	42a2      	cmp	r2, r4
 8001ff8:	bf08      	it	eq
 8001ffa:	f043 0301 	orreq.w	r3, r3, #1
 8001ffe:	3448      	adds	r4, #72	; 0x48
 8002000:	428a      	cmp	r2, r1
 8002002:	bf08      	it	eq
 8002004:	f043 0301 	orreq.w	r3, r3, #1
 8002008:	3148      	adds	r1, #72	; 0x48
 800200a:	42aa      	cmp	r2, r5
 800200c:	bf08      	it	eq
 800200e:	f043 0301 	orreq.w	r3, r3, #1
 8002012:	42a2      	cmp	r2, r4
 8002014:	bf08      	it	eq
 8002016:	f043 0301 	orreq.w	r3, r3, #1
 800201a:	428a      	cmp	r2, r1
 800201c:	bf08      	it	eq
 800201e:	f043 0301 	orreq.w	r3, r3, #1
 8002022:	b913      	cbnz	r3, 800202a <DMA_CalcBaseAndBitshift+0xa6>
 8002024:	4b11      	ldr	r3, [pc, #68]	; (800206c <DMA_CalcBaseAndBitshift+0xe8>)
 8002026:	429a      	cmp	r2, r3
 8002028:	d113      	bne.n	8002052 <DMA_CalcBaseAndBitshift+0xce>
 800202a:	b2d3      	uxtb	r3, r2
 800202c:	4910      	ldr	r1, [pc, #64]	; (8002070 <DMA_CalcBaseAndBitshift+0xec>)
 800202e:	4c11      	ldr	r4, [pc, #68]	; (8002074 <DMA_CalcBaseAndBitshift+0xf0>)
 8002030:	3b10      	subs	r3, #16
 8002032:	fba1 5103 	umull	r5, r1, r1, r3
 8002036:	2b5f      	cmp	r3, #95	; 0x5f
 8002038:	4b0f      	ldr	r3, [pc, #60]	; (8002078 <DMA_CalcBaseAndBitshift+0xf4>)
 800203a:	f3c1 1102 	ubfx	r1, r1, #4, #3
 800203e:	ea03 0302 	and.w	r3, r3, r2
 8002042:	5c61      	ldrb	r1, [r4, r1]
 8002044:	bf88      	it	hi
 8002046:	3304      	addhi	r3, #4
 8002048:	65c1      	str	r1, [r0, #92]	; 0x5c
 800204a:	6583      	str	r3, [r0, #88]	; 0x58
 800204c:	4618      	mov	r0, r3
 800204e:	bc30      	pop	{r4, r5}
 8002050:	4770      	bx	lr
 8002052:	f022 03ff 	bic.w	r3, r2, #255	; 0xff
 8002056:	6583      	str	r3, [r0, #88]	; 0x58
 8002058:	e7f8      	b.n	800204c <DMA_CalcBaseAndBitshift+0xc8>
 800205a:	bf00      	nop
 800205c:	40020010 	.word	0x40020010
 8002060:	40020040 	.word	0x40020040
 8002064:	40020028 	.word	0x40020028
 8002068:	40020058 	.word	0x40020058
 800206c:	400204b8 	.word	0x400204b8
 8002070:	aaaaaaab 	.word	0xaaaaaaab
 8002074:	0800637c 	.word	0x0800637c
 8002078:	fffffc00 	.word	0xfffffc00

0800207c <DMA_CalcDMAMUXChannelBaseAndMask>:
 800207c:	6803      	ldr	r3, [r0, #0]
 800207e:	4a29      	ldr	r2, [pc, #164]	; (8002124 <DMA_CalcDMAMUXChannelBaseAndMask+0xa8>)
 8002080:	4929      	ldr	r1, [pc, #164]	; (8002128 <DMA_CalcDMAMUXChannelBaseAndMask+0xac>)
 8002082:	b430      	push	{r4, r5}
 8002084:	4d29      	ldr	r5, [pc, #164]	; (800212c <DMA_CalcDMAMUXChannelBaseAndMask+0xb0>)
 8002086:	4c2a      	ldr	r4, [pc, #168]	; (8002130 <DMA_CalcDMAMUXChannelBaseAndMask+0xb4>)
 8002088:	42ab      	cmp	r3, r5
 800208a:	bf18      	it	ne
 800208c:	4293      	cmpne	r3, r2
 800208e:	f105 053c 	add.w	r5, r5, #60	; 0x3c
 8002092:	bf0c      	ite	eq
 8002094:	2201      	moveq	r2, #1
 8002096:	2200      	movne	r2, #0
 8002098:	42a3      	cmp	r3, r4
 800209a:	bf08      	it	eq
 800209c:	f042 0201 	orreq.w	r2, r2, #1
 80020a0:	343c      	adds	r4, #60	; 0x3c
 80020a2:	428b      	cmp	r3, r1
 80020a4:	bf08      	it	eq
 80020a6:	f042 0201 	orreq.w	r2, r2, #1
 80020aa:	313c      	adds	r1, #60	; 0x3c
 80020ac:	42ab      	cmp	r3, r5
 80020ae:	bf08      	it	eq
 80020b0:	f042 0201 	orreq.w	r2, r2, #1
 80020b4:	42a3      	cmp	r3, r4
 80020b6:	bf08      	it	eq
 80020b8:	f042 0201 	orreq.w	r2, r2, #1
 80020bc:	428b      	cmp	r3, r1
 80020be:	bf08      	it	eq
 80020c0:	f042 0201 	orreq.w	r2, r2, #1
 80020c4:	b912      	cbnz	r2, 80020cc <DMA_CalcDMAMUXChannelBaseAndMask+0x50>
 80020c6:	4a1b      	ldr	r2, [pc, #108]	; (8002134 <DMA_CalcDMAMUXChannelBaseAndMask+0xb8>)
 80020c8:	4293      	cmp	r3, r2
 80020ca:	d113      	bne.n	80020f4 <DMA_CalcDMAMUXChannelBaseAndMask+0x78>
 80020cc:	b2db      	uxtb	r3, r3
 80020ce:	4d1a      	ldr	r5, [pc, #104]	; (8002138 <DMA_CalcDMAMUXChannelBaseAndMask+0xbc>)
 80020d0:	4a1a      	ldr	r2, [pc, #104]	; (800213c <DMA_CalcDMAMUXChannelBaseAndMask+0xc0>)
 80020d2:	2101      	movs	r1, #1
 80020d4:	3b08      	subs	r3, #8
 80020d6:	4c1a      	ldr	r4, [pc, #104]	; (8002140 <DMA_CalcDMAMUXChannelBaseAndMask+0xc4>)
 80020d8:	fba5 5303 	umull	r5, r3, r5, r3
 80020dc:	6644      	str	r4, [r0, #100]	; 0x64
 80020de:	eb02 1213 	add.w	r2, r2, r3, lsr #4
 80020e2:	f3c3 1304 	ubfx	r3, r3, #4, #5
 80020e6:	0092      	lsls	r2, r2, #2
 80020e8:	fa01 f303 	lsl.w	r3, r1, r3
 80020ec:	6602      	str	r2, [r0, #96]	; 0x60
 80020ee:	6683      	str	r3, [r0, #104]	; 0x68
 80020f0:	bc30      	pop	{r4, r5}
 80020f2:	4770      	bx	lr
 80020f4:	b2da      	uxtb	r2, r3
 80020f6:	4913      	ldr	r1, [pc, #76]	; (8002144 <DMA_CalcDMAMUXChannelBaseAndMask+0xc8>)
 80020f8:	4c13      	ldr	r4, [pc, #76]	; (8002148 <DMA_CalcDMAMUXChannelBaseAndMask+0xcc>)
 80020fa:	4419      	add	r1, r3
 80020fc:	3a10      	subs	r2, #16
 80020fe:	29a8      	cmp	r1, #168	; 0xa8
 8002100:	fba4 2302 	umull	r2, r3, r4, r2
 8002104:	ea4f 1313 	mov.w	r3, r3, lsr #4
 8002108:	d800      	bhi.n	800210c <DMA_CalcDMAMUXChannelBaseAndMask+0x90>
 800210a:	3308      	adds	r3, #8
 800210c:	4a0f      	ldr	r2, [pc, #60]	; (800214c <DMA_CalcDMAMUXChannelBaseAndMask+0xd0>)
 800210e:	f003 051f 	and.w	r5, r3, #31
 8002112:	2101      	movs	r1, #1
 8002114:	4c0e      	ldr	r4, [pc, #56]	; (8002150 <DMA_CalcDMAMUXChannelBaseAndMask+0xd4>)
 8002116:	441a      	add	r2, r3
 8002118:	40a9      	lsls	r1, r5
 800211a:	6644      	str	r4, [r0, #100]	; 0x64
 800211c:	0092      	lsls	r2, r2, #2
 800211e:	6681      	str	r1, [r0, #104]	; 0x68
 8002120:	6602      	str	r2, [r0, #96]	; 0x60
 8002122:	e7e5      	b.n	80020f0 <DMA_CalcDMAMUXChannelBaseAndMask+0x74>
 8002124:	58025408 	.word	0x58025408
 8002128:	58025444 	.word	0x58025444
 800212c:	5802541c 	.word	0x5802541c
 8002130:	58025430 	.word	0x58025430
 8002134:	58025494 	.word	0x58025494
 8002138:	cccccccd 	.word	0xcccccccd
 800213c:	16009600 	.word	0x16009600
 8002140:	58025880 	.word	0x58025880
 8002144:	bffdfbf0 	.word	0xbffdfbf0
 8002148:	aaaaaaab 	.word	0xaaaaaaab
 800214c:	10008200 	.word	0x10008200
 8002150:	40020880 	.word	0x40020880

08002154 <DMA_CalcDMAMUXRequestGenBaseAndMask>:
 8002154:	b470      	push	{r4, r5, r6}
 8002156:	7904      	ldrb	r4, [r0, #4]
 8002158:	1e61      	subs	r1, r4, #1
 800215a:	2907      	cmp	r1, #7
 800215c:	d830      	bhi.n	80021c0 <DMA_CalcDMAMUXRequestGenBaseAndMask+0x6c>
 800215e:	6802      	ldr	r2, [r0, #0]
 8002160:	4b1c      	ldr	r3, [pc, #112]	; (80021d4 <DMA_CalcDMAMUXRequestGenBaseAndMask+0x80>)
 8002162:	4e1d      	ldr	r6, [pc, #116]	; (80021d8 <DMA_CalcDMAMUXRequestGenBaseAndMask+0x84>)
 8002164:	4d1d      	ldr	r5, [pc, #116]	; (80021dc <DMA_CalcDMAMUXRequestGenBaseAndMask+0x88>)
 8002166:	42b2      	cmp	r2, r6
 8002168:	bf18      	it	ne
 800216a:	429a      	cmpne	r2, r3
 800216c:	f106 0628 	add.w	r6, r6, #40	; 0x28
 8002170:	bf0c      	ite	eq
 8002172:	2301      	moveq	r3, #1
 8002174:	2300      	movne	r3, #0
 8002176:	42aa      	cmp	r2, r5
 8002178:	bf08      	it	eq
 800217a:	f043 0301 	orreq.w	r3, r3, #1
 800217e:	3528      	adds	r5, #40	; 0x28
 8002180:	42b2      	cmp	r2, r6
 8002182:	bf08      	it	eq
 8002184:	f043 0301 	orreq.w	r3, r3, #1
 8002188:	3628      	adds	r6, #40	; 0x28
 800218a:	42aa      	cmp	r2, r5
 800218c:	bf08      	it	eq
 800218e:	f043 0301 	orreq.w	r3, r3, #1
 8002192:	3528      	adds	r5, #40	; 0x28
 8002194:	42b2      	cmp	r2, r6
 8002196:	bf08      	it	eq
 8002198:	f043 0301 	orreq.w	r3, r3, #1
 800219c:	42aa      	cmp	r2, r5
 800219e:	bf08      	it	eq
 80021a0:	f043 0301 	orreq.w	r3, r3, #1
 80021a4:	b913      	cbnz	r3, 80021ac <DMA_CalcDMAMUXRequestGenBaseAndMask+0x58>
 80021a6:	4b0e      	ldr	r3, [pc, #56]	; (80021e0 <DMA_CalcDMAMUXRequestGenBaseAndMask+0x8c>)
 80021a8:	429a      	cmp	r2, r3
 80021aa:	d10b      	bne.n	80021c4 <DMA_CalcDMAMUXRequestGenBaseAndMask+0x70>
 80021ac:	4b0d      	ldr	r3, [pc, #52]	; (80021e4 <DMA_CalcDMAMUXRequestGenBaseAndMask+0x90>)
 80021ae:	4a0e      	ldr	r2, [pc, #56]	; (80021e8 <DMA_CalcDMAMUXRequestGenBaseAndMask+0x94>)
 80021b0:	4423      	add	r3, r4
 80021b2:	6702      	str	r2, [r0, #112]	; 0x70
 80021b4:	009b      	lsls	r3, r3, #2
 80021b6:	66c3      	str	r3, [r0, #108]	; 0x6c
 80021b8:	2301      	movs	r3, #1
 80021ba:	fa03 f101 	lsl.w	r1, r3, r1
 80021be:	6741      	str	r1, [r0, #116]	; 0x74
 80021c0:	bc70      	pop	{r4, r5, r6}
 80021c2:	4770      	bx	lr
 80021c4:	4b09      	ldr	r3, [pc, #36]	; (80021ec <DMA_CalcDMAMUXRequestGenBaseAndMask+0x98>)
 80021c6:	4a0a      	ldr	r2, [pc, #40]	; (80021f0 <DMA_CalcDMAMUXRequestGenBaseAndMask+0x9c>)
 80021c8:	4423      	add	r3, r4
 80021ca:	6702      	str	r2, [r0, #112]	; 0x70
 80021cc:	009b      	lsls	r3, r3, #2
 80021ce:	66c3      	str	r3, [r0, #108]	; 0x6c
 80021d0:	e7f2      	b.n	80021b8 <DMA_CalcDMAMUXRequestGenBaseAndMask+0x64>
 80021d2:	bf00      	nop
 80021d4:	58025408 	.word	0x58025408
 80021d8:	5802541c 	.word	0x5802541c
 80021dc:	58025430 	.word	0x58025430
 80021e0:	58025494 	.word	0x58025494
 80021e4:	1600963f 	.word	0x1600963f
 80021e8:	58025940 	.word	0x58025940
 80021ec:	1000823f 	.word	0x1000823f
 80021f0:	40020940 	.word	0x40020940

080021f4 <HAL_DMA_Init>:
 80021f4:	b5f8      	push	{r3, r4, r5, r6, r7, lr}
 80021f6:	4604      	mov	r4, r0
 80021f8:	f7ff fd3c 	bl	8001c74 <HAL_GetTick>
 80021fc:	2c00      	cmp	r4, #0
 80021fe:	f000 8189 	beq.w	8002514 <HAL_DMA_Init+0x320>
 8002202:	6823      	ldr	r3, [r4, #0]
 8002204:	4605      	mov	r5, r0
 8002206:	4a95      	ldr	r2, [pc, #596]	; (800245c <HAL_DMA_Init+0x268>)
 8002208:	4293      	cmp	r3, r2
 800220a:	d049      	beq.n	80022a0 <HAL_DMA_Init+0xac>
 800220c:	3218      	adds	r2, #24
 800220e:	4293      	cmp	r3, r2
 8002210:	d046      	beq.n	80022a0 <HAL_DMA_Init+0xac>
 8002212:	3218      	adds	r2, #24
 8002214:	4892      	ldr	r0, [pc, #584]	; (8002460 <HAL_DMA_Init+0x26c>)
 8002216:	4993      	ldr	r1, [pc, #588]	; (8002464 <HAL_DMA_Init+0x270>)
 8002218:	4283      	cmp	r3, r0
 800221a:	bf18      	it	ne
 800221c:	4293      	cmpne	r3, r2
 800221e:	f100 0030 	add.w	r0, r0, #48	; 0x30
 8002222:	bf0c      	ite	eq
 8002224:	2201      	moveq	r2, #1
 8002226:	2200      	movne	r2, #0
 8002228:	428b      	cmp	r3, r1
 800222a:	bf08      	it	eq
 800222c:	f042 0201 	orreq.w	r2, r2, #1
 8002230:	3130      	adds	r1, #48	; 0x30
 8002232:	4283      	cmp	r3, r0
 8002234:	bf08      	it	eq
 8002236:	f042 0201 	orreq.w	r2, r2, #1
 800223a:	3030      	adds	r0, #48	; 0x30
 800223c:	428b      	cmp	r3, r1
 800223e:	bf08      	it	eq
 8002240:	f042 0201 	orreq.w	r2, r2, #1
 8002244:	f501 715c 	add.w	r1, r1, #880	; 0x370
 8002248:	4283      	cmp	r3, r0
 800224a:	bf08      	it	eq
 800224c:	f042 0201 	orreq.w	r2, r2, #1
 8002250:	f500 705c 	add.w	r0, r0, #880	; 0x370
 8002254:	428b      	cmp	r3, r1
 8002256:	bf08      	it	eq
 8002258:	f042 0201 	orreq.w	r2, r2, #1
 800225c:	3130      	adds	r1, #48	; 0x30
 800225e:	4283      	cmp	r3, r0
 8002260:	bf08      	it	eq
 8002262:	f042 0201 	orreq.w	r2, r2, #1
 8002266:	3030      	adds	r0, #48	; 0x30
 8002268:	428b      	cmp	r3, r1
 800226a:	bf08      	it	eq
 800226c:	f042 0201 	orreq.w	r2, r2, #1
 8002270:	3130      	adds	r1, #48	; 0x30
 8002272:	4283      	cmp	r3, r0
 8002274:	bf08      	it	eq
 8002276:	f042 0201 	orreq.w	r2, r2, #1
 800227a:	3030      	adds	r0, #48	; 0x30
 800227c:	428b      	cmp	r3, r1
 800227e:	bf08      	it	eq
 8002280:	f042 0201 	orreq.w	r2, r2, #1
 8002284:	3130      	adds	r1, #48	; 0x30
 8002286:	4283      	cmp	r3, r0
 8002288:	bf08      	it	eq
 800228a:	f042 0201 	orreq.w	r2, r2, #1
 800228e:	428b      	cmp	r3, r1
 8002290:	bf08      	it	eq
 8002292:	f042 0201 	orreq.w	r2, r2, #1
 8002296:	b91a      	cbnz	r2, 80022a0 <HAL_DMA_Init+0xac>
 8002298:	4a73      	ldr	r2, [pc, #460]	; (8002468 <HAL_DMA_Init+0x274>)
 800229a:	4293      	cmp	r3, r2
 800229c:	f040 8169 	bne.w	8002572 <HAL_DMA_Init+0x37e>
 80022a0:	2202      	movs	r2, #2
 80022a2:	2100      	movs	r1, #0
 80022a4:	f884 2035 	strb.w	r2, [r4, #53]	; 0x35
 80022a8:	f884 1034 	strb.w	r1, [r4, #52]	; 0x34
 80022ac:	681a      	ldr	r2, [r3, #0]
 80022ae:	f022 0201 	bic.w	r2, r2, #1
 80022b2:	601a      	str	r2, [r3, #0]
 80022b4:	e006      	b.n	80022c4 <HAL_DMA_Init+0xd0>
 80022b6:	f7ff fcdd 	bl	8001c74 <HAL_GetTick>
 80022ba:	1b43      	subs	r3, r0, r5
 80022bc:	2b05      	cmp	r3, #5
 80022be:	f200 8110 	bhi.w	80024e2 <HAL_DMA_Init+0x2ee>
 80022c2:	6823      	ldr	r3, [r4, #0]
 80022c4:	681a      	ldr	r2, [r3, #0]
 80022c6:	07d0      	lsls	r0, r2, #31
 80022c8:	d4f5      	bmi.n	80022b6 <HAL_DMA_Init+0xc2>
 80022ca:	e9d4 2002 	ldrd	r2, r0, [r4, #8]
 80022ce:	6921      	ldr	r1, [r4, #16]
 80022d0:	4302      	orrs	r2, r0
 80022d2:	681f      	ldr	r7, [r3, #0]
 80022d4:	e9d4 6005 	ldrd	r6, r0, [r4, #20]
 80022d8:	430a      	orrs	r2, r1
 80022da:	4332      	orrs	r2, r6
 80022dc:	4e63      	ldr	r6, [pc, #396]	; (800246c <HAL_DMA_Init+0x278>)
 80022de:	e9d4 5107 	ldrd	r5, r1, [r4, #28]
 80022e2:	4302      	orrs	r2, r0
 80022e4:	403e      	ands	r6, r7
 80022e6:	432a      	orrs	r2, r5
 80022e8:	6a65      	ldr	r5, [r4, #36]	; 0x24
 80022ea:	430a      	orrs	r2, r1
 80022ec:	2d04      	cmp	r5, #4
 80022ee:	4960      	ldr	r1, [pc, #384]	; (8002470 <HAL_DMA_Init+0x27c>)
 80022f0:	ea42 0206 	orr.w	r2, r2, r6
 80022f4:	4e5f      	ldr	r6, [pc, #380]	; (8002474 <HAL_DMA_Init+0x280>)
 80022f6:	f000 810f 	beq.w	8002518 <HAL_DMA_Init+0x324>
 80022fa:	6836      	ldr	r6, [r6, #0]
 80022fc:	4031      	ands	r1, r6
 80022fe:	f1b1 5f00 	cmp.w	r1, #536870912	; 0x20000000
 8002302:	f080 80c3 	bcs.w	800248c <HAL_DMA_Init+0x298>
 8002306:	601a      	str	r2, [r3, #0]
 8002308:	6959      	ldr	r1, [r3, #20]
 800230a:	f021 0107 	bic.w	r1, r1, #7
 800230e:	4329      	orrs	r1, r5
 8002310:	6159      	str	r1, [r3, #20]
 8002312:	4620      	mov	r0, r4
 8002314:	f7ff fe36 	bl	8001f84 <DMA_CalcBaseAndBitshift>
 8002318:	6de2      	ldr	r2, [r4, #92]	; 0x5c
 800231a:	233f      	movs	r3, #63	; 0x3f
 800231c:	f002 021f 	and.w	r2, r2, #31
 8002320:	4093      	lsls	r3, r2
 8002322:	6083      	str	r3, [r0, #8]
 8002324:	6822      	ldr	r2, [r4, #0]
 8002326:	4b4d      	ldr	r3, [pc, #308]	; (800245c <HAL_DMA_Init+0x268>)
 8002328:	4953      	ldr	r1, [pc, #332]	; (8002478 <HAL_DMA_Init+0x284>)
 800232a:	4d54      	ldr	r5, [pc, #336]	; (800247c <HAL_DMA_Init+0x288>)
 800232c:	428a      	cmp	r2, r1
 800232e:	bf18      	it	ne
 8002330:	429a      	cmpne	r2, r3
 8002332:	484b      	ldr	r0, [pc, #300]	; (8002460 <HAL_DMA_Init+0x26c>)
 8002334:	f101 0148 	add.w	r1, r1, #72	; 0x48
 8002338:	bf0c      	ite	eq
 800233a:	2301      	moveq	r3, #1
 800233c:	2300      	movne	r3, #0
 800233e:	42aa      	cmp	r2, r5
 8002340:	bf08      	it	eq
 8002342:	f043 0301 	orreq.w	r3, r3, #1
 8002346:	3548      	adds	r5, #72	; 0x48
 8002348:	4282      	cmp	r2, r0
 800234a:	bf08      	it	eq
 800234c:	f043 0301 	orreq.w	r3, r3, #1
 8002350:	3048      	adds	r0, #72	; 0x48
 8002352:	428a      	cmp	r2, r1
 8002354:	bf08      	it	eq
 8002356:	f043 0301 	orreq.w	r3, r3, #1
 800235a:	3148      	adds	r1, #72	; 0x48
 800235c:	42aa      	cmp	r2, r5
 800235e:	bf08      	it	eq
 8002360:	f043 0301 	orreq.w	r3, r3, #1
 8002364:	f505 7562 	add.w	r5, r5, #904	; 0x388
 8002368:	4282      	cmp	r2, r0
 800236a:	bf08      	it	eq
 800236c:	f043 0301 	orreq.w	r3, r3, #1
 8002370:	f500 7062 	add.w	r0, r0, #904	; 0x388
 8002374:	428a      	cmp	r2, r1
 8002376:	bf08      	it	eq
 8002378:	f043 0301 	orreq.w	r3, r3, #1
 800237c:	f501 7162 	add.w	r1, r1, #904	; 0x388
 8002380:	42aa      	cmp	r2, r5
 8002382:	bf08      	it	eq
 8002384:	f043 0301 	orreq.w	r3, r3, #1
 8002388:	3548      	adds	r5, #72	; 0x48
 800238a:	4282      	cmp	r2, r0
 800238c:	bf08      	it	eq
 800238e:	f043 0301 	orreq.w	r3, r3, #1
 8002392:	3048      	adds	r0, #72	; 0x48
 8002394:	428a      	cmp	r2, r1
 8002396:	bf08      	it	eq
 8002398:	f043 0301 	orreq.w	r3, r3, #1
 800239c:	3148      	adds	r1, #72	; 0x48
 800239e:	42aa      	cmp	r2, r5
 80023a0:	bf08      	it	eq
 80023a2:	f043 0301 	orreq.w	r3, r3, #1
 80023a6:	3548      	adds	r5, #72	; 0x48
 80023a8:	4282      	cmp	r2, r0
 80023aa:	bf08      	it	eq
 80023ac:	f043 0301 	orreq.w	r3, r3, #1
 80023b0:	3048      	adds	r0, #72	; 0x48
 80023b2:	428a      	cmp	r2, r1
 80023b4:	bf08      	it	eq
 80023b6:	f043 0301 	orreq.w	r3, r3, #1
 80023ba:	f101 51c0 	add.w	r1, r1, #402653184	; 0x18000000
 80023be:	42aa      	cmp	r2, r5
 80023c0:	bf08      	it	eq
 80023c2:	f043 0301 	orreq.w	r3, r3, #1
 80023c6:	f501 419f 	add.w	r1, r1, #20352	; 0x4f80
 80023ca:	4d2d      	ldr	r5, [pc, #180]	; (8002480 <HAL_DMA_Init+0x28c>)
 80023cc:	4282      	cmp	r2, r0
 80023ce:	bf08      	it	eq
 80023d0:	f043 0301 	orreq.w	r3, r3, #1
 80023d4:	482b      	ldr	r0, [pc, #172]	; (8002484 <HAL_DMA_Init+0x290>)
 80023d6:	428a      	cmp	r2, r1
 80023d8:	bf08      	it	eq
 80023da:	f043 0301 	orreq.w	r3, r3, #1
 80023de:	313c      	adds	r1, #60	; 0x3c
 80023e0:	42aa      	cmp	r2, r5
 80023e2:	bf08      	it	eq
 80023e4:	f043 0301 	orreq.w	r3, r3, #1
 80023e8:	353c      	adds	r5, #60	; 0x3c
 80023ea:	4282      	cmp	r2, r0
 80023ec:	bf08      	it	eq
 80023ee:	f043 0301 	orreq.w	r3, r3, #1
 80023f2:	303c      	adds	r0, #60	; 0x3c
 80023f4:	428a      	cmp	r2, r1
 80023f6:	bf08      	it	eq
 80023f8:	f043 0301 	orreq.w	r3, r3, #1
 80023fc:	313c      	adds	r1, #60	; 0x3c
 80023fe:	42aa      	cmp	r2, r5
 8002400:	bf08      	it	eq
 8002402:	f043 0301 	orreq.w	r3, r3, #1
 8002406:	4282      	cmp	r2, r0
 8002408:	bf08      	it	eq
 800240a:	f043 0301 	orreq.w	r3, r3, #1
 800240e:	428a      	cmp	r2, r1
 8002410:	bf08      	it	eq
 8002412:	f043 0301 	orreq.w	r3, r3, #1
 8002416:	b913      	cbnz	r3, 800241e <HAL_DMA_Init+0x22a>
 8002418:	4b1b      	ldr	r3, [pc, #108]	; (8002488 <HAL_DMA_Init+0x294>)
 800241a:	429a      	cmp	r2, r3
 800241c:	d118      	bne.n	8002450 <HAL_DMA_Init+0x25c>
 800241e:	4620      	mov	r0, r4
 8002420:	f7ff fe2c 	bl	800207c <DMA_CalcDMAMUXChannelBaseAndMask>
 8002424:	68a3      	ldr	r3, [r4, #8]
 8002426:	2b80      	cmp	r3, #128	; 0x80
 8002428:	d068      	beq.n	80024fc <HAL_DMA_Init+0x308>
 800242a:	6863      	ldr	r3, [r4, #4]
 800242c:	6e20      	ldr	r0, [r4, #96]	; 0x60
 800242e:	b2dd      	uxtb	r5, r3
 8002430:	3b01      	subs	r3, #1
 8002432:	e9d4 2119 	ldrd	r2, r1, [r4, #100]	; 0x64
 8002436:	2b07      	cmp	r3, #7
 8002438:	6005      	str	r5, [r0, #0]
 800243a:	6051      	str	r1, [r2, #4]
 800243c:	d865      	bhi.n	800250a <HAL_DMA_Init+0x316>
 800243e:	4620      	mov	r0, r4
 8002440:	f7ff fe88 	bl	8002154 <DMA_CalcDMAMUXRequestGenBaseAndMask>
 8002444:	6ee1      	ldr	r1, [r4, #108]	; 0x6c
 8002446:	2000      	movs	r0, #0
 8002448:	e9d4 321c 	ldrd	r3, r2, [r4, #112]	; 0x70
 800244c:	6008      	str	r0, [r1, #0]
 800244e:	605a      	str	r2, [r3, #4]
 8002450:	2000      	movs	r0, #0
 8002452:	2301      	movs	r3, #1
 8002454:	6560      	str	r0, [r4, #84]	; 0x54
 8002456:	f884 3035 	strb.w	r3, [r4, #53]	; 0x35
 800245a:	bdf8      	pop	{r3, r4, r5, r6, r7, pc}
 800245c:	40020010 	.word	0x40020010
 8002460:	40020058 	.word	0x40020058
 8002464:	40020070 	.word	0x40020070
 8002468:	400204b8 	.word	0x400204b8
 800246c:	fe10803f 	.word	0xfe10803f
 8002470:	ffff0000 	.word	0xffff0000
 8002474:	5c001000 	.word	0x5c001000
 8002478:	40020028 	.word	0x40020028
 800247c:	40020040 	.word	0x40020040
 8002480:	5802541c 	.word	0x5802541c
 8002484:	58025430 	.word	0x58025430
 8002488:	58025494 	.word	0x58025494
 800248c:	6861      	ldr	r1, [r4, #4]
 800248e:	f1a1 0629 	sub.w	r6, r1, #41	; 0x29
 8002492:	2e1f      	cmp	r6, #31
 8002494:	d92c      	bls.n	80024f0 <HAL_DMA_Init+0x2fc>
 8002496:	394f      	subs	r1, #79	; 0x4f
 8002498:	2903      	cmp	r1, #3
 800249a:	d801      	bhi.n	80024a0 <HAL_DMA_Init+0x2ac>
 800249c:	f442 1280 	orr.w	r2, r2, #1048576	; 0x100000
 80024a0:	601a      	str	r2, [r3, #0]
 80024a2:	2d04      	cmp	r5, #4
 80024a4:	6959      	ldr	r1, [r3, #20]
 80024a6:	f021 0107 	bic.w	r1, r1, #7
 80024aa:	ea41 0105 	orr.w	r1, r1, r5
 80024ae:	f47f af2f 	bne.w	8002310 <HAL_DMA_Init+0x11c>
 80024b2:	6ae6      	ldr	r6, [r4, #44]	; 0x2c
 80024b4:	6aa2      	ldr	r2, [r4, #40]	; 0x28
 80024b6:	4311      	orrs	r1, r2
 80024b8:	2e00      	cmp	r6, #0
 80024ba:	f43f af29 	beq.w	8002310 <HAL_DMA_Init+0x11c>
 80024be:	2800      	cmp	r0, #0
 80024c0:	d13c      	bne.n	800253c <HAL_DMA_Init+0x348>
 80024c2:	2a01      	cmp	r2, #1
 80024c4:	d050      	beq.n	8002568 <HAL_DMA_Init+0x374>
 80024c6:	f032 0202 	bics.w	r2, r2, #2
 80024ca:	f47f af21 	bne.w	8002310 <HAL_DMA_Init+0x11c>
 80024ce:	01f2      	lsls	r2, r6, #7
 80024d0:	f57f af1e 	bpl.w	8002310 <HAL_DMA_Init+0x11c>
 80024d4:	2301      	movs	r3, #1
 80024d6:	2240      	movs	r2, #64	; 0x40
 80024d8:	4618      	mov	r0, r3
 80024da:	6562      	str	r2, [r4, #84]	; 0x54
 80024dc:	f884 3035 	strb.w	r3, [r4, #53]	; 0x35
 80024e0:	bdf8      	pop	{r3, r4, r5, r6, r7, pc}
 80024e2:	2220      	movs	r2, #32
 80024e4:	2303      	movs	r3, #3
 80024e6:	2001      	movs	r0, #1
 80024e8:	6562      	str	r2, [r4, #84]	; 0x54
 80024ea:	f884 3035 	strb.w	r3, [r4, #53]	; 0x35
 80024ee:	bdf8      	pop	{r3, r4, r5, r6, r7, pc}
 80024f0:	4954      	ldr	r1, [pc, #336]	; (8002644 <HAL_DMA_Init+0x450>)
 80024f2:	fa21 f606 	lsr.w	r6, r1, r6
 80024f6:	07f1      	lsls	r1, r6, #31
 80024f8:	d5d2      	bpl.n	80024a0 <HAL_DMA_Init+0x2ac>
 80024fa:	e7cf      	b.n	800249c <HAL_DMA_Init+0x2a8>
 80024fc:	2300      	movs	r3, #0
 80024fe:	6ea1      	ldr	r1, [r4, #104]	; 0x68
 8002500:	e9d4 0218 	ldrd	r0, r2, [r4, #96]	; 0x60
 8002504:	6063      	str	r3, [r4, #4]
 8002506:	6003      	str	r3, [r0, #0]
 8002508:	6051      	str	r1, [r2, #4]
 800250a:	2300      	movs	r3, #0
 800250c:	e9c4 331b 	strd	r3, r3, [r4, #108]	; 0x6c
 8002510:	6763      	str	r3, [r4, #116]	; 0x74
 8002512:	e79d      	b.n	8002450 <HAL_DMA_Init+0x25c>
 8002514:	2001      	movs	r0, #1
 8002516:	bdf8      	pop	{r3, r4, r5, r6, r7, pc}
 8002518:	6837      	ldr	r7, [r6, #0]
 800251a:	6ae6      	ldr	r6, [r4, #44]	; 0x2c
 800251c:	4039      	ands	r1, r7
 800251e:	6b27      	ldr	r7, [r4, #48]	; 0x30
 8002520:	f1b1 5f00 	cmp.w	r1, #536870912	; 0x20000000
 8002524:	ea46 0707 	orr.w	r7, r6, r7
 8002528:	ea42 0207 	orr.w	r2, r2, r7
 800252c:	d2ae      	bcs.n	800248c <HAL_DMA_Init+0x298>
 800252e:	601a      	str	r2, [r3, #0]
 8002530:	6959      	ldr	r1, [r3, #20]
 8002532:	f021 0107 	bic.w	r1, r1, #7
 8002536:	f041 0104 	orr.w	r1, r1, #4
 800253a:	e7bb      	b.n	80024b4 <HAL_DMA_Init+0x2c0>
 800253c:	f5b0 5f00 	cmp.w	r0, #8192	; 0x2000
 8002540:	d004      	beq.n	800254c <HAL_DMA_Init+0x358>
 8002542:	2a02      	cmp	r2, #2
 8002544:	d9c6      	bls.n	80024d4 <HAL_DMA_Init+0x2e0>
 8002546:	2a03      	cmp	r2, #3
 8002548:	d0c1      	beq.n	80024ce <HAL_DMA_Init+0x2da>
 800254a:	e6e1      	b.n	8002310 <HAL_DMA_Init+0x11c>
 800254c:	2a03      	cmp	r2, #3
 800254e:	f63f aedf 	bhi.w	8002310 <HAL_DMA_Init+0x11c>
 8002552:	a001      	add	r0, pc, #4	; (adr r0, 8002558 <HAL_DMA_Init+0x364>)
 8002554:	f850 f022 	ldr.w	pc, [r0, r2, lsl #2]
 8002558:	080024d5 	.word	0x080024d5
 800255c:	080024cf 	.word	0x080024cf
 8002560:	080024d5 	.word	0x080024d5
 8002564:	08002569 	.word	0x08002569
 8002568:	f1b6 7fc0 	cmp.w	r6, #25165824	; 0x1800000
 800256c:	f47f aed0 	bne.w	8002310 <HAL_DMA_Init+0x11c>
 8002570:	e7b0      	b.n	80024d4 <HAL_DMA_Init+0x2e0>
 8002572:	4a35      	ldr	r2, [pc, #212]	; (8002648 <HAL_DMA_Init+0x454>)
 8002574:	4935      	ldr	r1, [pc, #212]	; (800264c <HAL_DMA_Init+0x458>)
 8002576:	4836      	ldr	r0, [pc, #216]	; (8002650 <HAL_DMA_Init+0x45c>)
 8002578:	428b      	cmp	r3, r1
 800257a:	bf18      	it	ne
 800257c:	4293      	cmpne	r3, r2
 800257e:	f101 0128 	add.w	r1, r1, #40	; 0x28
 8002582:	4d34      	ldr	r5, [pc, #208]	; (8002654 <HAL_DMA_Init+0x460>)
 8002584:	bf0c      	ite	eq
 8002586:	2201      	moveq	r2, #1
 8002588:	2200      	movne	r2, #0
 800258a:	4283      	cmp	r3, r0
 800258c:	bf08      	it	eq
 800258e:	f042 0201 	orreq.w	r2, r2, #1
 8002592:	303c      	adds	r0, #60	; 0x3c
 8002594:	428b      	cmp	r3, r1
 8002596:	bf08      	it	eq
 8002598:	f042 0201 	orreq.w	r2, r2, #1
 800259c:	313c      	adds	r1, #60	; 0x3c
 800259e:	42ab      	cmp	r3, r5
 80025a0:	bf08      	it	eq
 80025a2:	f042 0201 	orreq.w	r2, r2, #1
 80025a6:	4283      	cmp	r3, r0
 80025a8:	bf08      	it	eq
 80025aa:	f042 0201 	orreq.w	r2, r2, #1
 80025ae:	428b      	cmp	r3, r1
 80025b0:	bf08      	it	eq
 80025b2:	f042 0201 	orreq.w	r2, r2, #1
 80025b6:	b912      	cbnz	r2, 80025be <HAL_DMA_Init+0x3ca>
 80025b8:	4a27      	ldr	r2, [pc, #156]	; (8002658 <HAL_DMA_Init+0x464>)
 80025ba:	4293      	cmp	r3, r2
 80025bc:	d13a      	bne.n	8002634 <HAL_DMA_Init+0x440>
 80025be:	2202      	movs	r2, #2
 80025c0:	2100      	movs	r1, #0
 80025c2:	4f26      	ldr	r7, [pc, #152]	; (800265c <HAL_DMA_Init+0x468>)
 80025c4:	f884 2035 	strb.w	r2, [r4, #53]	; 0x35
 80025c8:	68a2      	ldr	r2, [r4, #8]
 80025ca:	f884 1034 	strb.w	r1, [r4, #52]	; 0x34
 80025ce:	2a40      	cmp	r2, #64	; 0x40
 80025d0:	6819      	ldr	r1, [r3, #0]
 80025d2:	ea07 0701 	and.w	r7, r7, r1
 80025d6:	d02b      	beq.n	8002630 <HAL_DMA_Init+0x43c>
 80025d8:	2a80      	cmp	r2, #128	; 0x80
 80025da:	bf0c      	ite	eq
 80025dc:	f44f 4180 	moveq.w	r1, #16384	; 0x4000
 80025e0:	2100      	movne	r1, #0
 80025e2:	6922      	ldr	r2, [r4, #16]
 80025e4:	4620      	mov	r0, r4
 80025e6:	68e6      	ldr	r6, [r4, #12]
 80025e8:	08d2      	lsrs	r2, r2, #3
 80025ea:	6965      	ldr	r5, [r4, #20]
 80025ec:	f8df c074 	ldr.w	ip, [pc, #116]	; 8002664 <HAL_DMA_Init+0x470>
 80025f0:	ea42 02d6 	orr.w	r2, r2, r6, lsr #3
 80025f4:	69a6      	ldr	r6, [r4, #24]
 80025f6:	ea42 02d5 	orr.w	r2, r2, r5, lsr #3
 80025fa:	69e5      	ldr	r5, [r4, #28]
 80025fc:	ea42 02d6 	orr.w	r2, r2, r6, lsr #3
 8002600:	4e17      	ldr	r6, [pc, #92]	; (8002660 <HAL_DMA_Init+0x46c>)
 8002602:	ea42 02d5 	orr.w	r2, r2, r5, lsr #3
 8002606:	441e      	add	r6, r3
 8002608:	6a25      	ldr	r5, [r4, #32]
 800260a:	ea42 1215 	orr.w	r2, r2, r5, lsr #4
 800260e:	fbac 6506 	umull	r6, r5, ip, r6
 8002612:	433a      	orrs	r2, r7
 8002614:	092d      	lsrs	r5, r5, #4
 8002616:	4311      	orrs	r1, r2
 8002618:	00ad      	lsls	r5, r5, #2
 800261a:	6019      	str	r1, [r3, #0]
 800261c:	65e5      	str	r5, [r4, #92]	; 0x5c
 800261e:	f7ff fcb1 	bl	8001f84 <DMA_CalcBaseAndBitshift>
 8002622:	6de2      	ldr	r2, [r4, #92]	; 0x5c
 8002624:	2301      	movs	r3, #1
 8002626:	f002 021f 	and.w	r2, r2, #31
 800262a:	4093      	lsls	r3, r2
 800262c:	6043      	str	r3, [r0, #4]
 800262e:	e679      	b.n	8002324 <HAL_DMA_Init+0x130>
 8002630:	2110      	movs	r1, #16
 8002632:	e7d6      	b.n	80025e2 <HAL_DMA_Init+0x3ee>
 8002634:	2240      	movs	r2, #64	; 0x40
 8002636:	2303      	movs	r3, #3
 8002638:	2001      	movs	r0, #1
 800263a:	6562      	str	r2, [r4, #84]	; 0x54
 800263c:	f884 3035 	strb.w	r3, [r4, #53]	; 0x35
 8002640:	bdf8      	pop	{r3, r4, r5, r6, r7, pc}
 8002642:	bf00      	nop
 8002644:	c3c0003f 	.word	0xc3c0003f
 8002648:	58025408 	.word	0x58025408
 800264c:	5802541c 	.word	0x5802541c
 8002650:	58025430 	.word	0x58025430
 8002654:	58025458 	.word	0x58025458
 8002658:	58025494 	.word	0x58025494
 800265c:	fffe000f 	.word	0xfffe000f
 8002660:	a7fdabf8 	.word	0xa7fdabf8
 8002664:	cccccccd 	.word	0xcccccccd

08002668 <HAL_DMA_Start>:
 8002668:	2800      	cmp	r0, #0
 800266a:	d07c      	beq.n	8002766 <HAL_DMA_Start+0xfe>
 800266c:	b5f8      	push	{r3, r4, r5, r6, r7, lr}
 800266e:	4604      	mov	r4, r0
 8002670:	f890 0034 	ldrb.w	r0, [r0, #52]	; 0x34
 8002674:	2801      	cmp	r0, #1
 8002676:	d078      	beq.n	800276a <HAL_DMA_Start+0x102>
 8002678:	2001      	movs	r0, #1
 800267a:	f894 5035 	ldrb.w	r5, [r4, #53]	; 0x35
 800267e:	4285      	cmp	r5, r0
 8002680:	f884 0034 	strb.w	r0, [r4, #52]	; 0x34
 8002684:	d006      	beq.n	8002694 <HAL_DMA_Start+0x2c>
 8002686:	2200      	movs	r2, #0
 8002688:	f44f 6300 	mov.w	r3, #2048	; 0x800
 800268c:	f884 2034 	strb.w	r2, [r4, #52]	; 0x34
 8002690:	6563      	str	r3, [r4, #84]	; 0x54
 8002692:	bdf8      	pop	{r3, r4, r5, r6, r7, pc}
 8002694:	2702      	movs	r7, #2
 8002696:	6825      	ldr	r5, [r4, #0]
 8002698:	f884 7035 	strb.w	r7, [r4, #53]	; 0x35
 800269c:	2700      	movs	r7, #0
 800269e:	6567      	str	r7, [r4, #84]	; 0x54
 80026a0:	6828      	ldr	r0, [r5, #0]
 80026a2:	f020 0001 	bic.w	r0, r0, #1
 80026a6:	6028      	str	r0, [r5, #0]
 80026a8:	4620      	mov	r0, r4
 80026aa:	f7ff fba1 	bl	8001df0 <DMA_SetConfig>
 80026ae:	6822      	ldr	r2, [r4, #0]
 80026b0:	4b31      	ldr	r3, [pc, #196]	; (8002778 <HAL_DMA_Start+0x110>)
 80026b2:	4832      	ldr	r0, [pc, #200]	; (800277c <HAL_DMA_Start+0x114>)
 80026b4:	4932      	ldr	r1, [pc, #200]	; (8002780 <HAL_DMA_Start+0x118>)
 80026b6:	4282      	cmp	r2, r0
 80026b8:	bf18      	it	ne
 80026ba:	429a      	cmpne	r2, r3
 80026bc:	4d31      	ldr	r5, [pc, #196]	; (8002784 <HAL_DMA_Start+0x11c>)
 80026be:	4c32      	ldr	r4, [pc, #200]	; (8002788 <HAL_DMA_Start+0x120>)
 80026c0:	f100 0060 	add.w	r0, r0, #96	; 0x60
 80026c4:	bf0c      	ite	eq
 80026c6:	2301      	moveq	r3, #1
 80026c8:	2300      	movne	r3, #0
 80026ca:	428a      	cmp	r2, r1
 80026cc:	bf08      	it	eq
 80026ce:	f043 0301 	orreq.w	r3, r3, #1
 80026d2:	3160      	adds	r1, #96	; 0x60
 80026d4:	42aa      	cmp	r2, r5
 80026d6:	bf08      	it	eq
 80026d8:	f043 0301 	orreq.w	r3, r3, #1
 80026dc:	3560      	adds	r5, #96	; 0x60
 80026de:	42a2      	cmp	r2, r4
 80026e0:	bf08      	it	eq
 80026e2:	f043 0301 	orreq.w	r3, r3, #1
 80026e6:	f504 7468 	add.w	r4, r4, #928	; 0x3a0
 80026ea:	4282      	cmp	r2, r0
 80026ec:	bf08      	it	eq
 80026ee:	f043 0301 	orreq.w	r3, r3, #1
 80026f2:	f500 7068 	add.w	r0, r0, #928	; 0x3a0
 80026f6:	428a      	cmp	r2, r1
 80026f8:	bf08      	it	eq
 80026fa:	f043 0301 	orreq.w	r3, r3, #1
 80026fe:	f501 7168 	add.w	r1, r1, #928	; 0x3a0
 8002702:	42aa      	cmp	r2, r5
 8002704:	bf08      	it	eq
 8002706:	f043 0301 	orreq.w	r3, r3, #1
 800270a:	f505 7568 	add.w	r5, r5, #928	; 0x3a0
 800270e:	42a2      	cmp	r2, r4
 8002710:	bf08      	it	eq
 8002712:	f043 0301 	orreq.w	r3, r3, #1
 8002716:	3460      	adds	r4, #96	; 0x60
 8002718:	4282      	cmp	r2, r0
 800271a:	bf08      	it	eq
 800271c:	f043 0301 	orreq.w	r3, r3, #1
 8002720:	3060      	adds	r0, #96	; 0x60
 8002722:	428a      	cmp	r2, r1
 8002724:	bf08      	it	eq
 8002726:	f043 0301 	orreq.w	r3, r3, #1
 800272a:	3160      	adds	r1, #96	; 0x60
 800272c:	42aa      	cmp	r2, r5
 800272e:	bf08      	it	eq
 8002730:	f043 0301 	orreq.w	r3, r3, #1
 8002734:	42a2      	cmp	r2, r4
 8002736:	bf08      	it	eq
 8002738:	f043 0301 	orreq.w	r3, r3, #1
 800273c:	4282      	cmp	r2, r0
 800273e:	bf08      	it	eq
 8002740:	f043 0301 	orreq.w	r3, r3, #1
 8002744:	428a      	cmp	r2, r1
 8002746:	bf08      	it	eq
 8002748:	f043 0301 	orreq.w	r3, r3, #1
 800274c:	b92b      	cbnz	r3, 800275a <HAL_DMA_Start+0xf2>
 800274e:	3030      	adds	r0, #48	; 0x30
 8002750:	1a10      	subs	r0, r2, r0
 8002752:	fab0 f080 	clz	r0, r0
 8002756:	0940      	lsrs	r0, r0, #5
 8002758:	b148      	cbz	r0, 800276e <HAL_DMA_Start+0x106>
 800275a:	6813      	ldr	r3, [r2, #0]
 800275c:	2000      	movs	r0, #0
 800275e:	f043 0301 	orr.w	r3, r3, #1
 8002762:	6013      	str	r3, [r2, #0]
 8002764:	bdf8      	pop	{r3, r4, r5, r6, r7, pc}
 8002766:	2001      	movs	r0, #1
 8002768:	4770      	bx	lr
 800276a:	2002      	movs	r0, #2
 800276c:	bdf8      	pop	{r3, r4, r5, r6, r7, pc}
 800276e:	6813      	ldr	r3, [r2, #0]
 8002770:	f043 0301 	orr.w	r3, r3, #1
 8002774:	6013      	str	r3, [r2, #0]
 8002776:	bdf8      	pop	{r3, r4, r5, r6, r7, pc}
 8002778:	40020010 	.word	0x40020010
 800277c:	40020028 	.word	0x40020028
 8002780:	40020040 	.word	0x40020040
 8002784:	40020058 	.word	0x40020058
 8002788:	40020070 	.word	0x40020070

0800278c <HAL_DMA_Start_IT>:
 800278c:	2800      	cmp	r0, #0
 800278e:	f000 808f 	beq.w	80028b0 <HAL_DMA_Start_IT+0x124>
 8002792:	b5f8      	push	{r3, r4, r5, r6, r7, lr}
 8002794:	4604      	mov	r4, r0
 8002796:	f890 0034 	ldrb.w	r0, [r0, #52]	; 0x34
 800279a:	2801      	cmp	r0, #1
 800279c:	f000 808a 	beq.w	80028b4 <HAL_DMA_Start_IT+0x128>
 80027a0:	2001      	movs	r0, #1
 80027a2:	f894 5035 	ldrb.w	r5, [r4, #53]	; 0x35
 80027a6:	4285      	cmp	r5, r0
 80027a8:	f884 0034 	strb.w	r0, [r4, #52]	; 0x34
 80027ac:	d006      	beq.n	80027bc <HAL_DMA_Start_IT+0x30>
 80027ae:	2200      	movs	r2, #0
 80027b0:	f44f 6300 	mov.w	r3, #2048	; 0x800
 80027b4:	f884 2034 	strb.w	r2, [r4, #52]	; 0x34
 80027b8:	6563      	str	r3, [r4, #84]	; 0x54
 80027ba:	bdf8      	pop	{r3, r4, r5, r6, r7, pc}
 80027bc:	2702      	movs	r7, #2
 80027be:	6825      	ldr	r5, [r4, #0]
 80027c0:	f884 7035 	strb.w	r7, [r4, #53]	; 0x35
 80027c4:	2700      	movs	r7, #0
 80027c6:	6567      	str	r7, [r4, #84]	; 0x54
 80027c8:	6828      	ldr	r0, [r5, #0]
 80027ca:	f020 0001 	bic.w	r0, r0, #1
 80027ce:	6028      	str	r0, [r5, #0]
 80027d0:	4620      	mov	r0, r4
 80027d2:	f7ff fb0d 	bl	8001df0 <DMA_SetConfig>
 80027d6:	6823      	ldr	r3, [r4, #0]
 80027d8:	4951      	ldr	r1, [pc, #324]	; (8002920 <HAL_DMA_Start_IT+0x194>)
 80027da:	4a52      	ldr	r2, [pc, #328]	; (8002924 <HAL_DMA_Start_IT+0x198>)
 80027dc:	4293      	cmp	r3, r2
 80027de:	bf18      	it	ne
 80027e0:	428b      	cmpne	r3, r1
 80027e2:	d045      	beq.n	8002870 <HAL_DMA_Start_IT+0xe4>
 80027e4:	3230      	adds	r2, #48	; 0x30
 80027e6:	4d50      	ldr	r5, [pc, #320]	; (8002928 <HAL_DMA_Start_IT+0x19c>)
 80027e8:	4850      	ldr	r0, [pc, #320]	; (800292c <HAL_DMA_Start_IT+0x1a0>)
 80027ea:	42ab      	cmp	r3, r5
 80027ec:	bf18      	it	ne
 80027ee:	4293      	cmpne	r3, r2
 80027f0:	f105 0548 	add.w	r5, r5, #72	; 0x48
 80027f4:	bf0c      	ite	eq
 80027f6:	2201      	moveq	r2, #1
 80027f8:	2200      	movne	r2, #0
 80027fa:	4283      	cmp	r3, r0
 80027fc:	bf08      	it	eq
 80027fe:	f042 0201 	orreq.w	r2, r2, #1
 8002802:	3030      	adds	r0, #48	; 0x30
 8002804:	42ab      	cmp	r3, r5
 8002806:	bf08      	it	eq
 8002808:	f042 0201 	orreq.w	r2, r2, #1
 800280c:	3530      	adds	r5, #48	; 0x30
 800280e:	4283      	cmp	r3, r0
 8002810:	bf08      	it	eq
 8002812:	f042 0201 	orreq.w	r2, r2, #1
 8002816:	f500 705c 	add.w	r0, r0, #880	; 0x370
 800281a:	42ab      	cmp	r3, r5
 800281c:	bf08      	it	eq
 800281e:	f042 0201 	orreq.w	r2, r2, #1
 8002822:	f505 755c 	add.w	r5, r5, #880	; 0x370
 8002826:	4283      	cmp	r3, r0
 8002828:	bf08      	it	eq
 800282a:	f042 0201 	orreq.w	r2, r2, #1
 800282e:	3030      	adds	r0, #48	; 0x30
 8002830:	42ab      	cmp	r3, r5
 8002832:	bf08      	it	eq
 8002834:	f042 0201 	orreq.w	r2, r2, #1
 8002838:	3530      	adds	r5, #48	; 0x30
 800283a:	4283      	cmp	r3, r0
 800283c:	bf08      	it	eq
 800283e:	f042 0201 	orreq.w	r2, r2, #1
 8002842:	3030      	adds	r0, #48	; 0x30
 8002844:	42ab      	cmp	r3, r5
 8002846:	bf08      	it	eq
 8002848:	f042 0201 	orreq.w	r2, r2, #1
 800284c:	3530      	adds	r5, #48	; 0x30
 800284e:	4283      	cmp	r3, r0
 8002850:	bf08      	it	eq
 8002852:	f042 0201 	orreq.w	r2, r2, #1
 8002856:	3030      	adds	r0, #48	; 0x30
 8002858:	42ab      	cmp	r3, r5
 800285a:	bf08      	it	eq
 800285c:	f042 0201 	orreq.w	r2, r2, #1
 8002860:	4283      	cmp	r3, r0
 8002862:	bf08      	it	eq
 8002864:	f042 0201 	orreq.w	r2, r2, #1
 8002868:	b912      	cbnz	r2, 8002870 <HAL_DMA_Start_IT+0xe4>
 800286a:	4a31      	ldr	r2, [pc, #196]	; (8002930 <HAL_DMA_Start_IT+0x1a4>)
 800286c:	4293      	cmp	r3, r2
 800286e:	d123      	bne.n	80028b8 <HAL_DMA_Start_IT+0x12c>
 8002870:	681a      	ldr	r2, [r3, #0]
 8002872:	6c20      	ldr	r0, [r4, #64]	; 0x40
 8002874:	f022 021e 	bic.w	r2, r2, #30
 8002878:	f042 0216 	orr.w	r2, r2, #22
 800287c:	601a      	str	r2, [r3, #0]
 800287e:	b118      	cbz	r0, 8002888 <HAL_DMA_Start_IT+0xfc>
 8002880:	681a      	ldr	r2, [r3, #0]
 8002882:	f042 0208 	orr.w	r2, r2, #8
 8002886:	601a      	str	r2, [r3, #0]
 8002888:	6e22      	ldr	r2, [r4, #96]	; 0x60
 800288a:	6810      	ldr	r0, [r2, #0]
 800288c:	03c0      	lsls	r0, r0, #15
 800288e:	d503      	bpl.n	8002898 <HAL_DMA_Start_IT+0x10c>
 8002890:	6810      	ldr	r0, [r2, #0]
 8002892:	f440 7080 	orr.w	r0, r0, #256	; 0x100
 8002896:	6010      	str	r0, [r2, #0]
 8002898:	6ee2      	ldr	r2, [r4, #108]	; 0x6c
 800289a:	b11a      	cbz	r2, 80028a4 <HAL_DMA_Start_IT+0x118>
 800289c:	6810      	ldr	r0, [r2, #0]
 800289e:	f440 7080 	orr.w	r0, r0, #256	; 0x100
 80028a2:	6010      	str	r0, [r2, #0]
 80028a4:	681a      	ldr	r2, [r3, #0]
 80028a6:	2000      	movs	r0, #0
 80028a8:	f042 0201 	orr.w	r2, r2, #1
 80028ac:	601a      	str	r2, [r3, #0]
 80028ae:	bdf8      	pop	{r3, r4, r5, r6, r7, pc}
 80028b0:	2001      	movs	r0, #1
 80028b2:	4770      	bx	lr
 80028b4:	2002      	movs	r0, #2
 80028b6:	bdf8      	pop	{r3, r4, r5, r6, r7, pc}
 80028b8:	681a      	ldr	r2, [r3, #0]
 80028ba:	6c20      	ldr	r0, [r4, #64]	; 0x40
 80028bc:	f022 020e 	bic.w	r2, r2, #14
 80028c0:	f042 020a 	orr.w	r2, r2, #10
 80028c4:	601a      	str	r2, [r3, #0]
 80028c6:	b118      	cbz	r0, 80028d0 <HAL_DMA_Start_IT+0x144>
 80028c8:	681a      	ldr	r2, [r3, #0]
 80028ca:	f042 0204 	orr.w	r2, r2, #4
 80028ce:	601a      	str	r2, [r3, #0]
 80028d0:	4a18      	ldr	r2, [pc, #96]	; (8002934 <HAL_DMA_Start_IT+0x1a8>)
 80028d2:	4d19      	ldr	r5, [pc, #100]	; (8002938 <HAL_DMA_Start_IT+0x1ac>)
 80028d4:	4819      	ldr	r0, [pc, #100]	; (800293c <HAL_DMA_Start_IT+0x1b0>)
 80028d6:	42ab      	cmp	r3, r5
 80028d8:	bf18      	it	ne
 80028da:	4293      	cmpne	r3, r2
 80028dc:	f105 053c 	add.w	r5, r5, #60	; 0x3c
 80028e0:	bf0c      	ite	eq
 80028e2:	2201      	moveq	r2, #1
 80028e4:	2200      	movne	r2, #0
 80028e6:	4283      	cmp	r3, r0
 80028e8:	bf08      	it	eq
 80028ea:	f042 0201 	orreq.w	r2, r2, #1
 80028ee:	3028      	adds	r0, #40	; 0x28
 80028f0:	42ab      	cmp	r3, r5
 80028f2:	bf08      	it	eq
 80028f4:	f042 0201 	orreq.w	r2, r2, #1
 80028f8:	3528      	adds	r5, #40	; 0x28
 80028fa:	4283      	cmp	r3, r0
 80028fc:	bf08      	it	eq
 80028fe:	f042 0201 	orreq.w	r2, r2, #1
 8002902:	3028      	adds	r0, #40	; 0x28
 8002904:	42ab      	cmp	r3, r5
 8002906:	bf08      	it	eq
 8002908:	f042 0201 	orreq.w	r2, r2, #1
 800290c:	4283      	cmp	r3, r0
 800290e:	bf08      	it	eq
 8002910:	f042 0201 	orreq.w	r2, r2, #1
 8002914:	2a00      	cmp	r2, #0
 8002916:	d1b7      	bne.n	8002888 <HAL_DMA_Start_IT+0xfc>
 8002918:	4a09      	ldr	r2, [pc, #36]	; (8002940 <HAL_DMA_Start_IT+0x1b4>)
 800291a:	4293      	cmp	r3, r2
 800291c:	d0b4      	beq.n	8002888 <HAL_DMA_Start_IT+0xfc>
 800291e:	e7c1      	b.n	80028a4 <HAL_DMA_Start_IT+0x118>
 8002920:	40020010 	.word	0x40020010
 8002924:	40020028 	.word	0x40020028
 8002928:	40020040 	.word	0x40020040
 800292c:	40020070 	.word	0x40020070
 8002930:	400204b8 	.word	0x400204b8
 8002934:	5802541c 	.word	0x5802541c
 8002938:	58025408 	.word	0x58025408
 800293c:	58025430 	.word	0x58025430
 8002940:	58025494 	.word	0x58025494

08002944 <HAL_DMA_Abort>:
 8002944:	b570      	push	{r4, r5, r6, lr}
 8002946:	4605      	mov	r5, r0
 8002948:	f7ff f994 	bl	8001c74 <HAL_GetTick>
 800294c:	2d00      	cmp	r5, #0
 800294e:	f000 8128 	beq.w	8002ba2 <HAL_DMA_Abort+0x25e>
 8002952:	f895 3035 	ldrb.w	r3, [r5, #53]	; 0x35
 8002956:	2b02      	cmp	r3, #2
 8002958:	f040 80e1 	bne.w	8002b1e <HAL_DMA_Abort+0x1da>
 800295c:	682c      	ldr	r4, [r5, #0]
 800295e:	4606      	mov	r6, r0
 8002960:	4b91      	ldr	r3, [pc, #580]	; (8002ba8 <HAL_DMA_Abort+0x264>)
 8002962:	4992      	ldr	r1, [pc, #584]	; (8002bac <HAL_DMA_Abort+0x268>)
 8002964:	4a92      	ldr	r2, [pc, #584]	; (8002bb0 <HAL_DMA_Abort+0x26c>)
 8002966:	428c      	cmp	r4, r1
 8002968:	bf18      	it	ne
 800296a:	429c      	cmpne	r4, r3
 800296c:	f101 0148 	add.w	r1, r1, #72	; 0x48
 8002970:	4890      	ldr	r0, [pc, #576]	; (8002bb4 <HAL_DMA_Abort+0x270>)
 8002972:	bf0c      	ite	eq
 8002974:	2301      	moveq	r3, #1
 8002976:	2300      	movne	r3, #0
 8002978:	4294      	cmp	r4, r2
 800297a:	bf08      	it	eq
 800297c:	f043 0301 	orreq.w	r3, r3, #1
 8002980:	3248      	adds	r2, #72	; 0x48
 8002982:	428c      	cmp	r4, r1
 8002984:	bf08      	it	eq
 8002986:	f043 0301 	orreq.w	r3, r3, #1
 800298a:	f501 7162 	add.w	r1, r1, #904	; 0x388
 800298e:	4284      	cmp	r4, r0
 8002990:	bf08      	it	eq
 8002992:	f043 0301 	orreq.w	r3, r3, #1
 8002996:	f500 7062 	add.w	r0, r0, #904	; 0x388
 800299a:	4294      	cmp	r4, r2
 800299c:	bf08      	it	eq
 800299e:	f043 0301 	orreq.w	r3, r3, #1
 80029a2:	f502 7262 	add.w	r2, r2, #904	; 0x388
 80029a6:	428c      	cmp	r4, r1
 80029a8:	bf08      	it	eq
 80029aa:	f043 0301 	orreq.w	r3, r3, #1
 80029ae:	3148      	adds	r1, #72	; 0x48
 80029b0:	4284      	cmp	r4, r0
 80029b2:	bf08      	it	eq
 80029b4:	f043 0301 	orreq.w	r3, r3, #1
 80029b8:	3048      	adds	r0, #72	; 0x48
 80029ba:	4294      	cmp	r4, r2
 80029bc:	bf08      	it	eq
 80029be:	f043 0301 	orreq.w	r3, r3, #1
 80029c2:	3248      	adds	r2, #72	; 0x48
 80029c4:	428c      	cmp	r4, r1
 80029c6:	bf08      	it	eq
 80029c8:	f043 0301 	orreq.w	r3, r3, #1
 80029cc:	3148      	adds	r1, #72	; 0x48
 80029ce:	4284      	cmp	r4, r0
 80029d0:	bf08      	it	eq
 80029d2:	f043 0301 	orreq.w	r3, r3, #1
 80029d6:	3048      	adds	r0, #72	; 0x48
 80029d8:	4294      	cmp	r4, r2
 80029da:	bf08      	it	eq
 80029dc:	f043 0301 	orreq.w	r3, r3, #1
 80029e0:	f5a2 628f 	sub.w	r2, r2, #1144	; 0x478
 80029e4:	428c      	cmp	r4, r1
 80029e6:	bf08      	it	eq
 80029e8:	f043 0301 	orreq.w	r3, r3, #1
 80029ec:	f5a1 618f 	sub.w	r1, r1, #1144	; 0x478
 80029f0:	4284      	cmp	r4, r0
 80029f2:	bf08      	it	eq
 80029f4:	f043 0301 	orreq.w	r3, r3, #1
 80029f8:	428c      	cmp	r4, r1
 80029fa:	bf18      	it	ne
 80029fc:	4294      	cmpne	r4, r2
 80029fe:	bf0c      	ite	eq
 8002a00:	2201      	moveq	r2, #1
 8002a02:	2200      	movne	r2, #0
 8002a04:	d002      	beq.n	8002a0c <HAL_DMA_Abort+0xc8>
 8002a06:	2b00      	cmp	r3, #0
 8002a08:	f000 8090 	beq.w	8002b2c <HAL_DMA_Abort+0x1e8>
 8002a0c:	6821      	ldr	r1, [r4, #0]
 8002a0e:	f021 011e 	bic.w	r1, r1, #30
 8002a12:	6021      	str	r1, [r4, #0]
 8002a14:	6961      	ldr	r1, [r4, #20]
 8002a16:	f021 0180 	bic.w	r1, r1, #128	; 0x80
 8002a1a:	6161      	str	r1, [r4, #20]
 8002a1c:	2a00      	cmp	r2, #0
 8002a1e:	f000 80b0 	beq.w	8002b82 <HAL_DMA_Abort+0x23e>
 8002a22:	6e2a      	ldr	r2, [r5, #96]	; 0x60
 8002a24:	6813      	ldr	r3, [r2, #0]
 8002a26:	f423 7380 	bic.w	r3, r3, #256	; 0x100
 8002a2a:	6013      	str	r3, [r2, #0]
 8002a2c:	6823      	ldr	r3, [r4, #0]
 8002a2e:	f023 0301 	bic.w	r3, r3, #1
 8002a32:	6023      	str	r3, [r4, #0]
 8002a34:	e005      	b.n	8002a42 <HAL_DMA_Abort+0xfe>
 8002a36:	f7ff f91d 	bl	8001c74 <HAL_GetTick>
 8002a3a:	1b83      	subs	r3, r0, r6
 8002a3c:	2b05      	cmp	r3, #5
 8002a3e:	f200 80a6 	bhi.w	8002b8e <HAL_DMA_Abort+0x24a>
 8002a42:	6823      	ldr	r3, [r4, #0]
 8002a44:	07db      	lsls	r3, r3, #31
 8002a46:	d4f6      	bmi.n	8002a36 <HAL_DMA_Abort+0xf2>
 8002a48:	682a      	ldr	r2, [r5, #0]
 8002a4a:	4b57      	ldr	r3, [pc, #348]	; (8002ba8 <HAL_DMA_Abort+0x264>)
 8002a4c:	4957      	ldr	r1, [pc, #348]	; (8002bac <HAL_DMA_Abort+0x268>)
 8002a4e:	4c58      	ldr	r4, [pc, #352]	; (8002bb0 <HAL_DMA_Abort+0x26c>)
 8002a50:	428a      	cmp	r2, r1
 8002a52:	bf18      	it	ne
 8002a54:	429a      	cmpne	r2, r3
 8002a56:	4858      	ldr	r0, [pc, #352]	; (8002bb8 <HAL_DMA_Abort+0x274>)
 8002a58:	f101 0160 	add.w	r1, r1, #96	; 0x60
 8002a5c:	bf0c      	ite	eq
 8002a5e:	2301      	moveq	r3, #1
 8002a60:	2300      	movne	r3, #0
 8002a62:	42a2      	cmp	r2, r4
 8002a64:	bf08      	it	eq
 8002a66:	f043 0301 	orreq.w	r3, r3, #1
 8002a6a:	3448      	adds	r4, #72	; 0x48
 8002a6c:	4282      	cmp	r2, r0
 8002a6e:	bf08      	it	eq
 8002a70:	f043 0301 	orreq.w	r3, r3, #1
 8002a74:	f500 7062 	add.w	r0, r0, #904	; 0x388
 8002a78:	428a      	cmp	r2, r1
 8002a7a:	bf08      	it	eq
 8002a7c:	f043 0301 	orreq.w	r3, r3, #1
 8002a80:	f501 7162 	add.w	r1, r1, #904	; 0x388
 8002a84:	42a2      	cmp	r2, r4
 8002a86:	bf08      	it	eq
 8002a88:	f043 0301 	orreq.w	r3, r3, #1
 8002a8c:	f504 7462 	add.w	r4, r4, #904	; 0x388
 8002a90:	4282      	cmp	r2, r0
 8002a92:	bf08      	it	eq
 8002a94:	f043 0301 	orreq.w	r3, r3, #1
 8002a98:	3048      	adds	r0, #72	; 0x48
 8002a9a:	428a      	cmp	r2, r1
 8002a9c:	bf08      	it	eq
 8002a9e:	f043 0301 	orreq.w	r3, r3, #1
 8002aa2:	3148      	adds	r1, #72	; 0x48
 8002aa4:	42a2      	cmp	r2, r4
 8002aa6:	bf08      	it	eq
 8002aa8:	f043 0301 	orreq.w	r3, r3, #1
 8002aac:	3448      	adds	r4, #72	; 0x48
 8002aae:	4282      	cmp	r2, r0
 8002ab0:	bf08      	it	eq
 8002ab2:	f043 0301 	orreq.w	r3, r3, #1
 8002ab6:	3048      	adds	r0, #72	; 0x48
 8002ab8:	428a      	cmp	r2, r1
 8002aba:	bf08      	it	eq
 8002abc:	f043 0301 	orreq.w	r3, r3, #1
 8002ac0:	3148      	adds	r1, #72	; 0x48
 8002ac2:	42a2      	cmp	r2, r4
 8002ac4:	bf08      	it	eq
 8002ac6:	f043 0301 	orreq.w	r3, r3, #1
 8002aca:	4282      	cmp	r2, r0
 8002acc:	bf08      	it	eq
 8002ace:	f043 0301 	orreq.w	r3, r3, #1
 8002ad2:	428a      	cmp	r2, r1
 8002ad4:	bf08      	it	eq
 8002ad6:	f043 0301 	orreq.w	r3, r3, #1
 8002ada:	b933      	cbnz	r3, 8002aea <HAL_DMA_Abort+0x1a6>
 8002adc:	f5a1 6195 	sub.w	r1, r1, #1192	; 0x4a8
 8002ae0:	4b36      	ldr	r3, [pc, #216]	; (8002bbc <HAL_DMA_Abort+0x278>)
 8002ae2:	429a      	cmp	r2, r3
 8002ae4:	bf18      	it	ne
 8002ae6:	428a      	cmpne	r2, r1
 8002ae8:	d172      	bne.n	8002bd0 <HAL_DMA_Abort+0x28c>
 8002aea:	6dea      	ldr	r2, [r5, #92]	; 0x5c
 8002aec:	233f      	movs	r3, #63	; 0x3f
 8002aee:	6da9      	ldr	r1, [r5, #88]	; 0x58
 8002af0:	f002 021f 	and.w	r2, r2, #31
 8002af4:	4093      	lsls	r3, r2
 8002af6:	608b      	str	r3, [r1, #8]
 8002af8:	6eeb      	ldr	r3, [r5, #108]	; 0x6c
 8002afa:	e9d5 2119 	ldrd	r2, r1, [r5, #100]	; 0x64
 8002afe:	6051      	str	r1, [r2, #4]
 8002b00:	b133      	cbz	r3, 8002b10 <HAL_DMA_Abort+0x1cc>
 8002b02:	681a      	ldr	r2, [r3, #0]
 8002b04:	6f29      	ldr	r1, [r5, #112]	; 0x70
 8002b06:	6f68      	ldr	r0, [r5, #116]	; 0x74
 8002b08:	f422 7280 	bic.w	r2, r2, #256	; 0x100
 8002b0c:	601a      	str	r2, [r3, #0]
 8002b0e:	6048      	str	r0, [r1, #4]
 8002b10:	2000      	movs	r0, #0
 8002b12:	2301      	movs	r3, #1
 8002b14:	f885 0034 	strb.w	r0, [r5, #52]	; 0x34
 8002b18:	f885 3035 	strb.w	r3, [r5, #53]	; 0x35
 8002b1c:	bd70      	pop	{r4, r5, r6, pc}
 8002b1e:	2280      	movs	r2, #128	; 0x80
 8002b20:	2300      	movs	r3, #0
 8002b22:	2001      	movs	r0, #1
 8002b24:	656a      	str	r2, [r5, #84]	; 0x54
 8002b26:	f885 3034 	strb.w	r3, [r5, #52]	; 0x34
 8002b2a:	bd70      	pop	{r4, r5, r6, pc}
 8002b2c:	4a24      	ldr	r2, [pc, #144]	; (8002bc0 <HAL_DMA_Abort+0x27c>)
 8002b2e:	4925      	ldr	r1, [pc, #148]	; (8002bc4 <HAL_DMA_Abort+0x280>)
 8002b30:	4825      	ldr	r0, [pc, #148]	; (8002bc8 <HAL_DMA_Abort+0x284>)
 8002b32:	428c      	cmp	r4, r1
 8002b34:	bf18      	it	ne
 8002b36:	4294      	cmpne	r4, r2
 8002b38:	f101 013c 	add.w	r1, r1, #60	; 0x3c
 8002b3c:	bf0c      	ite	eq
 8002b3e:	2201      	moveq	r2, #1
 8002b40:	2200      	movne	r2, #0
 8002b42:	4284      	cmp	r4, r0
 8002b44:	bf08      	it	eq
 8002b46:	f042 0201 	orreq.w	r2, r2, #1
 8002b4a:	3028      	adds	r0, #40	; 0x28
 8002b4c:	428c      	cmp	r4, r1
 8002b4e:	bf08      	it	eq
 8002b50:	f042 0201 	orreq.w	r2, r2, #1
 8002b54:	3128      	adds	r1, #40	; 0x28
 8002b56:	4284      	cmp	r4, r0
 8002b58:	bf08      	it	eq
 8002b5a:	f042 0201 	orreq.w	r2, r2, #1
 8002b5e:	3028      	adds	r0, #40	; 0x28
 8002b60:	428c      	cmp	r4, r1
 8002b62:	bf08      	it	eq
 8002b64:	f042 0201 	orreq.w	r2, r2, #1
 8002b68:	6821      	ldr	r1, [r4, #0]
 8002b6a:	4284      	cmp	r4, r0
 8002b6c:	bf08      	it	eq
 8002b6e:	f042 0201 	orreq.w	r2, r2, #1
 8002b72:	f021 010e 	bic.w	r1, r1, #14
 8002b76:	6021      	str	r1, [r4, #0]
 8002b78:	b91a      	cbnz	r2, 8002b82 <HAL_DMA_Abort+0x23e>
 8002b7a:	4a14      	ldr	r2, [pc, #80]	; (8002bcc <HAL_DMA_Abort+0x288>)
 8002b7c:	4294      	cmp	r4, r2
 8002b7e:	f47f af55 	bne.w	8002a2c <HAL_DMA_Abort+0xe8>
 8002b82:	6e29      	ldr	r1, [r5, #96]	; 0x60
 8002b84:	680a      	ldr	r2, [r1, #0]
 8002b86:	f422 7280 	bic.w	r2, r2, #256	; 0x100
 8002b8a:	600a      	str	r2, [r1, #0]
 8002b8c:	e74e      	b.n	8002a2c <HAL_DMA_Abort+0xe8>
 8002b8e:	2120      	movs	r1, #32
 8002b90:	2200      	movs	r2, #0
 8002b92:	2303      	movs	r3, #3
 8002b94:	2001      	movs	r0, #1
 8002b96:	6569      	str	r1, [r5, #84]	; 0x54
 8002b98:	f885 2034 	strb.w	r2, [r5, #52]	; 0x34
 8002b9c:	f885 3035 	strb.w	r3, [r5, #53]	; 0x35
 8002ba0:	bd70      	pop	{r4, r5, r6, pc}
 8002ba2:	2001      	movs	r0, #1
 8002ba4:	bd70      	pop	{r4, r5, r6, pc}
 8002ba6:	bf00      	nop
 8002ba8:	40020058 	.word	0x40020058
 8002bac:	40020040 	.word	0x40020040
 8002bb0:	40020070 	.word	0x40020070
 8002bb4:	400200a0 	.word	0x400200a0
 8002bb8:	40020088 	.word	0x40020088
 8002bbc:	40020028 	.word	0x40020028
 8002bc0:	5802541c 	.word	0x5802541c
 8002bc4:	58025408 	.word	0x58025408
 8002bc8:	58025430 	.word	0x58025430
 8002bcc:	58025494 	.word	0x58025494
 8002bd0:	f104 54c0 	add.w	r4, r4, #402653184	; 0x18000000
 8002bd4:	4b18      	ldr	r3, [pc, #96]	; (8002c38 <HAL_DMA_Abort+0x2f4>)
 8002bd6:	4819      	ldr	r0, [pc, #100]	; (8002c3c <HAL_DMA_Abort+0x2f8>)
 8002bd8:	2101      	movs	r1, #1
 8002bda:	f504 449f 	add.w	r4, r4, #20352	; 0x4f80
 8002bde:	42a2      	cmp	r2, r4
 8002be0:	bf18      	it	ne
 8002be2:	429a      	cmpne	r2, r3
 8002be4:	f104 043c 	add.w	r4, r4, #60	; 0x3c
 8002be8:	bf0c      	ite	eq
 8002bea:	2301      	moveq	r3, #1
 8002bec:	2300      	movne	r3, #0
 8002bee:	4282      	cmp	r2, r0
 8002bf0:	bf08      	it	eq
 8002bf2:	f043 0301 	orreq.w	r3, r3, #1
 8002bf6:	3028      	adds	r0, #40	; 0x28
 8002bf8:	42a2      	cmp	r2, r4
 8002bfa:	bf08      	it	eq
 8002bfc:	f043 0301 	orreq.w	r3, r3, #1
 8002c00:	3428      	adds	r4, #40	; 0x28
 8002c02:	4282      	cmp	r2, r0
 8002c04:	bf08      	it	eq
 8002c06:	f043 0301 	orreq.w	r3, r3, #1
 8002c0a:	6de8      	ldr	r0, [r5, #92]	; 0x5c
 8002c0c:	42a2      	cmp	r2, r4
 8002c0e:	bf08      	it	eq
 8002c10:	f043 0301 	orreq.w	r3, r3, #1
 8002c14:	f000 001f 	and.w	r0, r0, #31
 8002c18:	3414      	adds	r4, #20
 8002c1a:	4081      	lsls	r1, r0
 8002c1c:	42a2      	cmp	r2, r4
 8002c1e:	bf08      	it	eq
 8002c20:	f043 0301 	orreq.w	r3, r3, #1
 8002c24:	6dac      	ldr	r4, [r5, #88]	; 0x58
 8002c26:	6061      	str	r1, [r4, #4]
 8002c28:	2b00      	cmp	r3, #0
 8002c2a:	f47f af65 	bne.w	8002af8 <HAL_DMA_Abort+0x1b4>
 8002c2e:	4b04      	ldr	r3, [pc, #16]	; (8002c40 <HAL_DMA_Abort+0x2fc>)
 8002c30:	429a      	cmp	r2, r3
 8002c32:	f43f af61 	beq.w	8002af8 <HAL_DMA_Abort+0x1b4>
 8002c36:	e76b      	b.n	8002b10 <HAL_DMA_Abort+0x1cc>
 8002c38:	5802541c 	.word	0x5802541c
 8002c3c:	58025430 	.word	0x58025430
 8002c40:	58025494 	.word	0x58025494

08002c44 <HAL_DMA_Abort_IT>:
 8002c44:	2800      	cmp	r0, #0
 8002c46:	d060      	beq.n	8002d0a <HAL_DMA_Abort_IT+0xc6>
 8002c48:	b538      	push	{r3, r4, r5, lr}
 8002c4a:	f890 2035 	ldrb.w	r2, [r0, #53]	; 0x35
 8002c4e:	4603      	mov	r3, r0
 8002c50:	2a02      	cmp	r2, #2
 8002c52:	d156      	bne.n	8002d02 <HAL_DMA_Abort_IT+0xbe>
 8002c54:	6801      	ldr	r1, [r0, #0]
 8002c56:	4a59      	ldr	r2, [pc, #356]	; (8002dbc <HAL_DMA_Abort_IT+0x178>)
 8002c58:	4291      	cmp	r1, r2
 8002c5a:	d049      	beq.n	8002cf0 <HAL_DMA_Abort_IT+0xac>
 8002c5c:	3218      	adds	r2, #24
 8002c5e:	4291      	cmp	r1, r2
 8002c60:	d046      	beq.n	8002cf0 <HAL_DMA_Abort_IT+0xac>
 8002c62:	3230      	adds	r2, #48	; 0x30
 8002c64:	4856      	ldr	r0, [pc, #344]	; (8002dc0 <HAL_DMA_Abort_IT+0x17c>)
 8002c66:	4c57      	ldr	r4, [pc, #348]	; (8002dc4 <HAL_DMA_Abort_IT+0x180>)
 8002c68:	4281      	cmp	r1, r0
 8002c6a:	bf18      	it	ne
 8002c6c:	4291      	cmpne	r1, r2
 8002c6e:	f100 0048 	add.w	r0, r0, #72	; 0x48
 8002c72:	4d55      	ldr	r5, [pc, #340]	; (8002dc8 <HAL_DMA_Abort_IT+0x184>)
 8002c74:	bf0c      	ite	eq
 8002c76:	2201      	moveq	r2, #1
 8002c78:	2200      	movne	r2, #0
 8002c7a:	42a1      	cmp	r1, r4
 8002c7c:	bf08      	it	eq
 8002c7e:	f042 0201 	orreq.w	r2, r2, #1
 8002c82:	3448      	adds	r4, #72	; 0x48
 8002c84:	4281      	cmp	r1, r0
 8002c86:	bf08      	it	eq
 8002c88:	f042 0201 	orreq.w	r2, r2, #1
 8002c8c:	f500 7062 	add.w	r0, r0, #904	; 0x388
 8002c90:	42a9      	cmp	r1, r5
 8002c92:	bf08      	it	eq
 8002c94:	f042 0201 	orreq.w	r2, r2, #1
 8002c98:	f505 7562 	add.w	r5, r5, #904	; 0x388
 8002c9c:	42a1      	cmp	r1, r4
 8002c9e:	bf08      	it	eq
 8002ca0:	f042 0201 	orreq.w	r2, r2, #1
 8002ca4:	f504 7462 	add.w	r4, r4, #904	; 0x388
 8002ca8:	4281      	cmp	r1, r0
 8002caa:	bf08      	it	eq
 8002cac:	f042 0201 	orreq.w	r2, r2, #1
 8002cb0:	3048      	adds	r0, #72	; 0x48
 8002cb2:	42a9      	cmp	r1, r5
 8002cb4:	bf08      	it	eq
 8002cb6:	f042 0201 	orreq.w	r2, r2, #1
 8002cba:	3548      	adds	r5, #72	; 0x48
 8002cbc:	42a1      	cmp	r1, r4
 8002cbe:	bf08      	it	eq
 8002cc0:	f042 0201 	orreq.w	r2, r2, #1
 8002cc4:	3448      	adds	r4, #72	; 0x48
 8002cc6:	4281      	cmp	r1, r0
 8002cc8:	bf08      	it	eq
 8002cca:	f042 0201 	orreq.w	r2, r2, #1
 8002cce:	3048      	adds	r0, #72	; 0x48
 8002cd0:	42a9      	cmp	r1, r5
 8002cd2:	bf08      	it	eq
 8002cd4:	f042 0201 	orreq.w	r2, r2, #1
 8002cd8:	42a1      	cmp	r1, r4
 8002cda:	bf08      	it	eq
 8002cdc:	f042 0201 	orreq.w	r2, r2, #1
 8002ce0:	4281      	cmp	r1, r0
 8002ce2:	bf08      	it	eq
 8002ce4:	f042 0201 	orreq.w	r2, r2, #1
 8002ce8:	b912      	cbnz	r2, 8002cf0 <HAL_DMA_Abort_IT+0xac>
 8002cea:	4a38      	ldr	r2, [pc, #224]	; (8002dcc <HAL_DMA_Abort_IT+0x188>)
 8002cec:	4291      	cmp	r1, r2
 8002cee:	d10e      	bne.n	8002d0e <HAL_DMA_Abort_IT+0xca>
 8002cf0:	2204      	movs	r2, #4
 8002cf2:	2000      	movs	r0, #0
 8002cf4:	f883 2035 	strb.w	r2, [r3, #53]	; 0x35
 8002cf8:	680b      	ldr	r3, [r1, #0]
 8002cfa:	f023 0301 	bic.w	r3, r3, #1
 8002cfe:	600b      	str	r3, [r1, #0]
 8002d00:	bd38      	pop	{r3, r4, r5, pc}
 8002d02:	2280      	movs	r2, #128	; 0x80
 8002d04:	2001      	movs	r0, #1
 8002d06:	655a      	str	r2, [r3, #84]	; 0x54
 8002d08:	bd38      	pop	{r3, r4, r5, pc}
 8002d0a:	2001      	movs	r0, #1
 8002d0c:	4770      	bx	lr
 8002d0e:	f104 54c0 	add.w	r4, r4, #402653184	; 0x18000000
 8002d12:	4a2f      	ldr	r2, [pc, #188]	; (8002dd0 <HAL_DMA_Abort_IT+0x18c>)
 8002d14:	482f      	ldr	r0, [pc, #188]	; (8002dd4 <HAL_DMA_Abort_IT+0x190>)
 8002d16:	f504 449f 	add.w	r4, r4, #20352	; 0x4f80
 8002d1a:	4d2f      	ldr	r5, [pc, #188]	; (8002dd8 <HAL_DMA_Abort_IT+0x194>)
 8002d1c:	42a1      	cmp	r1, r4
 8002d1e:	bf18      	it	ne
 8002d20:	4291      	cmpne	r1, r2
 8002d22:	f104 0450 	add.w	r4, r4, #80	; 0x50
 8002d26:	bf0c      	ite	eq
 8002d28:	2201      	moveq	r2, #1
 8002d2a:	2200      	movne	r2, #0
 8002d2c:	4281      	cmp	r1, r0
 8002d2e:	bf08      	it	eq
 8002d30:	f042 0201 	orreq.w	r2, r2, #1
 8002d34:	6808      	ldr	r0, [r1, #0]
 8002d36:	42a9      	cmp	r1, r5
 8002d38:	bf08      	it	eq
 8002d3a:	f042 0201 	orreq.w	r2, r2, #1
 8002d3e:	f020 000e 	bic.w	r0, r0, #14
 8002d42:	3528      	adds	r5, #40	; 0x28
 8002d44:	42a1      	cmp	r1, r4
 8002d46:	bf08      	it	eq
 8002d48:	f042 0201 	orreq.w	r2, r2, #1
 8002d4c:	6008      	str	r0, [r1, #0]
 8002d4e:	3428      	adds	r4, #40	; 0x28
 8002d50:	6808      	ldr	r0, [r1, #0]
 8002d52:	42a9      	cmp	r1, r5
 8002d54:	bf08      	it	eq
 8002d56:	f042 0201 	orreq.w	r2, r2, #1
 8002d5a:	f020 0001 	bic.w	r0, r0, #1
 8002d5e:	42a1      	cmp	r1, r4
 8002d60:	bf08      	it	eq
 8002d62:	f042 0201 	orreq.w	r2, r2, #1
 8002d66:	6008      	str	r0, [r1, #0]
 8002d68:	b912      	cbnz	r2, 8002d70 <HAL_DMA_Abort_IT+0x12c>
 8002d6a:	4a1c      	ldr	r2, [pc, #112]	; (8002ddc <HAL_DMA_Abort_IT+0x198>)
 8002d6c:	4291      	cmp	r1, r2
 8002d6e:	d117      	bne.n	8002da0 <HAL_DMA_Abort_IT+0x15c>
 8002d70:	6e1c      	ldr	r4, [r3, #96]	; 0x60
 8002d72:	2101      	movs	r1, #1
 8002d74:	6dd8      	ldr	r0, [r3, #92]	; 0x5c
 8002d76:	6822      	ldr	r2, [r4, #0]
 8002d78:	f000 001f 	and.w	r0, r0, #31
 8002d7c:	6d9d      	ldr	r5, [r3, #88]	; 0x58
 8002d7e:	f422 7280 	bic.w	r2, r2, #256	; 0x100
 8002d82:	4081      	lsls	r1, r0
 8002d84:	6e58      	ldr	r0, [r3, #100]	; 0x64
 8002d86:	6022      	str	r2, [r4, #0]
 8002d88:	e9d3 421a 	ldrd	r4, r2, [r3, #104]	; 0x68
 8002d8c:	6069      	str	r1, [r5, #4]
 8002d8e:	6044      	str	r4, [r0, #4]
 8002d90:	b132      	cbz	r2, 8002da0 <HAL_DMA_Abort_IT+0x15c>
 8002d92:	6811      	ldr	r1, [r2, #0]
 8002d94:	6f18      	ldr	r0, [r3, #112]	; 0x70
 8002d96:	6f5c      	ldr	r4, [r3, #116]	; 0x74
 8002d98:	f421 7180 	bic.w	r1, r1, #256	; 0x100
 8002d9c:	6011      	str	r1, [r2, #0]
 8002d9e:	6044      	str	r4, [r0, #4]
 8002da0:	2400      	movs	r4, #0
 8002da2:	2101      	movs	r1, #1
 8002da4:	6d1a      	ldr	r2, [r3, #80]	; 0x50
 8002da6:	f883 4034 	strb.w	r4, [r3, #52]	; 0x34
 8002daa:	f883 1035 	strb.w	r1, [r3, #53]	; 0x35
 8002dae:	b11a      	cbz	r2, 8002db8 <HAL_DMA_Abort_IT+0x174>
 8002db0:	4618      	mov	r0, r3
 8002db2:	4790      	blx	r2
 8002db4:	4620      	mov	r0, r4
 8002db6:	bd38      	pop	{r3, r4, r5, pc}
 8002db8:	4610      	mov	r0, r2
 8002dba:	bd38      	pop	{r3, r4, r5, pc}
 8002dbc:	40020010 	.word	0x40020010
 8002dc0:	40020040 	.word	0x40020040
 8002dc4:	40020070 	.word	0x40020070
 8002dc8:	400200a0 	.word	0x400200a0
 8002dcc:	400204b8 	.word	0x400204b8
 8002dd0:	5802541c 	.word	0x5802541c
 8002dd4:	58025430 	.word	0x58025430
 8002dd8:	58025444 	.word	0x58025444
 8002ddc:	58025494 	.word	0x58025494

08002de0 <HAL_DMA_IRQHandler>:
 8002de0:	e92d 47f0 	stmdb	sp!, {r4, r5, r6, r7, r8, r9, sl, lr}
 8002de4:	4a9f      	ldr	r2, [pc, #636]	; (8003064 <HAL_DMA_IRQHandler+0x284>)
 8002de6:	2500      	movs	r5, #0
 8002de8:	4e9f      	ldr	r6, [pc, #636]	; (8003068 <HAL_DMA_IRQHandler+0x288>)
 8002dea:	b082      	sub	sp, #8
 8002dec:	6803      	ldr	r3, [r0, #0]
 8002dee:	4682      	mov	sl, r0
 8002df0:	499e      	ldr	r1, [pc, #632]	; (800306c <HAL_DMA_IRQHandler+0x28c>)
 8002df2:	6d84      	ldr	r4, [r0, #88]	; 0x58
 8002df4:	4293      	cmp	r3, r2
 8002df6:	bf18      	it	ne
 8002df8:	42b3      	cmpne	r3, r6
 8002dfa:	9501      	str	r5, [sp, #4]
 8002dfc:	bf08      	it	eq
 8002dfe:	2601      	moveq	r6, #1
 8002e00:	680d      	ldr	r5, [r1, #0]
 8002e02:	6827      	ldr	r7, [r4, #0]
 8002e04:	bf18      	it	ne
 8002e06:	2600      	movne	r6, #0
 8002e08:	6821      	ldr	r1, [r4, #0]
 8002e0a:	d04a      	beq.n	8002ea2 <HAL_DMA_IRQHandler+0xc2>
 8002e0c:	3230      	adds	r2, #48	; 0x30
 8002e0e:	f8df e26c 	ldr.w	lr, [pc, #620]	; 800307c <HAL_DMA_IRQHandler+0x29c>
 8002e12:	4897      	ldr	r0, [pc, #604]	; (8003070 <HAL_DMA_IRQHandler+0x290>)
 8002e14:	4573      	cmp	r3, lr
 8002e16:	bf18      	it	ne
 8002e18:	4293      	cmpne	r3, r2
 8002e1a:	f10e 0e48 	add.w	lr, lr, #72	; 0x48
 8002e1e:	bf0c      	ite	eq
 8002e20:	2201      	moveq	r2, #1
 8002e22:	2200      	movne	r2, #0
 8002e24:	4283      	cmp	r3, r0
 8002e26:	bf08      	it	eq
 8002e28:	f042 0201 	orreq.w	r2, r2, #1
 8002e2c:	3030      	adds	r0, #48	; 0x30
 8002e2e:	4573      	cmp	r3, lr
 8002e30:	bf08      	it	eq
 8002e32:	f042 0201 	orreq.w	r2, r2, #1
 8002e36:	f10e 0e30 	add.w	lr, lr, #48	; 0x30
 8002e3a:	4283      	cmp	r3, r0
 8002e3c:	bf08      	it	eq
 8002e3e:	f042 0201 	orreq.w	r2, r2, #1
 8002e42:	f500 705c 	add.w	r0, r0, #880	; 0x370
 8002e46:	4573      	cmp	r3, lr
 8002e48:	bf08      	it	eq
 8002e4a:	f042 0201 	orreq.w	r2, r2, #1
 8002e4e:	f50e 7e5c 	add.w	lr, lr, #880	; 0x370
 8002e52:	4283      	cmp	r3, r0
 8002e54:	bf08      	it	eq
 8002e56:	f042 0201 	orreq.w	r2, r2, #1
 8002e5a:	3030      	adds	r0, #48	; 0x30
 8002e5c:	4573      	cmp	r3, lr
 8002e5e:	bf08      	it	eq
 8002e60:	f042 0201 	orreq.w	r2, r2, #1
 8002e64:	f10e 0e30 	add.w	lr, lr, #48	; 0x30
 8002e68:	4283      	cmp	r3, r0
 8002e6a:	bf08      	it	eq
 8002e6c:	f042 0201 	orreq.w	r2, r2, #1
 8002e70:	3030      	adds	r0, #48	; 0x30
 8002e72:	4573      	cmp	r3, lr
 8002e74:	bf08      	it	eq
 8002e76:	f042 0201 	orreq.w	r2, r2, #1
 8002e7a:	f10e 0e30 	add.w	lr, lr, #48	; 0x30
 8002e7e:	4283      	cmp	r3, r0
 8002e80:	bf08      	it	eq
 8002e82:	f042 0201 	orreq.w	r2, r2, #1
 8002e86:	3030      	adds	r0, #48	; 0x30
 8002e88:	4573      	cmp	r3, lr
 8002e8a:	bf08      	it	eq
 8002e8c:	f042 0201 	orreq.w	r2, r2, #1
 8002e90:	4283      	cmp	r3, r0
 8002e92:	bf08      	it	eq
 8002e94:	f042 0201 	orreq.w	r2, r2, #1
 8002e98:	b91a      	cbnz	r2, 8002ea2 <HAL_DMA_IRQHandler+0xc2>
 8002e9a:	4a76      	ldr	r2, [pc, #472]	; (8003074 <HAL_DMA_IRQHandler+0x294>)
 8002e9c:	4293      	cmp	r3, r2
 8002e9e:	f040 820b 	bne.w	80032b8 <HAL_DMA_IRQHandler+0x4d8>
 8002ea2:	f8da 105c 	ldr.w	r1, [sl, #92]	; 0x5c
 8002ea6:	2208      	movs	r2, #8
 8002ea8:	f001 0c1f 	and.w	ip, r1, #31
 8002eac:	fa02 f20c 	lsl.w	r2, r2, ip
 8002eb0:	4217      	tst	r7, r2
 8002eb2:	f040 818d 	bne.w	80031d0 <HAL_DMA_IRQHandler+0x3f0>
 8002eb6:	fa27 f20c 	lsr.w	r2, r7, ip
 8002eba:	07d2      	lsls	r2, r2, #31
 8002ebc:	d50c      	bpl.n	8002ed8 <HAL_DMA_IRQHandler+0xf8>
 8002ebe:	695a      	ldr	r2, [r3, #20]
 8002ec0:	0610      	lsls	r0, r2, #24
 8002ec2:	d509      	bpl.n	8002ed8 <HAL_DMA_IRQHandler+0xf8>
 8002ec4:	2201      	movs	r2, #1
 8002ec6:	fa02 f20c 	lsl.w	r2, r2, ip
 8002eca:	60a2      	str	r2, [r4, #8]
 8002ecc:	f8da 2054 	ldr.w	r2, [sl, #84]	; 0x54
 8002ed0:	f042 0202 	orr.w	r2, r2, #2
 8002ed4:	f8ca 2054 	str.w	r2, [sl, #84]	; 0x54
 8002ed8:	f04f 0e04 	mov.w	lr, #4
 8002edc:	fa0e f00c 	lsl.w	r0, lr, ip
 8002ee0:	4238      	tst	r0, r7
 8002ee2:	d05b      	beq.n	8002f9c <HAL_DMA_IRQHandler+0x1bc>
 8002ee4:	2e00      	cmp	r6, #0
 8002ee6:	d14f      	bne.n	8002f88 <HAL_DMA_IRQHandler+0x1a8>
 8002ee8:	4a63      	ldr	r2, [pc, #396]	; (8003078 <HAL_DMA_IRQHandler+0x298>)
 8002eea:	f8df 9190 	ldr.w	r9, [pc, #400]	; 800307c <HAL_DMA_IRQHandler+0x29c>
 8002eee:	f8df 8180 	ldr.w	r8, [pc, #384]	; 8003070 <HAL_DMA_IRQHandler+0x290>
 8002ef2:	454b      	cmp	r3, r9
 8002ef4:	bf18      	it	ne
 8002ef6:	4293      	cmpne	r3, r2
 8002ef8:	f109 0948 	add.w	r9, r9, #72	; 0x48
 8002efc:	bf0c      	ite	eq
 8002efe:	2201      	moveq	r2, #1
 8002f00:	2200      	movne	r2, #0
 8002f02:	4543      	cmp	r3, r8
 8002f04:	bf08      	it	eq
 8002f06:	f042 0201 	orreq.w	r2, r2, #1
 8002f0a:	f108 0830 	add.w	r8, r8, #48	; 0x30
 8002f0e:	454b      	cmp	r3, r9
 8002f10:	bf08      	it	eq
 8002f12:	f042 0201 	orreq.w	r2, r2, #1
 8002f16:	f109 0930 	add.w	r9, r9, #48	; 0x30
 8002f1a:	4543      	cmp	r3, r8
 8002f1c:	bf08      	it	eq
 8002f1e:	f042 0201 	orreq.w	r2, r2, #1
 8002f22:	f508 785c 	add.w	r8, r8, #880	; 0x370
 8002f26:	454b      	cmp	r3, r9
 8002f28:	bf08      	it	eq
 8002f2a:	f042 0201 	orreq.w	r2, r2, #1
 8002f2e:	f509 795c 	add.w	r9, r9, #880	; 0x370
 8002f32:	4543      	cmp	r3, r8
 8002f34:	bf08      	it	eq
 8002f36:	f042 0201 	orreq.w	r2, r2, #1
 8002f3a:	f108 0830 	add.w	r8, r8, #48	; 0x30
 8002f3e:	454b      	cmp	r3, r9
 8002f40:	bf08      	it	eq
 8002f42:	f042 0201 	orreq.w	r2, r2, #1
 8002f46:	f109 0930 	add.w	r9, r9, #48	; 0x30
 8002f4a:	4543      	cmp	r3, r8
 8002f4c:	bf08      	it	eq
 8002f4e:	f042 0201 	orreq.w	r2, r2, #1
 8002f52:	f108 0830 	add.w	r8, r8, #48	; 0x30
 8002f56:	454b      	cmp	r3, r9
 8002f58:	bf08      	it	eq
 8002f5a:	f042 0201 	orreq.w	r2, r2, #1
 8002f5e:	f109 0930 	add.w	r9, r9, #48	; 0x30
 8002f62:	4543      	cmp	r3, r8
 8002f64:	bf08      	it	eq
 8002f66:	f042 0201 	orreq.w	r2, r2, #1
 8002f6a:	f108 0830 	add.w	r8, r8, #48	; 0x30
 8002f6e:	454b      	cmp	r3, r9
 8002f70:	bf08      	it	eq
 8002f72:	f042 0201 	orreq.w	r2, r2, #1
 8002f76:	4543      	cmp	r3, r8
 8002f78:	bf08      	it	eq
 8002f7a:	f042 0201 	orreq.w	r2, r2, #1
 8002f7e:	b91a      	cbnz	r2, 8002f88 <HAL_DMA_IRQHandler+0x1a8>
 8002f80:	4a3c      	ldr	r2, [pc, #240]	; (8003074 <HAL_DMA_IRQHandler+0x294>)
 8002f82:	4293      	cmp	r3, r2
 8002f84:	f040 822f 	bne.w	80033e6 <HAL_DMA_IRQHandler+0x606>
 8002f88:	681a      	ldr	r2, [r3, #0]
 8002f8a:	0792      	lsls	r2, r2, #30
 8002f8c:	d506      	bpl.n	8002f9c <HAL_DMA_IRQHandler+0x1bc>
 8002f8e:	60a0      	str	r0, [r4, #8]
 8002f90:	f8da 2054 	ldr.w	r2, [sl, #84]	; 0x54
 8002f94:	f042 0204 	orr.w	r2, r2, #4
 8002f98:	f8ca 2054 	str.w	r2, [sl, #84]	; 0x54
 8002f9c:	2210      	movs	r2, #16
 8002f9e:	fa02 fc0c 	lsl.w	ip, r2, ip
 8002fa2:	ea1c 0f07 	tst.w	ip, r7
 8002fa6:	d06f      	beq.n	8003088 <HAL_DMA_IRQHandler+0x2a8>
 8002fa8:	2e00      	cmp	r6, #0
 8002faa:	d146      	bne.n	800303a <HAL_DMA_IRQHandler+0x25a>
 8002fac:	4a32      	ldr	r2, [pc, #200]	; (8003078 <HAL_DMA_IRQHandler+0x298>)
 8002fae:	4833      	ldr	r0, [pc, #204]	; (800307c <HAL_DMA_IRQHandler+0x29c>)
 8002fb0:	4e2f      	ldr	r6, [pc, #188]	; (8003070 <HAL_DMA_IRQHandler+0x290>)
 8002fb2:	4283      	cmp	r3, r0
 8002fb4:	bf18      	it	ne
 8002fb6:	4293      	cmpne	r3, r2
 8002fb8:	f100 0048 	add.w	r0, r0, #72	; 0x48
 8002fbc:	bf0c      	ite	eq
 8002fbe:	2201      	moveq	r2, #1
 8002fc0:	2200      	movne	r2, #0
 8002fc2:	42b3      	cmp	r3, r6
 8002fc4:	bf08      	it	eq
 8002fc6:	f042 0201 	orreq.w	r2, r2, #1
 8002fca:	3630      	adds	r6, #48	; 0x30
 8002fcc:	4283      	cmp	r3, r0
 8002fce:	bf08      	it	eq
 8002fd0:	f042 0201 	orreq.w	r2, r2, #1
 8002fd4:	3030      	adds	r0, #48	; 0x30
 8002fd6:	42b3      	cmp	r3, r6
 8002fd8:	bf08      	it	eq
 8002fda:	f042 0201 	orreq.w	r2, r2, #1
 8002fde:	f506 765c 	add.w	r6, r6, #880	; 0x370
 8002fe2:	4283      	cmp	r3, r0
 8002fe4:	bf08      	it	eq
 8002fe6:	f042 0201 	orreq.w	r2, r2, #1
 8002fea:	f500 705c 	add.w	r0, r0, #880	; 0x370
 8002fee:	42b3      	cmp	r3, r6
 8002ff0:	bf08      	it	eq
 8002ff2:	f042 0201 	orreq.w	r2, r2, #1
 8002ff6:	3630      	adds	r6, #48	; 0x30
 8002ff8:	4283      	cmp	r3, r0
 8002ffa:	bf08      	it	eq
 8002ffc:	f042 0201 	orreq.w	r2, r2, #1
 8003000:	3030      	adds	r0, #48	; 0x30
 8003002:	42b3      	cmp	r3, r6
 8003004:	bf08      	it	eq
 8003006:	f042 0201 	orreq.w	r2, r2, #1
 800300a:	3630      	adds	r6, #48	; 0x30
 800300c:	4283      	cmp	r3, r0
 800300e:	bf08      	it	eq
 8003010:	f042 0201 	orreq.w	r2, r2, #1
 8003014:	3030      	adds	r0, #48	; 0x30
 8003016:	42b3      	cmp	r3, r6
 8003018:	bf08      	it	eq
 800301a:	f042 0201 	orreq.w	r2, r2, #1
 800301e:	3630      	adds	r6, #48	; 0x30
 8003020:	4283      	cmp	r3, r0
 8003022:	bf08      	it	eq
 8003024:	f042 0201 	orreq.w	r2, r2, #1
 8003028:	42b3      	cmp	r3, r6
 800302a:	bf08      	it	eq
 800302c:	f042 0201 	orreq.w	r2, r2, #1
 8003030:	b91a      	cbnz	r2, 800303a <HAL_DMA_IRQHandler+0x25a>
 8003032:	4a10      	ldr	r2, [pc, #64]	; (8003074 <HAL_DMA_IRQHandler+0x294>)
 8003034:	4293      	cmp	r3, r2
 8003036:	f040 81de 	bne.w	80033f6 <HAL_DMA_IRQHandler+0x616>
 800303a:	681a      	ldr	r2, [r3, #0]
 800303c:	f3c2 02c0 	ubfx	r2, r2, #3, #1
 8003040:	b312      	cbz	r2, 8003088 <HAL_DMA_IRQHandler+0x2a8>
 8003042:	f8c4 c008 	str.w	ip, [r4, #8]
 8003046:	681a      	ldr	r2, [r3, #0]
 8003048:	0352      	lsls	r2, r2, #13
 800304a:	f100 818b 	bmi.w	8003364 <HAL_DMA_IRQHandler+0x584>
 800304e:	681a      	ldr	r2, [r3, #0]
 8003050:	05d6      	lsls	r6, r2, #23
 8003052:	d403      	bmi.n	800305c <HAL_DMA_IRQHandler+0x27c>
 8003054:	681a      	ldr	r2, [r3, #0]
 8003056:	f022 0208 	bic.w	r2, r2, #8
 800305a:	601a      	str	r2, [r3, #0]
 800305c:	f8da 3040 	ldr.w	r3, [sl, #64]	; 0x40
 8003060:	b193      	cbz	r3, 8003088 <HAL_DMA_IRQHandler+0x2a8>
 8003062:	e00d      	b.n	8003080 <HAL_DMA_IRQHandler+0x2a0>
 8003064:	40020028 	.word	0x40020028
 8003068:	40020010 	.word	0x40020010
 800306c:	24000000 	.word	0x24000000
 8003070:	40020070 	.word	0x40020070
 8003074:	400204b8 	.word	0x400204b8
 8003078:	40020058 	.word	0x40020058
 800307c:	40020040 	.word	0x40020040
 8003080:	4650      	mov	r0, sl
 8003082:	4798      	blx	r3
 8003084:	f8da 105c 	ldr.w	r1, [sl, #92]	; 0x5c
 8003088:	f001 011f 	and.w	r1, r1, #31
 800308c:	2620      	movs	r6, #32
 800308e:	408e      	lsls	r6, r1
 8003090:	423e      	tst	r6, r7
 8003092:	d06a      	beq.n	800316a <HAL_DMA_IRQHandler+0x38a>
 8003094:	f8da 2000 	ldr.w	r2, [sl]
 8003098:	4ba7      	ldr	r3, [pc, #668]	; (8003338 <HAL_DMA_IRQHandler+0x558>)
 800309a:	48a8      	ldr	r0, [pc, #672]	; (800333c <HAL_DMA_IRQHandler+0x55c>)
 800309c:	4fa8      	ldr	r7, [pc, #672]	; (8003340 <HAL_DMA_IRQHandler+0x560>)
 800309e:	4282      	cmp	r2, r0
 80030a0:	bf18      	it	ne
 80030a2:	429a      	cmpne	r2, r3
 80030a4:	f100 0030 	add.w	r0, r0, #48	; 0x30
 80030a8:	bf0c      	ite	eq
 80030aa:	2301      	moveq	r3, #1
 80030ac:	2300      	movne	r3, #0
 80030ae:	42ba      	cmp	r2, r7
 80030b0:	bf08      	it	eq
 80030b2:	f043 0301 	orreq.w	r3, r3, #1
 80030b6:	3730      	adds	r7, #48	; 0x30
 80030b8:	4282      	cmp	r2, r0
 80030ba:	bf08      	it	eq
 80030bc:	f043 0301 	orreq.w	r3, r3, #1
 80030c0:	3030      	adds	r0, #48	; 0x30
 80030c2:	42ba      	cmp	r2, r7
 80030c4:	bf08      	it	eq
 80030c6:	f043 0301 	orreq.w	r3, r3, #1
 80030ca:	3730      	adds	r7, #48	; 0x30
 80030cc:	4282      	cmp	r2, r0
 80030ce:	bf08      	it	eq
 80030d0:	f043 0301 	orreq.w	r3, r3, #1
 80030d4:	3030      	adds	r0, #48	; 0x30
 80030d6:	42ba      	cmp	r2, r7
 80030d8:	bf08      	it	eq
 80030da:	f043 0301 	orreq.w	r3, r3, #1
 80030de:	f507 775c 	add.w	r7, r7, #880	; 0x370
 80030e2:	4282      	cmp	r2, r0
 80030e4:	bf08      	it	eq
 80030e6:	f043 0301 	orreq.w	r3, r3, #1
 80030ea:	f500 705c 	add.w	r0, r0, #880	; 0x370
 80030ee:	42ba      	cmp	r2, r7
 80030f0:	bf08      	it	eq
 80030f2:	f043 0301 	orreq.w	r3, r3, #1
 80030f6:	3730      	adds	r7, #48	; 0x30
 80030f8:	4282      	cmp	r2, r0
 80030fa:	bf08      	it	eq
 80030fc:	f043 0301 	orreq.w	r3, r3, #1
 8003100:	3030      	adds	r0, #48	; 0x30
 8003102:	42ba      	cmp	r2, r7
 8003104:	bf08      	it	eq
 8003106:	f043 0301 	orreq.w	r3, r3, #1
 800310a:	3730      	adds	r7, #48	; 0x30
 800310c:	4282      	cmp	r2, r0
 800310e:	bf08      	it	eq
 8003110:	f043 0301 	orreq.w	r3, r3, #1
 8003114:	3030      	adds	r0, #48	; 0x30
 8003116:	42ba      	cmp	r2, r7
 8003118:	bf08      	it	eq
 800311a:	f043 0301 	orreq.w	r3, r3, #1
 800311e:	3730      	adds	r7, #48	; 0x30
 8003120:	4282      	cmp	r2, r0
 8003122:	bf08      	it	eq
 8003124:	f043 0301 	orreq.w	r3, r3, #1
 8003128:	42ba      	cmp	r2, r7
 800312a:	bf08      	it	eq
 800312c:	f043 0301 	orreq.w	r3, r3, #1
 8003130:	b91b      	cbnz	r3, 800313a <HAL_DMA_IRQHandler+0x35a>
 8003132:	4b84      	ldr	r3, [pc, #528]	; (8003344 <HAL_DMA_IRQHandler+0x564>)
 8003134:	429a      	cmp	r2, r3
 8003136:	f040 8173 	bne.w	8003420 <HAL_DMA_IRQHandler+0x640>
 800313a:	6813      	ldr	r3, [r2, #0]
 800313c:	f3c3 1300 	ubfx	r3, r3, #4, #1
 8003140:	b19b      	cbz	r3, 800316a <HAL_DMA_IRQHandler+0x38a>
 8003142:	60a6      	str	r6, [r4, #8]
 8003144:	f89a 3035 	ldrb.w	r3, [sl, #53]	; 0x35
 8003148:	2b04      	cmp	r3, #4
 800314a:	6813      	ldr	r3, [r2, #0]
 800314c:	f000 8114 	beq.w	8003378 <HAL_DMA_IRQHandler+0x598>
 8003150:	f413 2f80 	tst.w	r3, #262144	; 0x40000
 8003154:	6813      	ldr	r3, [r2, #0]
 8003156:	f000 812d 	beq.w	80033b4 <HAL_DMA_IRQHandler+0x5d4>
 800315a:	031c      	lsls	r4, r3, #12
 800315c:	f140 8138 	bpl.w	80033d0 <HAL_DMA_IRQHandler+0x5f0>
 8003160:	f8da 303c 	ldr.w	r3, [sl, #60]	; 0x3c
 8003164:	b10b      	cbz	r3, 800316a <HAL_DMA_IRQHandler+0x38a>
 8003166:	4650      	mov	r0, sl
 8003168:	4798      	blx	r3
 800316a:	f8da 3054 	ldr.w	r3, [sl, #84]	; 0x54
 800316e:	2b00      	cmp	r3, #0
 8003170:	f000 80df 	beq.w	8003332 <HAL_DMA_IRQHandler+0x552>
 8003174:	f8da 3054 	ldr.w	r3, [sl, #84]	; 0x54
 8003178:	07d8      	lsls	r0, r3, #31
 800317a:	d51f      	bpl.n	80031bc <HAL_DMA_IRQHandler+0x3dc>
 800317c:	f8da 2000 	ldr.w	r2, [sl]
 8003180:	2404      	movs	r4, #4
 8003182:	f88a 4035 	strb.w	r4, [sl, #53]	; 0x35
 8003186:	6813      	ldr	r3, [r2, #0]
 8003188:	f023 0301 	bic.w	r3, r3, #1
 800318c:	6013      	str	r3, [r2, #0]
 800318e:	4b6e      	ldr	r3, [pc, #440]	; (8003348 <HAL_DMA_IRQHandler+0x568>)
 8003190:	fba3 3505 	umull	r3, r5, r3, r5
 8003194:	0aad      	lsrs	r5, r5, #10
 8003196:	e002      	b.n	800319e <HAL_DMA_IRQHandler+0x3be>
 8003198:	6813      	ldr	r3, [r2, #0]
 800319a:	07d9      	lsls	r1, r3, #31
 800319c:	d504      	bpl.n	80031a8 <HAL_DMA_IRQHandler+0x3c8>
 800319e:	9b01      	ldr	r3, [sp, #4]
 80031a0:	3301      	adds	r3, #1
 80031a2:	42ab      	cmp	r3, r5
 80031a4:	9301      	str	r3, [sp, #4]
 80031a6:	d9f7      	bls.n	8003198 <HAL_DMA_IRQHandler+0x3b8>
 80031a8:	2300      	movs	r3, #0
 80031aa:	f88a 3034 	strb.w	r3, [sl, #52]	; 0x34
 80031ae:	6813      	ldr	r3, [r2, #0]
 80031b0:	07db      	lsls	r3, r3, #31
 80031b2:	bf4c      	ite	mi
 80031b4:	2303      	movmi	r3, #3
 80031b6:	2301      	movpl	r3, #1
 80031b8:	f88a 3035 	strb.w	r3, [sl, #53]	; 0x35
 80031bc:	f8da 304c 	ldr.w	r3, [sl, #76]	; 0x4c
 80031c0:	2b00      	cmp	r3, #0
 80031c2:	f000 80b6 	beq.w	8003332 <HAL_DMA_IRQHandler+0x552>
 80031c6:	4650      	mov	r0, sl
 80031c8:	b002      	add	sp, #8
 80031ca:	e8bd 47f0 	ldmia.w	sp!, {r4, r5, r6, r7, r8, r9, sl, lr}
 80031ce:	4718      	bx	r3
 80031d0:	6818      	ldr	r0, [r3, #0]
 80031d2:	0740      	lsls	r0, r0, #29
 80031d4:	d50a      	bpl.n	80031ec <HAL_DMA_IRQHandler+0x40c>
 80031d6:	6818      	ldr	r0, [r3, #0]
 80031d8:	f020 0004 	bic.w	r0, r0, #4
 80031dc:	6018      	str	r0, [r3, #0]
 80031de:	60a2      	str	r2, [r4, #8]
 80031e0:	f8da 2054 	ldr.w	r2, [sl, #84]	; 0x54
 80031e4:	f042 0201 	orr.w	r2, r2, #1
 80031e8:	f8ca 2054 	str.w	r2, [sl, #84]	; 0x54
 80031ec:	fa27 f20c 	lsr.w	r2, r7, ip
 80031f0:	07d2      	lsls	r2, r2, #31
 80031f2:	f57f ae71 	bpl.w	8002ed8 <HAL_DMA_IRQHandler+0xf8>
 80031f6:	4a55      	ldr	r2, [pc, #340]	; (800334c <HAL_DMA_IRQHandler+0x56c>)
 80031f8:	4851      	ldr	r0, [pc, #324]	; (8003340 <HAL_DMA_IRQHandler+0x560>)
 80031fa:	f8df 8164 	ldr.w	r8, [pc, #356]	; 8003360 <HAL_DMA_IRQHandler+0x580>
 80031fe:	4283      	cmp	r3, r0
 8003200:	bf18      	it	ne
 8003202:	4293      	cmpne	r3, r2
 8003204:	f100 0048 	add.w	r0, r0, #72	; 0x48
 8003208:	bf0c      	ite	eq
 800320a:	2201      	moveq	r2, #1
 800320c:	2200      	movne	r2, #0
 800320e:	4543      	cmp	r3, r8
 8003210:	bf08      	it	eq
 8003212:	f042 0201 	orreq.w	r2, r2, #1
 8003216:	f108 0830 	add.w	r8, r8, #48	; 0x30
 800321a:	4283      	cmp	r3, r0
 800321c:	bf08      	it	eq
 800321e:	f042 0201 	orreq.w	r2, r2, #1
 8003222:	3030      	adds	r0, #48	; 0x30
 8003224:	4543      	cmp	r3, r8
 8003226:	bf08      	it	eq
 8003228:	f042 0201 	orreq.w	r2, r2, #1
 800322c:	f508 785c 	add.w	r8, r8, #880	; 0x370
 8003230:	4283      	cmp	r3, r0
 8003232:	bf08      	it	eq
 8003234:	f042 0201 	orreq.w	r2, r2, #1
 8003238:	f500 705c 	add.w	r0, r0, #880	; 0x370
 800323c:	4543      	cmp	r3, r8
 800323e:	bf08      	it	eq
 8003240:	f042 0201 	orreq.w	r2, r2, #1
 8003244:	f108 0830 	add.w	r8, r8, #48	; 0x30
 8003248:	4283      	cmp	r3, r0
 800324a:	bf08      	it	eq
 800324c:	f042 0201 	orreq.w	r2, r2, #1
 8003250:	3030      	adds	r0, #48	; 0x30
 8003252:	4543      	cmp	r3, r8
 8003254:	bf08      	it	eq
 8003256:	f042 0201 	orreq.w	r2, r2, #1
 800325a:	f108 0830 	add.w	r8, r8, #48	; 0x30
 800325e:	4283      	cmp	r3, r0
 8003260:	bf08      	it	eq
 8003262:	f042 0201 	orreq.w	r2, r2, #1
 8003266:	3030      	adds	r0, #48	; 0x30
 8003268:	4543      	cmp	r3, r8
 800326a:	bf08      	it	eq
 800326c:	f042 0201 	orreq.w	r2, r2, #1
 8003270:	f108 0830 	add.w	r8, r8, #48	; 0x30
 8003274:	4283      	cmp	r3, r0
 8003276:	bf08      	it	eq
 8003278:	f042 0201 	orreq.w	r2, r2, #1
 800327c:	3030      	adds	r0, #48	; 0x30
 800327e:	4543      	cmp	r3, r8
 8003280:	bf08      	it	eq
 8003282:	f042 0201 	orreq.w	r2, r2, #1
 8003286:	4283      	cmp	r3, r0
 8003288:	bf08      	it	eq
 800328a:	f042 0201 	orreq.w	r2, r2, #1
 800328e:	2a00      	cmp	r2, #0
 8003290:	f47f ae15 	bne.w	8002ebe <HAL_DMA_IRQHandler+0xde>
 8003294:	2e00      	cmp	r6, #0
 8003296:	f47f ae12 	bne.w	8002ebe <HAL_DMA_IRQHandler+0xde>
 800329a:	2204      	movs	r2, #4
 800329c:	681e      	ldr	r6, [r3, #0]
 800329e:	fa02 f20c 	lsl.w	r2, r2, ip
 80032a2:	423a      	tst	r2, r7
 80032a4:	f040 809f 	bne.w	80033e6 <HAL_DMA_IRQHandler+0x606>
 80032a8:	2210      	movs	r2, #16
 80032aa:	fa02 fc0c 	lsl.w	ip, r2, ip
 80032ae:	ea17 0f0c 	tst.w	r7, ip
 80032b2:	f43f aee9 	beq.w	8003088 <HAL_DMA_IRQHandler+0x2a8>
 80032b6:	e679      	b.n	8002fac <HAL_DMA_IRQHandler+0x1cc>
 80032b8:	4a25      	ldr	r2, [pc, #148]	; (8003350 <HAL_DMA_IRQHandler+0x570>)
 80032ba:	4e26      	ldr	r6, [pc, #152]	; (8003354 <HAL_DMA_IRQHandler+0x574>)
 80032bc:	4d26      	ldr	r5, [pc, #152]	; (8003358 <HAL_DMA_IRQHandler+0x578>)
 80032be:	42b3      	cmp	r3, r6
 80032c0:	bf18      	it	ne
 80032c2:	4293      	cmpne	r3, r2
 80032c4:	f106 0628 	add.w	r6, r6, #40	; 0x28
 80032c8:	bf0c      	ite	eq
 80032ca:	2201      	moveq	r2, #1
 80032cc:	2200      	movne	r2, #0
 80032ce:	42ab      	cmp	r3, r5
 80032d0:	bf08      	it	eq
 80032d2:	f042 0201 	orreq.w	r2, r2, #1
 80032d6:	3528      	adds	r5, #40	; 0x28
 80032d8:	42b3      	cmp	r3, r6
 80032da:	bf08      	it	eq
 80032dc:	f042 0201 	orreq.w	r2, r2, #1
 80032e0:	3628      	adds	r6, #40	; 0x28
 80032e2:	42ab      	cmp	r3, r5
 80032e4:	bf08      	it	eq
 80032e6:	f042 0201 	orreq.w	r2, r2, #1
 80032ea:	3528      	adds	r5, #40	; 0x28
 80032ec:	42b3      	cmp	r3, r6
 80032ee:	bf08      	it	eq
 80032f0:	f042 0201 	orreq.w	r2, r2, #1
 80032f4:	42ab      	cmp	r3, r5
 80032f6:	bf08      	it	eq
 80032f8:	f042 0201 	orreq.w	r2, r2, #1
 80032fc:	b912      	cbnz	r2, 8003304 <HAL_DMA_IRQHandler+0x524>
 80032fe:	4a17      	ldr	r2, [pc, #92]	; (800335c <HAL_DMA_IRQHandler+0x57c>)
 8003300:	4293      	cmp	r3, r2
 8003302:	d116      	bne.n	8003332 <HAL_DMA_IRQHandler+0x552>
 8003304:	f8da 505c 	ldr.w	r5, [sl, #92]	; 0x5c
 8003308:	2604      	movs	r6, #4
 800330a:	681a      	ldr	r2, [r3, #0]
 800330c:	f005 051f 	and.w	r5, r5, #31
 8003310:	40ae      	lsls	r6, r5
 8003312:	420e      	tst	r6, r1
 8003314:	d073      	beq.n	80033fe <HAL_DMA_IRQHandler+0x61e>
 8003316:	0757      	lsls	r7, r2, #29
 8003318:	d571      	bpl.n	80033fe <HAL_DMA_IRQHandler+0x61e>
 800331a:	0410      	lsls	r0, r2, #16
 800331c:	6066      	str	r6, [r4, #4]
 800331e:	f140 809f 	bpl.w	8003460 <HAL_DMA_IRQHandler+0x680>
 8003322:	03d1      	lsls	r1, r2, #15
 8003324:	f100 80a2 	bmi.w	800346c <HAL_DMA_IRQHandler+0x68c>
 8003328:	f8da 3048 	ldr.w	r3, [sl, #72]	; 0x48
 800332c:	2b00      	cmp	r3, #0
 800332e:	f47f af4a 	bne.w	80031c6 <HAL_DMA_IRQHandler+0x3e6>
 8003332:	b002      	add	sp, #8
 8003334:	e8bd 87f0 	ldmia.w	sp!, {r4, r5, r6, r7, r8, r9, sl, pc}
 8003338:	40020010 	.word	0x40020010
 800333c:	40020028 	.word	0x40020028
 8003340:	40020040 	.word	0x40020040
 8003344:	400204b8 	.word	0x400204b8
 8003348:	1b4e81b5 	.word	0x1b4e81b5
 800334c:	40020058 	.word	0x40020058
 8003350:	58025408 	.word	0x58025408
 8003354:	5802541c 	.word	0x5802541c
 8003358:	58025430 	.word	0x58025430
 800335c:	58025494 	.word	0x58025494
 8003360:	40020070 	.word	0x40020070
 8003364:	681b      	ldr	r3, [r3, #0]
 8003366:	031b      	lsls	r3, r3, #12
 8003368:	f57f ae78 	bpl.w	800305c <HAL_DMA_IRQHandler+0x27c>
 800336c:	f8da 3048 	ldr.w	r3, [sl, #72]	; 0x48
 8003370:	2b00      	cmp	r3, #0
 8003372:	f47f ae85 	bne.w	8003080 <HAL_DMA_IRQHandler+0x2a0>
 8003376:	e687      	b.n	8003088 <HAL_DMA_IRQHandler+0x2a8>
 8003378:	f023 0316 	bic.w	r3, r3, #22
 800337c:	f8da 5040 	ldr.w	r5, [sl, #64]	; 0x40
 8003380:	6013      	str	r3, [r2, #0]
 8003382:	6953      	ldr	r3, [r2, #20]
 8003384:	f023 0380 	bic.w	r3, r3, #128	; 0x80
 8003388:	6153      	str	r3, [r2, #20]
 800338a:	b33d      	cbz	r5, 80033dc <HAL_DMA_IRQHandler+0x5fc>
 800338c:	6813      	ldr	r3, [r2, #0]
 800338e:	f023 0308 	bic.w	r3, r3, #8
 8003392:	6013      	str	r3, [r2, #0]
 8003394:	233f      	movs	r3, #63	; 0x3f
 8003396:	2500      	movs	r5, #0
 8003398:	2201      	movs	r2, #1
 800339a:	fa03 f101 	lsl.w	r1, r3, r1
 800339e:	f8da 3050 	ldr.w	r3, [sl, #80]	; 0x50
 80033a2:	60a1      	str	r1, [r4, #8]
 80033a4:	f88a 5034 	strb.w	r5, [sl, #52]	; 0x34
 80033a8:	f88a 2035 	strb.w	r2, [sl, #53]	; 0x35
 80033ac:	2b00      	cmp	r3, #0
 80033ae:	f47f af0a 	bne.w	80031c6 <HAL_DMA_IRQHandler+0x3e6>
 80033b2:	e7be      	b.n	8003332 <HAL_DMA_IRQHandler+0x552>
 80033b4:	f413 7380 	ands.w	r3, r3, #256	; 0x100
 80033b8:	f47f aed2 	bne.w	8003160 <HAL_DMA_IRQHandler+0x380>
 80033bc:	6811      	ldr	r1, [r2, #0]
 80033be:	2401      	movs	r4, #1
 80033c0:	f021 0110 	bic.w	r1, r1, #16
 80033c4:	6011      	str	r1, [r2, #0]
 80033c6:	f88a 3034 	strb.w	r3, [sl, #52]	; 0x34
 80033ca:	f88a 4035 	strb.w	r4, [sl, #53]	; 0x35
 80033ce:	e6c7      	b.n	8003160 <HAL_DMA_IRQHandler+0x380>
 80033d0:	f8da 3044 	ldr.w	r3, [sl, #68]	; 0x44
 80033d4:	2b00      	cmp	r3, #0
 80033d6:	f47f aec6 	bne.w	8003166 <HAL_DMA_IRQHandler+0x386>
 80033da:	e6c6      	b.n	800316a <HAL_DMA_IRQHandler+0x38a>
 80033dc:	f8da 3048 	ldr.w	r3, [sl, #72]	; 0x48
 80033e0:	2b00      	cmp	r3, #0
 80033e2:	d1d3      	bne.n	800338c <HAL_DMA_IRQHandler+0x5ac>
 80033e4:	e7d6      	b.n	8003394 <HAL_DMA_IRQHandler+0x5b4>
 80033e6:	2210      	movs	r2, #16
 80033e8:	681e      	ldr	r6, [r3, #0]
 80033ea:	fa02 fc0c 	lsl.w	ip, r2, ip
 80033ee:	ea17 0f0c 	tst.w	r7, ip
 80033f2:	f43f ae49 	beq.w	8003088 <HAL_DMA_IRQHandler+0x2a8>
 80033f6:	681a      	ldr	r2, [r3, #0]
 80033f8:	f3c2 0280 	ubfx	r2, r2, #2, #1
 80033fc:	e620      	b.n	8003040 <HAL_DMA_IRQHandler+0x260>
 80033fe:	2602      	movs	r6, #2
 8003400:	40ae      	lsls	r6, r5
 8003402:	420e      	tst	r6, r1
 8003404:	d010      	beq.n	8003428 <HAL_DMA_IRQHandler+0x648>
 8003406:	0797      	lsls	r7, r2, #30
 8003408:	d50e      	bpl.n	8003428 <HAL_DMA_IRQHandler+0x648>
 800340a:	6066      	str	r6, [r4, #4]
 800340c:	0414      	lsls	r4, r2, #16
 800340e:	d533      	bpl.n	8003478 <HAL_DMA_IRQHandler+0x698>
 8003410:	03d0      	lsls	r0, r2, #15
 8003412:	d43d      	bmi.n	8003490 <HAL_DMA_IRQHandler+0x6b0>
 8003414:	f8da 3044 	ldr.w	r3, [sl, #68]	; 0x44
 8003418:	2b00      	cmp	r3, #0
 800341a:	f47f aed4 	bne.w	80031c6 <HAL_DMA_IRQHandler+0x3e6>
 800341e:	e788      	b.n	8003332 <HAL_DMA_IRQHandler+0x552>
 8003420:	6813      	ldr	r3, [r2, #0]
 8003422:	f3c3 0340 	ubfx	r3, r3, #1, #1
 8003426:	e68b      	b.n	8003140 <HAL_DMA_IRQHandler+0x360>
 8003428:	2608      	movs	r6, #8
 800342a:	40ae      	lsls	r6, r5
 800342c:	420e      	tst	r6, r1
 800342e:	d080      	beq.n	8003332 <HAL_DMA_IRQHandler+0x552>
 8003430:	0711      	lsls	r1, r2, #28
 8003432:	f57f af7e 	bpl.w	8003332 <HAL_DMA_IRQHandler+0x552>
 8003436:	6819      	ldr	r1, [r3, #0]
 8003438:	2201      	movs	r2, #1
 800343a:	2600      	movs	r6, #0
 800343c:	f021 010e 	bic.w	r1, r1, #14
 8003440:	fa02 f505 	lsl.w	r5, r2, r5
 8003444:	6019      	str	r1, [r3, #0]
 8003446:	f8da 304c 	ldr.w	r3, [sl, #76]	; 0x4c
 800344a:	6065      	str	r5, [r4, #4]
 800344c:	f8ca 2054 	str.w	r2, [sl, #84]	; 0x54
 8003450:	f88a 6034 	strb.w	r6, [sl, #52]	; 0x34
 8003454:	f88a 2035 	strb.w	r2, [sl, #53]	; 0x35
 8003458:	2b00      	cmp	r3, #0
 800345a:	f47f aeb4 	bne.w	80031c6 <HAL_DMA_IRQHandler+0x3e6>
 800345e:	e768      	b.n	8003332 <HAL_DMA_IRQHandler+0x552>
 8003460:	0692      	lsls	r2, r2, #26
 8003462:	d403      	bmi.n	800346c <HAL_DMA_IRQHandler+0x68c>
 8003464:	681a      	ldr	r2, [r3, #0]
 8003466:	f022 0204 	bic.w	r2, r2, #4
 800346a:	601a      	str	r2, [r3, #0]
 800346c:	f8da 3040 	ldr.w	r3, [sl, #64]	; 0x40
 8003470:	2b00      	cmp	r3, #0
 8003472:	f47f aea8 	bne.w	80031c6 <HAL_DMA_IRQHandler+0x3e6>
 8003476:	e75c      	b.n	8003332 <HAL_DMA_IRQHandler+0x552>
 8003478:	f012 0220 	ands.w	r2, r2, #32
 800347c:	d108      	bne.n	8003490 <HAL_DMA_IRQHandler+0x6b0>
 800347e:	6819      	ldr	r1, [r3, #0]
 8003480:	2401      	movs	r4, #1
 8003482:	f021 010a 	bic.w	r1, r1, #10
 8003486:	6019      	str	r1, [r3, #0]
 8003488:	f88a 2034 	strb.w	r2, [sl, #52]	; 0x34
 800348c:	f88a 4035 	strb.w	r4, [sl, #53]	; 0x35
 8003490:	f8da 303c 	ldr.w	r3, [sl, #60]	; 0x3c
 8003494:	2b00      	cmp	r3, #0
 8003496:	f47f ae96 	bne.w	80031c6 <HAL_DMA_IRQHandler+0x3e6>
 800349a:	e74a      	b.n	8003332 <HAL_DMA_IRQHandler+0x552>

0800349c <HAL_EXTI_RegisterCallback>:
 800349c:	b919      	cbnz	r1, 80034a6 <HAL_EXTI_RegisterCallback+0xa>
 800349e:	b110      	cbz	r0, 80034a6 <HAL_EXTI_RegisterCallback+0xa>
 80034a0:	6042      	str	r2, [r0, #4]
 80034a2:	2000      	movs	r0, #0
 80034a4:	4770      	bx	lr
 80034a6:	2001      	movs	r0, #1
 80034a8:	4770      	bx	lr
 80034aa:	bf00      	nop

080034ac <HAL_EXTI_GetHandle>:
 80034ac:	b110      	cbz	r0, 80034b4 <HAL_EXTI_GetHandle+0x8>
 80034ae:	6001      	str	r1, [r0, #0]
 80034b0:	2000      	movs	r0, #0
 80034b2:	4770      	bx	lr
 80034b4:	2001      	movs	r0, #1
 80034b6:	4770      	bx	lr

080034b8 <HAL_GPIO_Init>:
 80034b8:	e92d 4ff0 	stmdb	sp!, {r4, r5, r6, r7, r8, r9, sl, fp, lr}
 80034bc:	680e      	ldr	r6, [r1, #0]
 80034be:	b085      	sub	sp, #20
 80034c0:	2e00      	cmp	r6, #0
 80034c2:	f000 80d3 	beq.w	800366c <HAL_GPIO_Init+0x1b4>
 80034c6:	2300      	movs	r3, #0
 80034c8:	f8df a220 	ldr.w	sl, [pc, #544]	; 80036ec <HAL_GPIO_Init+0x234>
 80034cc:	f8df b220 	ldr.w	fp, [pc, #544]	; 80036f0 <HAL_GPIO_Init+0x238>
 80034d0:	46b1      	mov	r9, r6
 80034d2:	e020      	b.n	8003516 <HAL_GPIO_Init+0x5e>
 80034d4:	08da      	lsrs	r2, r3, #3
 80034d6:	f003 0c07 	and.w	ip, r3, #7
 80034da:	f004 0403 	and.w	r4, r4, #3
 80034de:	f04f 0e0f 	mov.w	lr, #15
 80034e2:	eb00 0282 	add.w	r2, r0, r2, lsl #2
 80034e6:	690e      	ldr	r6, [r1, #16]
 80034e8:	ea4f 0c8c 	mov.w	ip, ip, lsl #2
 80034ec:	fa04 f707 	lsl.w	r7, r4, r7
 80034f0:	6a14      	ldr	r4, [r2, #32]
 80034f2:	fa0e fe0c 	lsl.w	lr, lr, ip
 80034f6:	fa06 f60c 	lsl.w	r6, r6, ip
 80034fa:	ea24 0c0e 	bic.w	ip, r4, lr
 80034fe:	ea46 060c 	orr.w	r6, r6, ip
 8003502:	6216      	str	r6, [r2, #32]
 8003504:	6802      	ldr	r2, [r0, #0]
 8003506:	4015      	ands	r5, r2
 8003508:	433d      	orrs	r5, r7
 800350a:	6005      	str	r5, [r0, #0]
 800350c:	3301      	adds	r3, #1
 800350e:	fa39 f203 	lsrs.w	r2, r9, r3
 8003512:	f000 80ab 	beq.w	800366c <HAL_GPIO_Init+0x1b4>
 8003516:	2201      	movs	r2, #1
 8003518:	409a      	lsls	r2, r3
 800351a:	ea12 0809 	ands.w	r8, r2, r9
 800351e:	d0f5      	beq.n	800350c <HAL_GPIO_Init+0x54>
 8003520:	684c      	ldr	r4, [r1, #4]
 8003522:	005f      	lsls	r7, r3, #1
 8003524:	f024 0c10 	bic.w	ip, r4, #16
 8003528:	f10c 35ff 	add.w	r5, ip, #4294967295
 800352c:	2d01      	cmp	r5, #1
 800352e:	f04f 0503 	mov.w	r5, #3
 8003532:	f200 809e 	bhi.w	8003672 <HAL_GPIO_Init+0x1ba>
 8003536:	f3c4 1600 	ubfx	r6, r4, #4, #1
 800353a:	f8d0 e008 	ldr.w	lr, [r0, #8]
 800353e:	40bd      	lsls	r5, r7
 8003540:	409e      	lsls	r6, r3
 8003542:	ea2e 0e05 	bic.w	lr, lr, r5
 8003546:	43ed      	mvns	r5, r5
 8003548:	9601      	str	r6, [sp, #4]
 800354a:	68ce      	ldr	r6, [r1, #12]
 800354c:	40be      	lsls	r6, r7
 800354e:	ea46 0e0e 	orr.w	lr, r6, lr
 8003552:	9e01      	ldr	r6, [sp, #4]
 8003554:	f8c0 e008 	str.w	lr, [r0, #8]
 8003558:	f8d0 e004 	ldr.w	lr, [r0, #4]
 800355c:	ea2e 0202 	bic.w	r2, lr, r2
 8003560:	4316      	orrs	r6, r2
 8003562:	6046      	str	r6, [r0, #4]
 8003564:	68c6      	ldr	r6, [r0, #12]
 8003566:	f1bc 0f02 	cmp.w	ip, #2
 800356a:	688a      	ldr	r2, [r1, #8]
 800356c:	ea06 0605 	and.w	r6, r6, r5
 8003570:	fa02 f207 	lsl.w	r2, r2, r7
 8003574:	ea42 0206 	orr.w	r2, r2, r6
 8003578:	60c2      	str	r2, [r0, #12]
 800357a:	d0ab      	beq.n	80034d4 <HAL_GPIO_Init+0x1c>
 800357c:	6806      	ldr	r6, [r0, #0]
 800357e:	f004 0203 	and.w	r2, r4, #3
 8003582:	402e      	ands	r6, r5
 8003584:	fa02 f707 	lsl.w	r7, r2, r7
 8003588:	433e      	orrs	r6, r7
 800358a:	6006      	str	r6, [r0, #0]
 800358c:	00e6      	lsls	r6, r4, #3
 800358e:	d5bd      	bpl.n	800350c <HAL_GPIO_Init+0x54>
 8003590:	f8da 60f4 	ldr.w	r6, [sl, #244]	; 0xf4
 8003594:	f023 0703 	bic.w	r7, r3, #3
 8003598:	f003 0203 	and.w	r2, r3, #3
 800359c:	250f      	movs	r5, #15
 800359e:	f046 0602 	orr.w	r6, r6, #2
 80035a2:	f107 47b0 	add.w	r7, r7, #1476395008	; 0x58000000
 80035a6:	0092      	lsls	r2, r2, #2
 80035a8:	f8ca 60f4 	str.w	r6, [sl, #244]	; 0xf4
 80035ac:	f507 6780 	add.w	r7, r7, #1024	; 0x400
 80035b0:	f8da 60f4 	ldr.w	r6, [sl, #244]	; 0xf4
 80035b4:	fa05 fc02 	lsl.w	ip, r5, r2
 80035b8:	f006 0602 	and.w	r6, r6, #2
 80035bc:	9603      	str	r6, [sp, #12]
 80035be:	4e42      	ldr	r6, [pc, #264]	; (80036c8 <HAL_GPIO_Init+0x210>)
 80035c0:	9d03      	ldr	r5, [sp, #12]
 80035c2:	42b0      	cmp	r0, r6
 80035c4:	68bd      	ldr	r5, [r7, #8]
 80035c6:	ea25 050c 	bic.w	r5, r5, ip
 80035ca:	d020      	beq.n	800360e <HAL_GPIO_Init+0x156>
 80035cc:	f506 6680 	add.w	r6, r6, #1024	; 0x400
 80035d0:	42b0      	cmp	r0, r6
 80035d2:	d056      	beq.n	8003682 <HAL_GPIO_Init+0x1ca>
 80035d4:	4e3d      	ldr	r6, [pc, #244]	; (80036cc <HAL_GPIO_Init+0x214>)
 80035d6:	42b0      	cmp	r0, r6
 80035d8:	d058      	beq.n	800368c <HAL_GPIO_Init+0x1d4>
 80035da:	4e3d      	ldr	r6, [pc, #244]	; (80036d0 <HAL_GPIO_Init+0x218>)
 80035dc:	42b0      	cmp	r0, r6
 80035de:	d04b      	beq.n	8003678 <HAL_GPIO_Init+0x1c0>
 80035e0:	4e3c      	ldr	r6, [pc, #240]	; (80036d4 <HAL_GPIO_Init+0x21c>)
 80035e2:	42b0      	cmp	r0, r6
 80035e4:	d05c      	beq.n	80036a0 <HAL_GPIO_Init+0x1e8>
 80035e6:	4e3c      	ldr	r6, [pc, #240]	; (80036d8 <HAL_GPIO_Init+0x220>)
 80035e8:	42b0      	cmp	r0, r6
 80035ea:	d05e      	beq.n	80036aa <HAL_GPIO_Init+0x1f2>
 80035ec:	4e3b      	ldr	r6, [pc, #236]	; (80036dc <HAL_GPIO_Init+0x224>)
 80035ee:	42b0      	cmp	r0, r6
 80035f0:	d051      	beq.n	8003696 <HAL_GPIO_Init+0x1de>
 80035f2:	4e3b      	ldr	r6, [pc, #236]	; (80036e0 <HAL_GPIO_Init+0x228>)
 80035f4:	42b0      	cmp	r0, r6
 80035f6:	d05d      	beq.n	80036b4 <HAL_GPIO_Init+0x1fc>
 80035f8:	4e3a      	ldr	r6, [pc, #232]	; (80036e4 <HAL_GPIO_Init+0x22c>)
 80035fa:	42b0      	cmp	r0, r6
 80035fc:	d05f      	beq.n	80036be <HAL_GPIO_Init+0x206>
 80035fe:	4e3a      	ldr	r6, [pc, #232]	; (80036e8 <HAL_GPIO_Init+0x230>)
 8003600:	42b0      	cmp	r0, r6
 8003602:	bf0c      	ite	eq
 8003604:	2609      	moveq	r6, #9
 8003606:	260a      	movne	r6, #10
 8003608:	fa06 f202 	lsl.w	r2, r6, r2
 800360c:	4315      	orrs	r5, r2
 800360e:	60bd      	str	r5, [r7, #8]
 8003610:	ea6f 0608 	mvn.w	r6, r8
 8003614:	f8db 2000 	ldr.w	r2, [fp]
 8003618:	03e5      	lsls	r5, r4, #15
 800361a:	f103 0301 	add.w	r3, r3, #1
 800361e:	bf54      	ite	pl
 8003620:	4032      	andpl	r2, r6
 8003622:	ea48 0202 	orrmi.w	r2, r8, r2
 8003626:	f8cb 2000 	str.w	r2, [fp]
 800362a:	03a2      	lsls	r2, r4, #14
 800362c:	f8db 5004 	ldr.w	r5, [fp, #4]
 8003630:	f04f 42b0 	mov.w	r2, #1476395008	; 0x58000000
 8003634:	bf54      	ite	pl
 8003636:	4035      	andpl	r5, r6
 8003638:	ea48 0505 	orrmi.w	r5, r8, r5
 800363c:	02e7      	lsls	r7, r4, #11
 800363e:	f8cb 5004 	str.w	r5, [fp, #4]
 8003642:	6815      	ldr	r5, [r2, #0]
 8003644:	f04f 42b0 	mov.w	r2, #1476395008	; 0x58000000
 8003648:	bf54      	ite	pl
 800364a:	4035      	andpl	r5, r6
 800364c:	ea48 0505 	orrmi.w	r5, r8, r5
 8003650:	02a4      	lsls	r4, r4, #10
 8003652:	f04f 44b0 	mov.w	r4, #1476395008	; 0x58000000
 8003656:	6015      	str	r5, [r2, #0]
 8003658:	6852      	ldr	r2, [r2, #4]
 800365a:	bf54      	ite	pl
 800365c:	4032      	andpl	r2, r6
 800365e:	ea48 0202 	orrmi.w	r2, r8, r2
 8003662:	6062      	str	r2, [r4, #4]
 8003664:	fa39 f203 	lsrs.w	r2, r9, r3
 8003668:	f47f af55 	bne.w	8003516 <HAL_GPIO_Init+0x5e>
 800366c:	b005      	add	sp, #20
 800366e:	e8bd 8ff0 	ldmia.w	sp!, {r4, r5, r6, r7, r8, r9, sl, fp, pc}
 8003672:	40bd      	lsls	r5, r7
 8003674:	43ed      	mvns	r5, r5
 8003676:	e775      	b.n	8003564 <HAL_GPIO_Init+0xac>
 8003678:	2603      	movs	r6, #3
 800367a:	fa06 f202 	lsl.w	r2, r6, r2
 800367e:	4315      	orrs	r5, r2
 8003680:	e7c5      	b.n	800360e <HAL_GPIO_Init+0x156>
 8003682:	2601      	movs	r6, #1
 8003684:	fa06 f202 	lsl.w	r2, r6, r2
 8003688:	4315      	orrs	r5, r2
 800368a:	e7c0      	b.n	800360e <HAL_GPIO_Init+0x156>
 800368c:	2602      	movs	r6, #2
 800368e:	fa06 f202 	lsl.w	r2, r6, r2
 8003692:	4315      	orrs	r5, r2
 8003694:	e7bb      	b.n	800360e <HAL_GPIO_Init+0x156>
 8003696:	2606      	movs	r6, #6
 8003698:	fa06 f202 	lsl.w	r2, r6, r2
 800369c:	4315      	orrs	r5, r2
 800369e:	e7b6      	b.n	800360e <HAL_GPIO_Init+0x156>
 80036a0:	2604      	movs	r6, #4
 80036a2:	fa06 f202 	lsl.w	r2, r6, r2
 80036a6:	4315      	orrs	r5, r2
 80036a8:	e7b1      	b.n	800360e <HAL_GPIO_Init+0x156>
 80036aa:	2605      	movs	r6, #5
 80036ac:	fa06 f202 	lsl.w	r2, r6, r2
 80036b0:	4315      	orrs	r5, r2
 80036b2:	e7ac      	b.n	800360e <HAL_GPIO_Init+0x156>
 80036b4:	2607      	movs	r6, #7
 80036b6:	fa06 f202 	lsl.w	r2, r6, r2
 80036ba:	4315      	orrs	r5, r2
 80036bc:	e7a7      	b.n	800360e <HAL_GPIO_Init+0x156>
 80036be:	2608      	movs	r6, #8
 80036c0:	fa06 f202 	lsl.w	r2, r6, r2
 80036c4:	4315      	orrs	r5, r2
 80036c6:	e7a2      	b.n	800360e <HAL_GPIO_Init+0x156>
 80036c8:	58020000 	.word	0x58020000
 80036cc:	58020800 	.word	0x58020800
 80036d0:	58020c00 	.word	0x58020c00
 80036d4:	58021000 	.word	0x58021000
 80036d8:	58021400 	.word	0x58021400
 80036dc:	58021800 	.word	0x58021800
 80036e0:	58021c00 	.word	0x58021c00
 80036e4:	58022000 	.word	0x58022000
 80036e8:	58022400 	.word	0x58022400
 80036ec:	58024400 	.word	0x58024400
 80036f0:	58000080 	.word	0x58000080

080036f4 <HAL_GPIO_WritePin>:
 80036f4:	b902      	cbnz	r2, 80036f8 <HAL_GPIO_WritePin+0x4>
 80036f6:	0409      	lsls	r1, r1, #16
 80036f8:	6181      	str	r1, [r0, #24]
 80036fa:	4770      	bx	lr

080036fc <HAL_GPIO_TogglePin>:
 80036fc:	6943      	ldr	r3, [r0, #20]
 80036fe:	ea01 0203 	and.w	r2, r1, r3
 8003702:	ea21 0103 	bic.w	r1, r1, r3
 8003706:	ea41 4102 	orr.w	r1, r1, r2, lsl #16
 800370a:	6181      	str	r1, [r0, #24]
 800370c:	4770      	bx	lr
 800370e:	bf00      	nop

08003710 <HAL_GPIO_EXTI_IRQHandler>:
 8003710:	f04f 42b0 	mov.w	r2, #1476395008	; 0x58000000
 8003714:	f8d2 1088 	ldr.w	r1, [r2, #136]	; 0x88
 8003718:	4201      	tst	r1, r0
 800371a:	d100      	bne.n	800371e <HAL_GPIO_EXTI_IRQHandler+0xe>
 800371c:	4770      	bx	lr
 800371e:	b508      	push	{r3, lr}
 8003720:	f8c2 0088 	str.w	r0, [r2, #136]	; 0x88
 8003724:	f7fc ff5a 	bl	80005dc <HAL_GPIO_EXTI_Callback>
 8003728:	bd08      	pop	{r3, pc}
 800372a:	bf00      	nop

0800372c <HAL_PWREx_ConfigSupply>:
 800372c:	b538      	push	{r3, r4, r5, lr}
 800372e:	4b11      	ldr	r3, [pc, #68]	; (8003774 <HAL_PWREx_ConfigSupply+0x48>)
 8003730:	68da      	ldr	r2, [r3, #12]
 8003732:	0752      	lsls	r2, r2, #29
 8003734:	d406      	bmi.n	8003744 <HAL_PWREx_ConfigSupply+0x18>
 8003736:	68db      	ldr	r3, [r3, #12]
 8003738:	f003 0307 	and.w	r3, r3, #7
 800373c:	1a18      	subs	r0, r3, r0
 800373e:	bf18      	it	ne
 8003740:	2001      	movne	r0, #1
 8003742:	bd38      	pop	{r3, r4, r5, pc}
 8003744:	68da      	ldr	r2, [r3, #12]
 8003746:	461d      	mov	r5, r3
 8003748:	f022 0207 	bic.w	r2, r2, #7
 800374c:	4310      	orrs	r0, r2
 800374e:	60d8      	str	r0, [r3, #12]
 8003750:	f7fe fa90 	bl	8001c74 <HAL_GetTick>
 8003754:	4604      	mov	r4, r0
 8003756:	e005      	b.n	8003764 <HAL_PWREx_ConfigSupply+0x38>
 8003758:	f7fe fa8c 	bl	8001c74 <HAL_GetTick>
 800375c:	1b00      	subs	r0, r0, r4
 800375e:	f5b0 7f7a 	cmp.w	r0, #1000	; 0x3e8
 8003762:	d804      	bhi.n	800376e <HAL_PWREx_ConfigSupply+0x42>
 8003764:	686b      	ldr	r3, [r5, #4]
 8003766:	049b      	lsls	r3, r3, #18
 8003768:	d5f6      	bpl.n	8003758 <HAL_PWREx_ConfigSupply+0x2c>
 800376a:	2000      	movs	r0, #0
 800376c:	bd38      	pop	{r3, r4, r5, pc}
 800376e:	2001      	movs	r0, #1
 8003770:	bd38      	pop	{r3, r4, r5, pc}
 8003772:	bf00      	nop
 8003774:	58024800 	.word	0x58024800

08003778 <HAL_RCC_OscConfig>:
 8003778:	2800      	cmp	r0, #0
 800377a:	f000 81f7 	beq.w	8003b6c <HAL_RCC_OscConfig+0x3f4>
 800377e:	b5f8      	push	{r3, r4, r5, r6, r7, lr}
 8003780:	6803      	ldr	r3, [r0, #0]
 8003782:	4604      	mov	r4, r0
 8003784:	07d9      	lsls	r1, r3, #31
 8003786:	d52e      	bpl.n	80037e6 <HAL_RCC_OscConfig+0x6e>
 8003788:	49b4      	ldr	r1, [pc, #720]	; (8003a5c <HAL_RCC_OscConfig+0x2e4>)
 800378a:	690a      	ldr	r2, [r1, #16]
 800378c:	6a89      	ldr	r1, [r1, #40]	; 0x28
 800378e:	f002 0238 	and.w	r2, r2, #56	; 0x38
 8003792:	2a10      	cmp	r2, #16
 8003794:	f000 812c 	beq.w	80039f0 <HAL_RCC_OscConfig+0x278>
 8003798:	2a18      	cmp	r2, #24
 800379a:	f000 8124 	beq.w	80039e6 <HAL_RCC_OscConfig+0x26e>
 800379e:	6863      	ldr	r3, [r4, #4]
 80037a0:	f5b3 3f80 	cmp.w	r3, #65536	; 0x10000
 80037a4:	f000 8167 	beq.w	8003a76 <HAL_RCC_OscConfig+0x2fe>
 80037a8:	2b00      	cmp	r3, #0
 80037aa:	f000 817f 	beq.w	8003aac <HAL_RCC_OscConfig+0x334>
 80037ae:	f5b3 2fa0 	cmp.w	r3, #327680	; 0x50000
 80037b2:	4baa      	ldr	r3, [pc, #680]	; (8003a5c <HAL_RCC_OscConfig+0x2e4>)
 80037b4:	681a      	ldr	r2, [r3, #0]
 80037b6:	f000 8278 	beq.w	8003caa <HAL_RCC_OscConfig+0x532>
 80037ba:	f422 3280 	bic.w	r2, r2, #65536	; 0x10000
 80037be:	601a      	str	r2, [r3, #0]
 80037c0:	681a      	ldr	r2, [r3, #0]
 80037c2:	f422 2280 	bic.w	r2, r2, #262144	; 0x40000
 80037c6:	601a      	str	r2, [r3, #0]
 80037c8:	f7fe fa54 	bl	8001c74 <HAL_GetTick>
 80037cc:	4ea3      	ldr	r6, [pc, #652]	; (8003a5c <HAL_RCC_OscConfig+0x2e4>)
 80037ce:	4605      	mov	r5, r0
 80037d0:	e005      	b.n	80037de <HAL_RCC_OscConfig+0x66>
 80037d2:	f7fe fa4f 	bl	8001c74 <HAL_GetTick>
 80037d6:	1b40      	subs	r0, r0, r5
 80037d8:	2864      	cmp	r0, #100	; 0x64
 80037da:	f200 8165 	bhi.w	8003aa8 <HAL_RCC_OscConfig+0x330>
 80037de:	6833      	ldr	r3, [r6, #0]
 80037e0:	039f      	lsls	r7, r3, #14
 80037e2:	d5f6      	bpl.n	80037d2 <HAL_RCC_OscConfig+0x5a>
 80037e4:	6823      	ldr	r3, [r4, #0]
 80037e6:	0799      	lsls	r1, r3, #30
 80037e8:	d521      	bpl.n	800382e <HAL_RCC_OscConfig+0xb6>
 80037ea:	4a9c      	ldr	r2, [pc, #624]	; (8003a5c <HAL_RCC_OscConfig+0x2e4>)
 80037ec:	6913      	ldr	r3, [r2, #16]
 80037ee:	6a92      	ldr	r2, [r2, #40]	; 0x28
 80037f0:	f013 0338 	ands.w	r3, r3, #56	; 0x38
 80037f4:	f040 80a8 	bne.w	8003948 <HAL_RCC_OscConfig+0x1d0>
 80037f8:	4b98      	ldr	r3, [pc, #608]	; (8003a5c <HAL_RCC_OscConfig+0x2e4>)
 80037fa:	681b      	ldr	r3, [r3, #0]
 80037fc:	075b      	lsls	r3, r3, #29
 80037fe:	d503      	bpl.n	8003808 <HAL_RCC_OscConfig+0x90>
 8003800:	68e3      	ldr	r3, [r4, #12]
 8003802:	2b00      	cmp	r3, #0
 8003804:	f000 80ed 	beq.w	80039e2 <HAL_RCC_OscConfig+0x26a>
 8003808:	f7fe fa5c 	bl	8001cc4 <HAL_GetREVID>
 800380c:	f241 0303 	movw	r3, #4099	; 0x1003
 8003810:	4298      	cmp	r0, r3
 8003812:	f200 8189 	bhi.w	8003b28 <HAL_RCC_OscConfig+0x3b0>
 8003816:	6922      	ldr	r2, [r4, #16]
 8003818:	2a40      	cmp	r2, #64	; 0x40
 800381a:	f000 824e 	beq.w	8003cba <HAL_RCC_OscConfig+0x542>
 800381e:	498f      	ldr	r1, [pc, #572]	; (8003a5c <HAL_RCC_OscConfig+0x2e4>)
 8003820:	684b      	ldr	r3, [r1, #4]
 8003822:	f423 337c 	bic.w	r3, r3, #258048	; 0x3f000
 8003826:	ea43 3302 	orr.w	r3, r3, r2, lsl #12
 800382a:	604b      	str	r3, [r1, #4]
 800382c:	6823      	ldr	r3, [r4, #0]
 800382e:	06d9      	lsls	r1, r3, #27
 8003830:	d456      	bmi.n	80038e0 <HAL_RCC_OscConfig+0x168>
 8003832:	071d      	lsls	r5, r3, #28
 8003834:	d517      	bpl.n	8003866 <HAL_RCC_OscConfig+0xee>
 8003836:	6963      	ldr	r3, [r4, #20]
 8003838:	2b00      	cmp	r3, #0
 800383a:	f000 80b4 	beq.w	80039a6 <HAL_RCC_OscConfig+0x22e>
 800383e:	4b87      	ldr	r3, [pc, #540]	; (8003a5c <HAL_RCC_OscConfig+0x2e4>)
 8003840:	6f5a      	ldr	r2, [r3, #116]	; 0x74
 8003842:	461e      	mov	r6, r3
 8003844:	f042 0201 	orr.w	r2, r2, #1
 8003848:	675a      	str	r2, [r3, #116]	; 0x74
 800384a:	f7fe fa13 	bl	8001c74 <HAL_GetTick>
 800384e:	4605      	mov	r5, r0
 8003850:	e005      	b.n	800385e <HAL_RCC_OscConfig+0xe6>
 8003852:	f7fe fa0f 	bl	8001c74 <HAL_GetTick>
 8003856:	1b40      	subs	r0, r0, r5
 8003858:	2802      	cmp	r0, #2
 800385a:	f200 8125 	bhi.w	8003aa8 <HAL_RCC_OscConfig+0x330>
 800385e:	6f73      	ldr	r3, [r6, #116]	; 0x74
 8003860:	0798      	lsls	r0, r3, #30
 8003862:	d5f6      	bpl.n	8003852 <HAL_RCC_OscConfig+0xda>
 8003864:	6823      	ldr	r3, [r4, #0]
 8003866:	069a      	lsls	r2, r3, #26
 8003868:	d517      	bpl.n	800389a <HAL_RCC_OscConfig+0x122>
 800386a:	69a3      	ldr	r3, [r4, #24]
 800386c:	2b00      	cmp	r3, #0
 800386e:	f000 8134 	beq.w	8003ada <HAL_RCC_OscConfig+0x362>
 8003872:	4b7a      	ldr	r3, [pc, #488]	; (8003a5c <HAL_RCC_OscConfig+0x2e4>)
 8003874:	681a      	ldr	r2, [r3, #0]
 8003876:	461e      	mov	r6, r3
 8003878:	f442 5280 	orr.w	r2, r2, #4096	; 0x1000
 800387c:	601a      	str	r2, [r3, #0]
 800387e:	f7fe f9f9 	bl	8001c74 <HAL_GetTick>
 8003882:	4605      	mov	r5, r0
 8003884:	e005      	b.n	8003892 <HAL_RCC_OscConfig+0x11a>
 8003886:	f7fe f9f5 	bl	8001c74 <HAL_GetTick>
 800388a:	1b40      	subs	r0, r0, r5
 800388c:	2802      	cmp	r0, #2
 800388e:	f200 810b 	bhi.w	8003aa8 <HAL_RCC_OscConfig+0x330>
 8003892:	6833      	ldr	r3, [r6, #0]
 8003894:	049f      	lsls	r7, r3, #18
 8003896:	d5f6      	bpl.n	8003886 <HAL_RCC_OscConfig+0x10e>
 8003898:	6823      	ldr	r3, [r4, #0]
 800389a:	0759      	lsls	r1, r3, #29
 800389c:	f100 80b2 	bmi.w	8003a04 <HAL_RCC_OscConfig+0x28c>
 80038a0:	6a60      	ldr	r0, [r4, #36]	; 0x24
 80038a2:	b1d8      	cbz	r0, 80038dc <HAL_RCC_OscConfig+0x164>
 80038a4:	4b6d      	ldr	r3, [pc, #436]	; (8003a5c <HAL_RCC_OscConfig+0x2e4>)
 80038a6:	691a      	ldr	r2, [r3, #16]
 80038a8:	f002 0238 	and.w	r2, r2, #56	; 0x38
 80038ac:	2a18      	cmp	r2, #24
 80038ae:	f000 81ce 	beq.w	8003c4e <HAL_RCC_OscConfig+0x4d6>
 80038b2:	681a      	ldr	r2, [r3, #0]
 80038b4:	2802      	cmp	r0, #2
 80038b6:	461d      	mov	r5, r3
 80038b8:	f022 7280 	bic.w	r2, r2, #16777216	; 0x1000000
 80038bc:	601a      	str	r2, [r3, #0]
 80038be:	f000 8161 	beq.w	8003b84 <HAL_RCC_OscConfig+0x40c>
 80038c2:	f7fe f9d7 	bl	8001c74 <HAL_GetTick>
 80038c6:	4604      	mov	r4, r0
 80038c8:	e005      	b.n	80038d6 <HAL_RCC_OscConfig+0x15e>
 80038ca:	f7fe f9d3 	bl	8001c74 <HAL_GetTick>
 80038ce:	1b00      	subs	r0, r0, r4
 80038d0:	2802      	cmp	r0, #2
 80038d2:	f200 80e9 	bhi.w	8003aa8 <HAL_RCC_OscConfig+0x330>
 80038d6:	682b      	ldr	r3, [r5, #0]
 80038d8:	019b      	lsls	r3, r3, #6
 80038da:	d4f6      	bmi.n	80038ca <HAL_RCC_OscConfig+0x152>
 80038dc:	2000      	movs	r0, #0
 80038de:	bdf8      	pop	{r3, r4, r5, r6, r7, pc}
 80038e0:	4a5e      	ldr	r2, [pc, #376]	; (8003a5c <HAL_RCC_OscConfig+0x2e4>)
 80038e2:	6913      	ldr	r3, [r2, #16]
 80038e4:	6a92      	ldr	r2, [r2, #40]	; 0x28
 80038e6:	f003 0338 	and.w	r3, r3, #56	; 0x38
 80038ea:	2b08      	cmp	r3, #8
 80038ec:	d072      	beq.n	80039d4 <HAL_RCC_OscConfig+0x25c>
 80038ee:	2b18      	cmp	r3, #24
 80038f0:	d06c      	beq.n	80039cc <HAL_RCC_OscConfig+0x254>
 80038f2:	69e3      	ldr	r3, [r4, #28]
 80038f4:	2b00      	cmp	r3, #0
 80038f6:	f000 8103 	beq.w	8003b00 <HAL_RCC_OscConfig+0x388>
 80038fa:	4b58      	ldr	r3, [pc, #352]	; (8003a5c <HAL_RCC_OscConfig+0x2e4>)
 80038fc:	681a      	ldr	r2, [r3, #0]
 80038fe:	461e      	mov	r6, r3
 8003900:	f042 0280 	orr.w	r2, r2, #128	; 0x80
 8003904:	601a      	str	r2, [r3, #0]
 8003906:	f7fe f9b5 	bl	8001c74 <HAL_GetTick>
 800390a:	4605      	mov	r5, r0
 800390c:	e005      	b.n	800391a <HAL_RCC_OscConfig+0x1a2>
 800390e:	f7fe f9b1 	bl	8001c74 <HAL_GetTick>
 8003912:	1b40      	subs	r0, r0, r5
 8003914:	2802      	cmp	r0, #2
 8003916:	f200 80c7 	bhi.w	8003aa8 <HAL_RCC_OscConfig+0x330>
 800391a:	6833      	ldr	r3, [r6, #0]
 800391c:	05db      	lsls	r3, r3, #23
 800391e:	d5f6      	bpl.n	800390e <HAL_RCC_OscConfig+0x196>
 8003920:	f7fe f9d0 	bl	8001cc4 <HAL_GetREVID>
 8003924:	f241 0303 	movw	r3, #4099	; 0x1003
 8003928:	4298      	cmp	r0, r3
 800392a:	f200 81e9 	bhi.w	8003d00 <HAL_RCC_OscConfig+0x588>
 800392e:	6a22      	ldr	r2, [r4, #32]
 8003930:	6873      	ldr	r3, [r6, #4]
 8003932:	2a20      	cmp	r2, #32
 8003934:	f023 43f8 	bic.w	r3, r3, #2080374784	; 0x7c000000
 8003938:	bf0c      	ite	eq
 800393a:	f043 4380 	orreq.w	r3, r3, #1073741824	; 0x40000000
 800393e:	ea43 6382 	orrne.w	r3, r3, r2, lsl #26
 8003942:	6073      	str	r3, [r6, #4]
 8003944:	6823      	ldr	r3, [r4, #0]
 8003946:	e774      	b.n	8003832 <HAL_RCC_OscConfig+0xba>
 8003948:	2b18      	cmp	r3, #24
 800394a:	f000 810b 	beq.w	8003b64 <HAL_RCC_OscConfig+0x3ec>
 800394e:	68e2      	ldr	r2, [r4, #12]
 8003950:	2a00      	cmp	r2, #0
 8003952:	f000 80f3 	beq.w	8003b3c <HAL_RCC_OscConfig+0x3c4>
 8003956:	4941      	ldr	r1, [pc, #260]	; (8003a5c <HAL_RCC_OscConfig+0x2e4>)
 8003958:	680b      	ldr	r3, [r1, #0]
 800395a:	460e      	mov	r6, r1
 800395c:	f023 0319 	bic.w	r3, r3, #25
 8003960:	4313      	orrs	r3, r2
 8003962:	600b      	str	r3, [r1, #0]
 8003964:	f7fe f986 	bl	8001c74 <HAL_GetTick>
 8003968:	4605      	mov	r5, r0
 800396a:	e005      	b.n	8003978 <HAL_RCC_OscConfig+0x200>
 800396c:	f7fe f982 	bl	8001c74 <HAL_GetTick>
 8003970:	1b40      	subs	r0, r0, r5
 8003972:	2802      	cmp	r0, #2
 8003974:	f200 8098 	bhi.w	8003aa8 <HAL_RCC_OscConfig+0x330>
 8003978:	6833      	ldr	r3, [r6, #0]
 800397a:	075f      	lsls	r7, r3, #29
 800397c:	d5f6      	bpl.n	800396c <HAL_RCC_OscConfig+0x1f4>
 800397e:	f7fe f9a1 	bl	8001cc4 <HAL_GetREVID>
 8003982:	f241 0303 	movw	r3, #4099	; 0x1003
 8003986:	4298      	cmp	r0, r3
 8003988:	f200 81c3 	bhi.w	8003d12 <HAL_RCC_OscConfig+0x59a>
 800398c:	6922      	ldr	r2, [r4, #16]
 800398e:	6873      	ldr	r3, [r6, #4]
 8003990:	2a40      	cmp	r2, #64	; 0x40
 8003992:	f423 337c 	bic.w	r3, r3, #258048	; 0x3f000
 8003996:	bf0c      	ite	eq
 8003998:	f443 3300 	orreq.w	r3, r3, #131072	; 0x20000
 800399c:	ea43 3302 	orrne.w	r3, r3, r2, lsl #12
 80039a0:	6073      	str	r3, [r6, #4]
 80039a2:	6823      	ldr	r3, [r4, #0]
 80039a4:	e743      	b.n	800382e <HAL_RCC_OscConfig+0xb6>
 80039a6:	4b2d      	ldr	r3, [pc, #180]	; (8003a5c <HAL_RCC_OscConfig+0x2e4>)
 80039a8:	6f5a      	ldr	r2, [r3, #116]	; 0x74
 80039aa:	461e      	mov	r6, r3
 80039ac:	f022 0201 	bic.w	r2, r2, #1
 80039b0:	675a      	str	r2, [r3, #116]	; 0x74
 80039b2:	f7fe f95f 	bl	8001c74 <HAL_GetTick>
 80039b6:	4605      	mov	r5, r0
 80039b8:	e004      	b.n	80039c4 <HAL_RCC_OscConfig+0x24c>
 80039ba:	f7fe f95b 	bl	8001c74 <HAL_GetTick>
 80039be:	1b40      	subs	r0, r0, r5
 80039c0:	2802      	cmp	r0, #2
 80039c2:	d871      	bhi.n	8003aa8 <HAL_RCC_OscConfig+0x330>
 80039c4:	6f73      	ldr	r3, [r6, #116]	; 0x74
 80039c6:	0799      	lsls	r1, r3, #30
 80039c8:	d4f7      	bmi.n	80039ba <HAL_RCC_OscConfig+0x242>
 80039ca:	e74b      	b.n	8003864 <HAL_RCC_OscConfig+0xec>
 80039cc:	f002 0203 	and.w	r2, r2, #3
 80039d0:	2a01      	cmp	r2, #1
 80039d2:	d18e      	bne.n	80038f2 <HAL_RCC_OscConfig+0x17a>
 80039d4:	4b21      	ldr	r3, [pc, #132]	; (8003a5c <HAL_RCC_OscConfig+0x2e4>)
 80039d6:	681b      	ldr	r3, [r3, #0]
 80039d8:	05da      	lsls	r2, r3, #23
 80039da:	d552      	bpl.n	8003a82 <HAL_RCC_OscConfig+0x30a>
 80039dc:	69e3      	ldr	r3, [r4, #28]
 80039de:	2b80      	cmp	r3, #128	; 0x80
 80039e0:	d04f      	beq.n	8003a82 <HAL_RCC_OscConfig+0x30a>
 80039e2:	2001      	movs	r0, #1
 80039e4:	bdf8      	pop	{r3, r4, r5, r6, r7, pc}
 80039e6:	f001 0103 	and.w	r1, r1, #3
 80039ea:	2902      	cmp	r1, #2
 80039ec:	f47f aed7 	bne.w	800379e <HAL_RCC_OscConfig+0x26>
 80039f0:	4a1a      	ldr	r2, [pc, #104]	; (8003a5c <HAL_RCC_OscConfig+0x2e4>)
 80039f2:	6812      	ldr	r2, [r2, #0]
 80039f4:	0392      	lsls	r2, r2, #14
 80039f6:	f57f aef6 	bpl.w	80037e6 <HAL_RCC_OscConfig+0x6e>
 80039fa:	6862      	ldr	r2, [r4, #4]
 80039fc:	2a00      	cmp	r2, #0
 80039fe:	f47f aef2 	bne.w	80037e6 <HAL_RCC_OscConfig+0x6e>
 8003a02:	e7ee      	b.n	80039e2 <HAL_RCC_OscConfig+0x26a>
 8003a04:	4b16      	ldr	r3, [pc, #88]	; (8003a60 <HAL_RCC_OscConfig+0x2e8>)
 8003a06:	681a      	ldr	r2, [r3, #0]
 8003a08:	461e      	mov	r6, r3
 8003a0a:	f442 7280 	orr.w	r2, r2, #256	; 0x100
 8003a0e:	601a      	str	r2, [r3, #0]
 8003a10:	f7fe f930 	bl	8001c74 <HAL_GetTick>
 8003a14:	4605      	mov	r5, r0
 8003a16:	e004      	b.n	8003a22 <HAL_RCC_OscConfig+0x2aa>
 8003a18:	f7fe f92c 	bl	8001c74 <HAL_GetTick>
 8003a1c:	1b40      	subs	r0, r0, r5
 8003a1e:	2864      	cmp	r0, #100	; 0x64
 8003a20:	d842      	bhi.n	8003aa8 <HAL_RCC_OscConfig+0x330>
 8003a22:	6833      	ldr	r3, [r6, #0]
 8003a24:	05da      	lsls	r2, r3, #23
 8003a26:	d5f7      	bpl.n	8003a18 <HAL_RCC_OscConfig+0x2a0>
 8003a28:	68a3      	ldr	r3, [r4, #8]
 8003a2a:	2b01      	cmp	r3, #1
 8003a2c:	f000 817a 	beq.w	8003d24 <HAL_RCC_OscConfig+0x5ac>
 8003a30:	2b00      	cmp	r3, #0
 8003a32:	f000 814b 	beq.w	8003ccc <HAL_RCC_OscConfig+0x554>
 8003a36:	2b05      	cmp	r3, #5
 8003a38:	4b08      	ldr	r3, [pc, #32]	; (8003a5c <HAL_RCC_OscConfig+0x2e4>)
 8003a3a:	6f1a      	ldr	r2, [r3, #112]	; 0x70
 8003a3c:	f000 8187 	beq.w	8003d4e <HAL_RCC_OscConfig+0x5d6>
 8003a40:	f022 0201 	bic.w	r2, r2, #1
 8003a44:	671a      	str	r2, [r3, #112]	; 0x70
 8003a46:	6f1a      	ldr	r2, [r3, #112]	; 0x70
 8003a48:	f022 0204 	bic.w	r2, r2, #4
 8003a4c:	671a      	str	r2, [r3, #112]	; 0x70
 8003a4e:	f7fe f911 	bl	8001c74 <HAL_GetTick>
 8003a52:	4e02      	ldr	r6, [pc, #8]	; (8003a5c <HAL_RCC_OscConfig+0x2e4>)
 8003a54:	f241 3788 	movw	r7, #5000	; 0x1388
 8003a58:	4605      	mov	r5, r0
 8003a5a:	e008      	b.n	8003a6e <HAL_RCC_OscConfig+0x2f6>
 8003a5c:	58024400 	.word	0x58024400
 8003a60:	58024800 	.word	0x58024800
 8003a64:	f7fe f906 	bl	8001c74 <HAL_GetTick>
 8003a68:	1b40      	subs	r0, r0, r5
 8003a6a:	42b8      	cmp	r0, r7
 8003a6c:	d81c      	bhi.n	8003aa8 <HAL_RCC_OscConfig+0x330>
 8003a6e:	6f33      	ldr	r3, [r6, #112]	; 0x70
 8003a70:	079b      	lsls	r3, r3, #30
 8003a72:	d5f7      	bpl.n	8003a64 <HAL_RCC_OscConfig+0x2ec>
 8003a74:	e714      	b.n	80038a0 <HAL_RCC_OscConfig+0x128>
 8003a76:	4aae      	ldr	r2, [pc, #696]	; (8003d30 <HAL_RCC_OscConfig+0x5b8>)
 8003a78:	6813      	ldr	r3, [r2, #0]
 8003a7a:	f443 3380 	orr.w	r3, r3, #65536	; 0x10000
 8003a7e:	6013      	str	r3, [r2, #0]
 8003a80:	e6a2      	b.n	80037c8 <HAL_RCC_OscConfig+0x50>
 8003a82:	f7fe f91f 	bl	8001cc4 <HAL_GetREVID>
 8003a86:	f241 0303 	movw	r3, #4099	; 0x1003
 8003a8a:	4298      	cmp	r0, r3
 8003a8c:	d870      	bhi.n	8003b70 <HAL_RCC_OscConfig+0x3f8>
 8003a8e:	6a22      	ldr	r2, [r4, #32]
 8003a90:	2a20      	cmp	r2, #32
 8003a92:	f000 8153 	beq.w	8003d3c <HAL_RCC_OscConfig+0x5c4>
 8003a96:	49a6      	ldr	r1, [pc, #664]	; (8003d30 <HAL_RCC_OscConfig+0x5b8>)
 8003a98:	684b      	ldr	r3, [r1, #4]
 8003a9a:	f023 43f8 	bic.w	r3, r3, #2080374784	; 0x7c000000
 8003a9e:	ea43 6382 	orr.w	r3, r3, r2, lsl #26
 8003aa2:	604b      	str	r3, [r1, #4]
 8003aa4:	6823      	ldr	r3, [r4, #0]
 8003aa6:	e6c4      	b.n	8003832 <HAL_RCC_OscConfig+0xba>
 8003aa8:	2003      	movs	r0, #3
 8003aaa:	bdf8      	pop	{r3, r4, r5, r6, r7, pc}
 8003aac:	4ba0      	ldr	r3, [pc, #640]	; (8003d30 <HAL_RCC_OscConfig+0x5b8>)
 8003aae:	681a      	ldr	r2, [r3, #0]
 8003ab0:	461e      	mov	r6, r3
 8003ab2:	f422 3280 	bic.w	r2, r2, #65536	; 0x10000
 8003ab6:	601a      	str	r2, [r3, #0]
 8003ab8:	681a      	ldr	r2, [r3, #0]
 8003aba:	f422 2280 	bic.w	r2, r2, #262144	; 0x40000
 8003abe:	601a      	str	r2, [r3, #0]
 8003ac0:	f7fe f8d8 	bl	8001c74 <HAL_GetTick>
 8003ac4:	4605      	mov	r5, r0
 8003ac6:	e004      	b.n	8003ad2 <HAL_RCC_OscConfig+0x35a>
 8003ac8:	f7fe f8d4 	bl	8001c74 <HAL_GetTick>
 8003acc:	1b40      	subs	r0, r0, r5
 8003ace:	2864      	cmp	r0, #100	; 0x64
 8003ad0:	d8ea      	bhi.n	8003aa8 <HAL_RCC_OscConfig+0x330>
 8003ad2:	6833      	ldr	r3, [r6, #0]
 8003ad4:	0398      	lsls	r0, r3, #14
 8003ad6:	d4f7      	bmi.n	8003ac8 <HAL_RCC_OscConfig+0x350>
 8003ad8:	e684      	b.n	80037e4 <HAL_RCC_OscConfig+0x6c>
 8003ada:	4b95      	ldr	r3, [pc, #596]	; (8003d30 <HAL_RCC_OscConfig+0x5b8>)
 8003adc:	681a      	ldr	r2, [r3, #0]
 8003ade:	461e      	mov	r6, r3
 8003ae0:	f422 5280 	bic.w	r2, r2, #4096	; 0x1000
 8003ae4:	601a      	str	r2, [r3, #0]
 8003ae6:	f7fe f8c5 	bl	8001c74 <HAL_GetTick>
 8003aea:	4605      	mov	r5, r0
 8003aec:	e004      	b.n	8003af8 <HAL_RCC_OscConfig+0x380>
 8003aee:	f7fe f8c1 	bl	8001c74 <HAL_GetTick>
 8003af2:	1b40      	subs	r0, r0, r5
 8003af4:	2802      	cmp	r0, #2
 8003af6:	d8d7      	bhi.n	8003aa8 <HAL_RCC_OscConfig+0x330>
 8003af8:	6833      	ldr	r3, [r6, #0]
 8003afa:	0498      	lsls	r0, r3, #18
 8003afc:	d4f7      	bmi.n	8003aee <HAL_RCC_OscConfig+0x376>
 8003afe:	e6cb      	b.n	8003898 <HAL_RCC_OscConfig+0x120>
 8003b00:	4b8b      	ldr	r3, [pc, #556]	; (8003d30 <HAL_RCC_OscConfig+0x5b8>)
 8003b02:	681a      	ldr	r2, [r3, #0]
 8003b04:	461e      	mov	r6, r3
 8003b06:	f022 0280 	bic.w	r2, r2, #128	; 0x80
 8003b0a:	601a      	str	r2, [r3, #0]
 8003b0c:	f7fe f8b2 	bl	8001c74 <HAL_GetTick>
 8003b10:	4605      	mov	r5, r0
 8003b12:	e004      	b.n	8003b1e <HAL_RCC_OscConfig+0x3a6>
 8003b14:	f7fe f8ae 	bl	8001c74 <HAL_GetTick>
 8003b18:	1b40      	subs	r0, r0, r5
 8003b1a:	2802      	cmp	r0, #2
 8003b1c:	d8c4      	bhi.n	8003aa8 <HAL_RCC_OscConfig+0x330>
 8003b1e:	6833      	ldr	r3, [r6, #0]
 8003b20:	05df      	lsls	r7, r3, #23
 8003b22:	d4f7      	bmi.n	8003b14 <HAL_RCC_OscConfig+0x39c>
 8003b24:	6823      	ldr	r3, [r4, #0]
 8003b26:	e684      	b.n	8003832 <HAL_RCC_OscConfig+0xba>
 8003b28:	4a81      	ldr	r2, [pc, #516]	; (8003d30 <HAL_RCC_OscConfig+0x5b8>)
 8003b2a:	6921      	ldr	r1, [r4, #16]
 8003b2c:	6853      	ldr	r3, [r2, #4]
 8003b2e:	f023 43fe 	bic.w	r3, r3, #2130706432	; 0x7f000000
 8003b32:	ea43 6301 	orr.w	r3, r3, r1, lsl #24
 8003b36:	6053      	str	r3, [r2, #4]
 8003b38:	6823      	ldr	r3, [r4, #0]
 8003b3a:	e678      	b.n	800382e <HAL_RCC_OscConfig+0xb6>
 8003b3c:	4b7c      	ldr	r3, [pc, #496]	; (8003d30 <HAL_RCC_OscConfig+0x5b8>)
 8003b3e:	681a      	ldr	r2, [r3, #0]
 8003b40:	461e      	mov	r6, r3
 8003b42:	f022 0201 	bic.w	r2, r2, #1
 8003b46:	601a      	str	r2, [r3, #0]
 8003b48:	f7fe f894 	bl	8001c74 <HAL_GetTick>
 8003b4c:	4605      	mov	r5, r0
 8003b4e:	e004      	b.n	8003b5a <HAL_RCC_OscConfig+0x3e2>
 8003b50:	f7fe f890 	bl	8001c74 <HAL_GetTick>
 8003b54:	1b40      	subs	r0, r0, r5
 8003b56:	2802      	cmp	r0, #2
 8003b58:	d8a6      	bhi.n	8003aa8 <HAL_RCC_OscConfig+0x330>
 8003b5a:	6833      	ldr	r3, [r6, #0]
 8003b5c:	0758      	lsls	r0, r3, #29
 8003b5e:	d4f7      	bmi.n	8003b50 <HAL_RCC_OscConfig+0x3d8>
 8003b60:	6823      	ldr	r3, [r4, #0]
 8003b62:	e664      	b.n	800382e <HAL_RCC_OscConfig+0xb6>
 8003b64:	0792      	lsls	r2, r2, #30
 8003b66:	f47f aef2 	bne.w	800394e <HAL_RCC_OscConfig+0x1d6>
 8003b6a:	e645      	b.n	80037f8 <HAL_RCC_OscConfig+0x80>
 8003b6c:	2001      	movs	r0, #1
 8003b6e:	4770      	bx	lr
 8003b70:	4a6f      	ldr	r2, [pc, #444]	; (8003d30 <HAL_RCC_OscConfig+0x5b8>)
 8003b72:	6a21      	ldr	r1, [r4, #32]
 8003b74:	68d3      	ldr	r3, [r2, #12]
 8003b76:	f023 537c 	bic.w	r3, r3, #1056964608	; 0x3f000000
 8003b7a:	ea43 6301 	orr.w	r3, r3, r1, lsl #24
 8003b7e:	60d3      	str	r3, [r2, #12]
 8003b80:	6823      	ldr	r3, [r4, #0]
 8003b82:	e656      	b.n	8003832 <HAL_RCC_OscConfig+0xba>
 8003b84:	f7fe f876 	bl	8001c74 <HAL_GetTick>
 8003b88:	4606      	mov	r6, r0
 8003b8a:	e004      	b.n	8003b96 <HAL_RCC_OscConfig+0x41e>
 8003b8c:	f7fe f872 	bl	8001c74 <HAL_GetTick>
 8003b90:	1b80      	subs	r0, r0, r6
 8003b92:	2802      	cmp	r0, #2
 8003b94:	d888      	bhi.n	8003aa8 <HAL_RCC_OscConfig+0x330>
 8003b96:	682b      	ldr	r3, [r5, #0]
 8003b98:	0199      	lsls	r1, r3, #6
 8003b9a:	d4f7      	bmi.n	8003b8c <HAL_RCC_OscConfig+0x414>
 8003b9c:	6aaa      	ldr	r2, [r5, #40]	; 0x28
 8003b9e:	4b65      	ldr	r3, [pc, #404]	; (8003d34 <HAL_RCC_OscConfig+0x5bc>)
 8003ba0:	6aa0      	ldr	r0, [r4, #40]	; 0x28
 8003ba2:	4013      	ands	r3, r2
 8003ba4:	6ae2      	ldr	r2, [r4, #44]	; 0x2c
 8003ba6:	4964      	ldr	r1, [pc, #400]	; (8003d38 <HAL_RCC_OscConfig+0x5c0>)
 8003ba8:	4303      	orrs	r3, r0
 8003baa:	4e61      	ldr	r6, [pc, #388]	; (8003d30 <HAL_RCC_OscConfig+0x5b8>)
 8003bac:	ea43 1302 	orr.w	r3, r3, r2, lsl #4
 8003bb0:	62ab      	str	r3, [r5, #40]	; 0x28
 8003bb2:	6b27      	ldr	r7, [r4, #48]	; 0x30
 8003bb4:	e9d4 320d 	ldrd	r3, r2, [r4, #52]	; 0x34
 8003bb8:	3f01      	subs	r7, #1
 8003bba:	1e50      	subs	r0, r2, #1
 8003bbc:	3b01      	subs	r3, #1
 8003bbe:	6be2      	ldr	r2, [r4, #60]	; 0x3c
 8003bc0:	f3c7 0708 	ubfx	r7, r7, #0, #9
 8003bc4:	025b      	lsls	r3, r3, #9
 8003bc6:	0400      	lsls	r0, r0, #16
 8003bc8:	3a01      	subs	r2, #1
 8003bca:	b29b      	uxth	r3, r3
 8003bcc:	f400 00fe 	and.w	r0, r0, #8323072	; 0x7f0000
 8003bd0:	0612      	lsls	r2, r2, #24
 8003bd2:	4303      	orrs	r3, r0
 8003bd4:	f002 42fe 	and.w	r2, r2, #2130706432	; 0x7f000000
 8003bd8:	433b      	orrs	r3, r7
 8003bda:	4313      	orrs	r3, r2
 8003bdc:	632b      	str	r3, [r5, #48]	; 0x30
 8003bde:	6aeb      	ldr	r3, [r5, #44]	; 0x2c
 8003be0:	f023 0301 	bic.w	r3, r3, #1
 8003be4:	62eb      	str	r3, [r5, #44]	; 0x2c
 8003be6:	6b6a      	ldr	r2, [r5, #52]	; 0x34
 8003be8:	6ca3      	ldr	r3, [r4, #72]	; 0x48
 8003bea:	4011      	ands	r1, r2
 8003bec:	ea41 01c3 	orr.w	r1, r1, r3, lsl #3
 8003bf0:	6369      	str	r1, [r5, #52]	; 0x34
 8003bf2:	6aeb      	ldr	r3, [r5, #44]	; 0x2c
 8003bf4:	6c22      	ldr	r2, [r4, #64]	; 0x40
 8003bf6:	f023 030c 	bic.w	r3, r3, #12
 8003bfa:	4313      	orrs	r3, r2
 8003bfc:	62eb      	str	r3, [r5, #44]	; 0x2c
 8003bfe:	6aeb      	ldr	r3, [r5, #44]	; 0x2c
 8003c00:	6c62      	ldr	r2, [r4, #68]	; 0x44
 8003c02:	f023 0302 	bic.w	r3, r3, #2
 8003c06:	4313      	orrs	r3, r2
 8003c08:	62eb      	str	r3, [r5, #44]	; 0x2c
 8003c0a:	6aeb      	ldr	r3, [r5, #44]	; 0x2c
 8003c0c:	f443 3380 	orr.w	r3, r3, #65536	; 0x10000
 8003c10:	62eb      	str	r3, [r5, #44]	; 0x2c
 8003c12:	6aeb      	ldr	r3, [r5, #44]	; 0x2c
 8003c14:	f443 3300 	orr.w	r3, r3, #131072	; 0x20000
 8003c18:	62eb      	str	r3, [r5, #44]	; 0x2c
 8003c1a:	6aeb      	ldr	r3, [r5, #44]	; 0x2c
 8003c1c:	f443 2380 	orr.w	r3, r3, #262144	; 0x40000
 8003c20:	62eb      	str	r3, [r5, #44]	; 0x2c
 8003c22:	6aeb      	ldr	r3, [r5, #44]	; 0x2c
 8003c24:	f043 0301 	orr.w	r3, r3, #1
 8003c28:	62eb      	str	r3, [r5, #44]	; 0x2c
 8003c2a:	682b      	ldr	r3, [r5, #0]
 8003c2c:	f043 7380 	orr.w	r3, r3, #16777216	; 0x1000000
 8003c30:	602b      	str	r3, [r5, #0]
 8003c32:	f7fe f81f 	bl	8001c74 <HAL_GetTick>
 8003c36:	4604      	mov	r4, r0
 8003c38:	e005      	b.n	8003c46 <HAL_RCC_OscConfig+0x4ce>
 8003c3a:	f7fe f81b 	bl	8001c74 <HAL_GetTick>
 8003c3e:	1b00      	subs	r0, r0, r4
 8003c40:	2802      	cmp	r0, #2
 8003c42:	f63f af31 	bhi.w	8003aa8 <HAL_RCC_OscConfig+0x330>
 8003c46:	6833      	ldr	r3, [r6, #0]
 8003c48:	019a      	lsls	r2, r3, #6
 8003c4a:	d5f6      	bpl.n	8003c3a <HAL_RCC_OscConfig+0x4c2>
 8003c4c:	e646      	b.n	80038dc <HAL_RCC_OscConfig+0x164>
 8003c4e:	2801      	cmp	r0, #1
 8003c50:	6a9a      	ldr	r2, [r3, #40]	; 0x28
 8003c52:	6b1d      	ldr	r5, [r3, #48]	; 0x30
 8003c54:	f43f ae43 	beq.w	80038de <HAL_RCC_OscConfig+0x166>
 8003c58:	f002 0303 	and.w	r3, r2, #3
 8003c5c:	6aa1      	ldr	r1, [r4, #40]	; 0x28
 8003c5e:	428b      	cmp	r3, r1
 8003c60:	f47f aebf 	bne.w	80039e2 <HAL_RCC_OscConfig+0x26a>
 8003c64:	f3c2 1205 	ubfx	r2, r2, #4, #6
 8003c68:	6ae3      	ldr	r3, [r4, #44]	; 0x2c
 8003c6a:	429a      	cmp	r2, r3
 8003c6c:	f47f aeb9 	bne.w	80039e2 <HAL_RCC_OscConfig+0x26a>
 8003c70:	6b23      	ldr	r3, [r4, #48]	; 0x30
 8003c72:	f3c5 0208 	ubfx	r2, r5, #0, #9
 8003c76:	3b01      	subs	r3, #1
 8003c78:	429a      	cmp	r2, r3
 8003c7a:	f47f aeb2 	bne.w	80039e2 <HAL_RCC_OscConfig+0x26a>
 8003c7e:	6b63      	ldr	r3, [r4, #52]	; 0x34
 8003c80:	f3c5 2246 	ubfx	r2, r5, #9, #7
 8003c84:	3b01      	subs	r3, #1
 8003c86:	429a      	cmp	r2, r3
 8003c88:	f47f aeab 	bne.w	80039e2 <HAL_RCC_OscConfig+0x26a>
 8003c8c:	6ba3      	ldr	r3, [r4, #56]	; 0x38
 8003c8e:	f3c5 4206 	ubfx	r2, r5, #16, #7
 8003c92:	3b01      	subs	r3, #1
 8003c94:	429a      	cmp	r2, r3
 8003c96:	f47f aea4 	bne.w	80039e2 <HAL_RCC_OscConfig+0x26a>
 8003c9a:	6be0      	ldr	r0, [r4, #60]	; 0x3c
 8003c9c:	f3c5 6506 	ubfx	r5, r5, #24, #7
 8003ca0:	3801      	subs	r0, #1
 8003ca2:	1a28      	subs	r0, r5, r0
 8003ca4:	bf18      	it	ne
 8003ca6:	2001      	movne	r0, #1
 8003ca8:	bdf8      	pop	{r3, r4, r5, r6, r7, pc}
 8003caa:	f442 2280 	orr.w	r2, r2, #262144	; 0x40000
 8003cae:	601a      	str	r2, [r3, #0]
 8003cb0:	681a      	ldr	r2, [r3, #0]
 8003cb2:	f442 3280 	orr.w	r2, r2, #65536	; 0x10000
 8003cb6:	601a      	str	r2, [r3, #0]
 8003cb8:	e586      	b.n	80037c8 <HAL_RCC_OscConfig+0x50>
 8003cba:	4a1d      	ldr	r2, [pc, #116]	; (8003d30 <HAL_RCC_OscConfig+0x5b8>)
 8003cbc:	6853      	ldr	r3, [r2, #4]
 8003cbe:	f423 337c 	bic.w	r3, r3, #258048	; 0x3f000
 8003cc2:	f443 3300 	orr.w	r3, r3, #131072	; 0x20000
 8003cc6:	6053      	str	r3, [r2, #4]
 8003cc8:	6823      	ldr	r3, [r4, #0]
 8003cca:	e5b0      	b.n	800382e <HAL_RCC_OscConfig+0xb6>
 8003ccc:	4b18      	ldr	r3, [pc, #96]	; (8003d30 <HAL_RCC_OscConfig+0x5b8>)
 8003cce:	f241 3788 	movw	r7, #5000	; 0x1388
 8003cd2:	6f1a      	ldr	r2, [r3, #112]	; 0x70
 8003cd4:	461e      	mov	r6, r3
 8003cd6:	f022 0201 	bic.w	r2, r2, #1
 8003cda:	671a      	str	r2, [r3, #112]	; 0x70
 8003cdc:	6f1a      	ldr	r2, [r3, #112]	; 0x70
 8003cde:	f022 0204 	bic.w	r2, r2, #4
 8003ce2:	671a      	str	r2, [r3, #112]	; 0x70
 8003ce4:	f7fd ffc6 	bl	8001c74 <HAL_GetTick>
 8003ce8:	4605      	mov	r5, r0
 8003cea:	e005      	b.n	8003cf8 <HAL_RCC_OscConfig+0x580>
 8003cec:	f7fd ffc2 	bl	8001c74 <HAL_GetTick>
 8003cf0:	1b40      	subs	r0, r0, r5
 8003cf2:	42b8      	cmp	r0, r7
 8003cf4:	f63f aed8 	bhi.w	8003aa8 <HAL_RCC_OscConfig+0x330>
 8003cf8:	6f33      	ldr	r3, [r6, #112]	; 0x70
 8003cfa:	0798      	lsls	r0, r3, #30
 8003cfc:	d4f6      	bmi.n	8003cec <HAL_RCC_OscConfig+0x574>
 8003cfe:	e5cf      	b.n	80038a0 <HAL_RCC_OscConfig+0x128>
 8003d00:	68f3      	ldr	r3, [r6, #12]
 8003d02:	6a22      	ldr	r2, [r4, #32]
 8003d04:	f023 537c 	bic.w	r3, r3, #1056964608	; 0x3f000000
 8003d08:	ea43 6302 	orr.w	r3, r3, r2, lsl #24
 8003d0c:	60f3      	str	r3, [r6, #12]
 8003d0e:	6823      	ldr	r3, [r4, #0]
 8003d10:	e58f      	b.n	8003832 <HAL_RCC_OscConfig+0xba>
 8003d12:	6873      	ldr	r3, [r6, #4]
 8003d14:	6922      	ldr	r2, [r4, #16]
 8003d16:	f023 43fe 	bic.w	r3, r3, #2130706432	; 0x7f000000
 8003d1a:	ea43 6302 	orr.w	r3, r3, r2, lsl #24
 8003d1e:	6073      	str	r3, [r6, #4]
 8003d20:	6823      	ldr	r3, [r4, #0]
 8003d22:	e584      	b.n	800382e <HAL_RCC_OscConfig+0xb6>
 8003d24:	4a02      	ldr	r2, [pc, #8]	; (8003d30 <HAL_RCC_OscConfig+0x5b8>)
 8003d26:	6f13      	ldr	r3, [r2, #112]	; 0x70
 8003d28:	f043 0301 	orr.w	r3, r3, #1
 8003d2c:	6713      	str	r3, [r2, #112]	; 0x70
 8003d2e:	e68e      	b.n	8003a4e <HAL_RCC_OscConfig+0x2d6>
 8003d30:	58024400 	.word	0x58024400
 8003d34:	fffffc0c 	.word	0xfffffc0c
 8003d38:	ffff0007 	.word	0xffff0007
 8003d3c:	4a08      	ldr	r2, [pc, #32]	; (8003d60 <HAL_RCC_OscConfig+0x5e8>)
 8003d3e:	6853      	ldr	r3, [r2, #4]
 8003d40:	f023 43f8 	bic.w	r3, r3, #2080374784	; 0x7c000000
 8003d44:	f043 4380 	orr.w	r3, r3, #1073741824	; 0x40000000
 8003d48:	6053      	str	r3, [r2, #4]
 8003d4a:	6823      	ldr	r3, [r4, #0]
 8003d4c:	e571      	b.n	8003832 <HAL_RCC_OscConfig+0xba>
 8003d4e:	f042 0204 	orr.w	r2, r2, #4
 8003d52:	671a      	str	r2, [r3, #112]	; 0x70
 8003d54:	6f1a      	ldr	r2, [r3, #112]	; 0x70
 8003d56:	f042 0201 	orr.w	r2, r2, #1
 8003d5a:	671a      	str	r2, [r3, #112]	; 0x70
 8003d5c:	e677      	b.n	8003a4e <HAL_RCC_OscConfig+0x2d6>
 8003d5e:	bf00      	nop
 8003d60:	58024400 	.word	0x58024400

08003d64 <HAL_RCC_GetSysClockFreq>:
 8003d64:	4a47      	ldr	r2, [pc, #284]	; (8003e84 <HAL_RCC_GetSysClockFreq+0x120>)
 8003d66:	6913      	ldr	r3, [r2, #16]
 8003d68:	f003 0338 	and.w	r3, r3, #56	; 0x38
 8003d6c:	2b10      	cmp	r3, #16
 8003d6e:	d004      	beq.n	8003d7a <HAL_RCC_GetSysClockFreq+0x16>
 8003d70:	2b18      	cmp	r3, #24
 8003d72:	d00d      	beq.n	8003d90 <HAL_RCC_GetSysClockFreq+0x2c>
 8003d74:	b11b      	cbz	r3, 8003d7e <HAL_RCC_GetSysClockFreq+0x1a>
 8003d76:	4844      	ldr	r0, [pc, #272]	; (8003e88 <HAL_RCC_GetSysClockFreq+0x124>)
 8003d78:	4770      	bx	lr
 8003d7a:	4844      	ldr	r0, [pc, #272]	; (8003e8c <HAL_RCC_GetSysClockFreq+0x128>)
 8003d7c:	4770      	bx	lr
 8003d7e:	6813      	ldr	r3, [r2, #0]
 8003d80:	0699      	lsls	r1, r3, #26
 8003d82:	d54a      	bpl.n	8003e1a <HAL_RCC_GetSysClockFreq+0xb6>
 8003d84:	6813      	ldr	r3, [r2, #0]
 8003d86:	4842      	ldr	r0, [pc, #264]	; (8003e90 <HAL_RCC_GetSysClockFreq+0x12c>)
 8003d88:	f3c3 03c1 	ubfx	r3, r3, #3, #2
 8003d8c:	40d8      	lsrs	r0, r3
 8003d8e:	4770      	bx	lr
 8003d90:	6a93      	ldr	r3, [r2, #40]	; 0x28
 8003d92:	b430      	push	{r4, r5}
 8003d94:	6a94      	ldr	r4, [r2, #40]	; 0x28
 8003d96:	6ad1      	ldr	r1, [r2, #44]	; 0x2c
 8003d98:	f414 7f7c 	tst.w	r4, #1008	; 0x3f0
 8003d9c:	f3c4 1005 	ubfx	r0, r4, #4, #6
 8003da0:	6b55      	ldr	r5, [r2, #52]	; 0x34
 8003da2:	d038      	beq.n	8003e16 <HAL_RCC_GetSysClockFreq+0xb2>
 8003da4:	f3c5 05cc 	ubfx	r5, r5, #3, #13
 8003da8:	f001 0101 	and.w	r1, r1, #1
 8003dac:	f003 0303 	and.w	r3, r3, #3
 8003db0:	fb01 f105 	mul.w	r1, r1, r5
 8003db4:	2b01      	cmp	r3, #1
 8003db6:	ee07 1a90 	vmov	s15, r1
 8003dba:	eeb8 7ae7 	vcvt.f32.s32	s14, s15
 8003dbe:	d002      	beq.n	8003dc6 <HAL_RCC_GetSysClockFreq+0x62>
 8003dc0:	2b02      	cmp	r3, #2
 8003dc2:	d02c      	beq.n	8003e1e <HAL_RCC_GetSysClockFreq+0xba>
 8003dc4:	b393      	cbz	r3, 8003e2c <HAL_RCC_GetSysClockFreq+0xc8>
 8003dc6:	ee07 0a90 	vmov	s15, r0
 8003dca:	ed9f 5a32 	vldr	s10, [pc, #200]	; 8003e94 <HAL_RCC_GetSysClockFreq+0x130>
 8003dce:	eef8 7ae7 	vcvt.f32.s32	s15, s15
 8003dd2:	6b13      	ldr	r3, [r2, #48]	; 0x30
 8003dd4:	eec5 6a27 	vdiv.f32	s13, s10, s15
 8003dd8:	eddf 5a2f 	vldr	s11, [pc, #188]	; 8003e98 <HAL_RCC_GetSysClockFreq+0x134>
 8003ddc:	f3c3 0308 	ubfx	r3, r3, #0, #9
 8003de0:	ee07 3a90 	vmov	s15, r3
 8003de4:	eeb7 6a00 	vmov.f32	s12, #112	; 0x3f800000  1.0
 8003de8:	eef8 7ae7 	vcvt.f32.s32	s15, s15
 8003dec:	eee7 7a25 	vfma.f32	s15, s14, s11
 8003df0:	ee77 7a86 	vadd.f32	s15, s15, s12
 8003df4:	ee66 6aa7 	vmul.f32	s13, s13, s15
 8003df8:	4b22      	ldr	r3, [pc, #136]	; (8003e84 <HAL_RCC_GetSysClockFreq+0x120>)
 8003dfa:	6b1b      	ldr	r3, [r3, #48]	; 0x30
 8003dfc:	f3c3 2346 	ubfx	r3, r3, #9, #7
 8003e00:	3301      	adds	r3, #1
 8003e02:	ee07 3a90 	vmov	s15, r3
 8003e06:	eeb8 7ae7 	vcvt.f32.s32	s14, s15
 8003e0a:	eec6 7a87 	vdiv.f32	s15, s13, s14
 8003e0e:	eefc 7ae7 	vcvt.u32.f32	s15, s15
 8003e12:	ee17 0a90 	vmov	r0, s15
 8003e16:	bc30      	pop	{r4, r5}
 8003e18:	4770      	bx	lr
 8003e1a:	481d      	ldr	r0, [pc, #116]	; (8003e90 <HAL_RCC_GetSysClockFreq+0x12c>)
 8003e1c:	4770      	bx	lr
 8003e1e:	ee07 0a90 	vmov	s15, r0
 8003e22:	ed9f 5a1e 	vldr	s10, [pc, #120]	; 8003e9c <HAL_RCC_GetSysClockFreq+0x138>
 8003e26:	eef8 7ae7 	vcvt.f32.s32	s15, s15
 8003e2a:	e7d2      	b.n	8003dd2 <HAL_RCC_GetSysClockFreq+0x6e>
 8003e2c:	6813      	ldr	r3, [r2, #0]
 8003e2e:	069b      	lsls	r3, r3, #26
 8003e30:	d520      	bpl.n	8003e74 <HAL_RCC_GetSysClockFreq+0x110>
 8003e32:	6813      	ldr	r3, [r2, #0]
 8003e34:	ee07 0a90 	vmov	s15, r0
 8003e38:	4915      	ldr	r1, [pc, #84]	; (8003e90 <HAL_RCC_GetSysClockFreq+0x12c>)
 8003e3a:	eeb7 5a00 	vmov.f32	s10, #112	; 0x3f800000  1.0
 8003e3e:	f3c3 00c1 	ubfx	r0, r3, #3, #2
 8003e42:	eef8 7ae7 	vcvt.f32.s32	s15, s15
 8003e46:	6b13      	ldr	r3, [r2, #48]	; 0x30
 8003e48:	40c1      	lsrs	r1, r0
 8003e4a:	eddf 4a13 	vldr	s9, [pc, #76]	; 8003e98 <HAL_RCC_GetSysClockFreq+0x134>
 8003e4e:	f3c3 0308 	ubfx	r3, r3, #0, #9
 8003e52:	ee06 1a10 	vmov	s12, r1
 8003e56:	ee06 3a90 	vmov	s13, r3
 8003e5a:	eeb8 6ac6 	vcvt.f32.s32	s12, s12
 8003e5e:	eef8 6ae6 	vcvt.f32.s32	s13, s13
 8003e62:	eec6 5a27 	vdiv.f32	s11, s12, s15
 8003e66:	eee7 6a24 	vfma.f32	s13, s14, s9
 8003e6a:	ee76 6a85 	vadd.f32	s13, s13, s10
 8003e6e:	ee66 6aa5 	vmul.f32	s13, s13, s11
 8003e72:	e7c1      	b.n	8003df8 <HAL_RCC_GetSysClockFreq+0x94>
 8003e74:	ee07 0a90 	vmov	s15, r0
 8003e78:	ed9f 5a09 	vldr	s10, [pc, #36]	; 8003ea0 <HAL_RCC_GetSysClockFreq+0x13c>
 8003e7c:	eef8 7ae7 	vcvt.f32.s32	s15, s15
 8003e80:	e7a7      	b.n	8003dd2 <HAL_RCC_GetSysClockFreq+0x6e>
 8003e82:	bf00      	nop
 8003e84:	58024400 	.word	0x58024400
 8003e88:	003d0900 	.word	0x003d0900
 8003e8c:	007f2815 	.word	0x007f2815
 8003e90:	03d09000 	.word	0x03d09000
 8003e94:	4a742400 	.word	0x4a742400
 8003e98:	39000000 	.word	0x39000000
 8003e9c:	4afe502a 	.word	0x4afe502a
 8003ea0:	4c742400 	.word	0x4c742400

08003ea4 <HAL_RCC_ClockConfig>:
 8003ea4:	2800      	cmp	r0, #0
 8003ea6:	f000 810e 	beq.w	80040c6 <HAL_RCC_ClockConfig+0x222>
 8003eaa:	4a8d      	ldr	r2, [pc, #564]	; (80040e0 <HAL_RCC_ClockConfig+0x23c>)
 8003eac:	6813      	ldr	r3, [r2, #0]
 8003eae:	f003 030f 	and.w	r3, r3, #15
 8003eb2:	428b      	cmp	r3, r1
 8003eb4:	e92d 41f0 	stmdb	sp!, {r4, r5, r6, r7, r8, lr}
 8003eb8:	4604      	mov	r4, r0
 8003eba:	460d      	mov	r5, r1
 8003ebc:	d20c      	bcs.n	8003ed8 <HAL_RCC_ClockConfig+0x34>
 8003ebe:	6813      	ldr	r3, [r2, #0]
 8003ec0:	f023 030f 	bic.w	r3, r3, #15
 8003ec4:	430b      	orrs	r3, r1
 8003ec6:	6013      	str	r3, [r2, #0]
 8003ec8:	6813      	ldr	r3, [r2, #0]
 8003eca:	f003 030f 	and.w	r3, r3, #15
 8003ece:	428b      	cmp	r3, r1
 8003ed0:	d002      	beq.n	8003ed8 <HAL_RCC_ClockConfig+0x34>
 8003ed2:	2001      	movs	r0, #1
 8003ed4:	e8bd 81f0 	ldmia.w	sp!, {r4, r5, r6, r7, r8, pc}
 8003ed8:	6823      	ldr	r3, [r4, #0]
 8003eda:	075f      	lsls	r7, r3, #29
 8003edc:	d50b      	bpl.n	8003ef6 <HAL_RCC_ClockConfig+0x52>
 8003ede:	4981      	ldr	r1, [pc, #516]	; (80040e4 <HAL_RCC_ClockConfig+0x240>)
 8003ee0:	6920      	ldr	r0, [r4, #16]
 8003ee2:	698a      	ldr	r2, [r1, #24]
 8003ee4:	f002 0270 	and.w	r2, r2, #112	; 0x70
 8003ee8:	4290      	cmp	r0, r2
 8003eea:	d904      	bls.n	8003ef6 <HAL_RCC_ClockConfig+0x52>
 8003eec:	698a      	ldr	r2, [r1, #24]
 8003eee:	f022 0270 	bic.w	r2, r2, #112	; 0x70
 8003ef2:	4302      	orrs	r2, r0
 8003ef4:	618a      	str	r2, [r1, #24]
 8003ef6:	071e      	lsls	r6, r3, #28
 8003ef8:	d50b      	bpl.n	8003f12 <HAL_RCC_ClockConfig+0x6e>
 8003efa:	497a      	ldr	r1, [pc, #488]	; (80040e4 <HAL_RCC_ClockConfig+0x240>)
 8003efc:	6960      	ldr	r0, [r4, #20]
 8003efe:	69ca      	ldr	r2, [r1, #28]
 8003f00:	f002 0270 	and.w	r2, r2, #112	; 0x70
 8003f04:	4290      	cmp	r0, r2
 8003f06:	d904      	bls.n	8003f12 <HAL_RCC_ClockConfig+0x6e>
 8003f08:	69ca      	ldr	r2, [r1, #28]
 8003f0a:	f022 0270 	bic.w	r2, r2, #112	; 0x70
 8003f0e:	4302      	orrs	r2, r0
 8003f10:	61ca      	str	r2, [r1, #28]
 8003f12:	06d8      	lsls	r0, r3, #27
 8003f14:	d50b      	bpl.n	8003f2e <HAL_RCC_ClockConfig+0x8a>
 8003f16:	4973      	ldr	r1, [pc, #460]	; (80040e4 <HAL_RCC_ClockConfig+0x240>)
 8003f18:	69a0      	ldr	r0, [r4, #24]
 8003f1a:	69ca      	ldr	r2, [r1, #28]
 8003f1c:	f402 62e0 	and.w	r2, r2, #1792	; 0x700
 8003f20:	4290      	cmp	r0, r2
 8003f22:	d904      	bls.n	8003f2e <HAL_RCC_ClockConfig+0x8a>
 8003f24:	69ca      	ldr	r2, [r1, #28]
 8003f26:	f422 62e0 	bic.w	r2, r2, #1792	; 0x700
 8003f2a:	4302      	orrs	r2, r0
 8003f2c:	61ca      	str	r2, [r1, #28]
 8003f2e:	0699      	lsls	r1, r3, #26
 8003f30:	d50b      	bpl.n	8003f4a <HAL_RCC_ClockConfig+0xa6>
 8003f32:	496c      	ldr	r1, [pc, #432]	; (80040e4 <HAL_RCC_ClockConfig+0x240>)
 8003f34:	69e0      	ldr	r0, [r4, #28]
 8003f36:	6a0a      	ldr	r2, [r1, #32]
 8003f38:	f002 0270 	and.w	r2, r2, #112	; 0x70
 8003f3c:	4290      	cmp	r0, r2
 8003f3e:	d904      	bls.n	8003f4a <HAL_RCC_ClockConfig+0xa6>
 8003f40:	6a0a      	ldr	r2, [r1, #32]
 8003f42:	f022 0270 	bic.w	r2, r2, #112	; 0x70
 8003f46:	4302      	orrs	r2, r0
 8003f48:	620a      	str	r2, [r1, #32]
 8003f4a:	079a      	lsls	r2, r3, #30
 8003f4c:	f140 80ad 	bpl.w	80040aa <HAL_RCC_ClockConfig+0x206>
 8003f50:	4864      	ldr	r0, [pc, #400]	; (80040e4 <HAL_RCC_ClockConfig+0x240>)
 8003f52:	68e1      	ldr	r1, [r4, #12]
 8003f54:	6982      	ldr	r2, [r0, #24]
 8003f56:	f002 020f 	and.w	r2, r2, #15
 8003f5a:	4291      	cmp	r1, r2
 8003f5c:	d904      	bls.n	8003f68 <HAL_RCC_ClockConfig+0xc4>
 8003f5e:	6982      	ldr	r2, [r0, #24]
 8003f60:	f022 020f 	bic.w	r2, r2, #15
 8003f64:	430a      	orrs	r2, r1
 8003f66:	6182      	str	r2, [r0, #24]
 8003f68:	07d8      	lsls	r0, r3, #31
 8003f6a:	d531      	bpl.n	8003fd0 <HAL_RCC_ClockConfig+0x12c>
 8003f6c:	4a5d      	ldr	r2, [pc, #372]	; (80040e4 <HAL_RCC_ClockConfig+0x240>)
 8003f6e:	68a1      	ldr	r1, [r4, #8]
 8003f70:	6993      	ldr	r3, [r2, #24]
 8003f72:	f423 6370 	bic.w	r3, r3, #3840	; 0xf00
 8003f76:	430b      	orrs	r3, r1
 8003f78:	6193      	str	r3, [r2, #24]
 8003f7a:	6861      	ldr	r1, [r4, #4]
 8003f7c:	6813      	ldr	r3, [r2, #0]
 8003f7e:	2902      	cmp	r1, #2
 8003f80:	f000 80a3 	beq.w	80040ca <HAL_RCC_ClockConfig+0x226>
 8003f84:	2903      	cmp	r1, #3
 8003f86:	f000 809a 	beq.w	80040be <HAL_RCC_ClockConfig+0x21a>
 8003f8a:	2901      	cmp	r1, #1
 8003f8c:	f000 80a3 	beq.w	80040d6 <HAL_RCC_ClockConfig+0x232>
 8003f90:	0758      	lsls	r0, r3, #29
 8003f92:	d59e      	bpl.n	8003ed2 <HAL_RCC_ClockConfig+0x2e>
 8003f94:	4a53      	ldr	r2, [pc, #332]	; (80040e4 <HAL_RCC_ClockConfig+0x240>)
 8003f96:	f241 3888 	movw	r8, #5000	; 0x1388
 8003f9a:	6913      	ldr	r3, [r2, #16]
 8003f9c:	4617      	mov	r7, r2
 8003f9e:	f023 0307 	bic.w	r3, r3, #7
 8003fa2:	430b      	orrs	r3, r1
 8003fa4:	6113      	str	r3, [r2, #16]
 8003fa6:	f7fd fe65 	bl	8001c74 <HAL_GetTick>
 8003faa:	4606      	mov	r6, r0
 8003fac:	e005      	b.n	8003fba <HAL_RCC_ClockConfig+0x116>
 8003fae:	f7fd fe61 	bl	8001c74 <HAL_GetTick>
 8003fb2:	1b80      	subs	r0, r0, r6
 8003fb4:	4540      	cmp	r0, r8
 8003fb6:	f200 808c 	bhi.w	80040d2 <HAL_RCC_ClockConfig+0x22e>
 8003fba:	693b      	ldr	r3, [r7, #16]
 8003fbc:	6862      	ldr	r2, [r4, #4]
 8003fbe:	f003 0338 	and.w	r3, r3, #56	; 0x38
 8003fc2:	ebb3 0fc2 	cmp.w	r3, r2, lsl #3
 8003fc6:	d1f2      	bne.n	8003fae <HAL_RCC_ClockConfig+0x10a>
 8003fc8:	6823      	ldr	r3, [r4, #0]
 8003fca:	0799      	lsls	r1, r3, #30
 8003fcc:	d506      	bpl.n	8003fdc <HAL_RCC_ClockConfig+0x138>
 8003fce:	68e1      	ldr	r1, [r4, #12]
 8003fd0:	4844      	ldr	r0, [pc, #272]	; (80040e4 <HAL_RCC_ClockConfig+0x240>)
 8003fd2:	6982      	ldr	r2, [r0, #24]
 8003fd4:	f002 020f 	and.w	r2, r2, #15
 8003fd8:	428a      	cmp	r2, r1
 8003fda:	d86a      	bhi.n	80040b2 <HAL_RCC_ClockConfig+0x20e>
 8003fdc:	4940      	ldr	r1, [pc, #256]	; (80040e0 <HAL_RCC_ClockConfig+0x23c>)
 8003fde:	680a      	ldr	r2, [r1, #0]
 8003fe0:	f002 020f 	and.w	r2, r2, #15
 8003fe4:	42aa      	cmp	r2, r5
 8003fe6:	d90a      	bls.n	8003ffe <HAL_RCC_ClockConfig+0x15a>
 8003fe8:	680a      	ldr	r2, [r1, #0]
 8003fea:	f022 020f 	bic.w	r2, r2, #15
 8003fee:	432a      	orrs	r2, r5
 8003ff0:	600a      	str	r2, [r1, #0]
 8003ff2:	680a      	ldr	r2, [r1, #0]
 8003ff4:	f002 020f 	and.w	r2, r2, #15
 8003ff8:	42aa      	cmp	r2, r5
 8003ffa:	f47f af6a 	bne.w	8003ed2 <HAL_RCC_ClockConfig+0x2e>
 8003ffe:	075a      	lsls	r2, r3, #29
 8004000:	d50b      	bpl.n	800401a <HAL_RCC_ClockConfig+0x176>
 8004002:	4938      	ldr	r1, [pc, #224]	; (80040e4 <HAL_RCC_ClockConfig+0x240>)
 8004004:	6920      	ldr	r0, [r4, #16]
 8004006:	698a      	ldr	r2, [r1, #24]
 8004008:	f002 0270 	and.w	r2, r2, #112	; 0x70
 800400c:	4290      	cmp	r0, r2
 800400e:	d204      	bcs.n	800401a <HAL_RCC_ClockConfig+0x176>
 8004010:	698a      	ldr	r2, [r1, #24]
 8004012:	f022 0270 	bic.w	r2, r2, #112	; 0x70
 8004016:	4302      	orrs	r2, r0
 8004018:	618a      	str	r2, [r1, #24]
 800401a:	071f      	lsls	r7, r3, #28
 800401c:	d50b      	bpl.n	8004036 <HAL_RCC_ClockConfig+0x192>
 800401e:	4931      	ldr	r1, [pc, #196]	; (80040e4 <HAL_RCC_ClockConfig+0x240>)
 8004020:	6960      	ldr	r0, [r4, #20]
 8004022:	69ca      	ldr	r2, [r1, #28]
 8004024:	f002 0270 	and.w	r2, r2, #112	; 0x70
 8004028:	4290      	cmp	r0, r2
 800402a:	d204      	bcs.n	8004036 <HAL_RCC_ClockConfig+0x192>
 800402c:	69ca      	ldr	r2, [r1, #28]
 800402e:	f022 0270 	bic.w	r2, r2, #112	; 0x70
 8004032:	4302      	orrs	r2, r0
 8004034:	61ca      	str	r2, [r1, #28]
 8004036:	06de      	lsls	r6, r3, #27
 8004038:	d50b      	bpl.n	8004052 <HAL_RCC_ClockConfig+0x1ae>
 800403a:	492a      	ldr	r1, [pc, #168]	; (80040e4 <HAL_RCC_ClockConfig+0x240>)
 800403c:	69a0      	ldr	r0, [r4, #24]
 800403e:	69ca      	ldr	r2, [r1, #28]
 8004040:	f402 62e0 	and.w	r2, r2, #1792	; 0x700
 8004044:	4290      	cmp	r0, r2
 8004046:	d204      	bcs.n	8004052 <HAL_RCC_ClockConfig+0x1ae>
 8004048:	69ca      	ldr	r2, [r1, #28]
 800404a:	f422 62e0 	bic.w	r2, r2, #1792	; 0x700
 800404e:	4302      	orrs	r2, r0
 8004050:	61ca      	str	r2, [r1, #28]
 8004052:	069d      	lsls	r5, r3, #26
 8004054:	d50b      	bpl.n	800406e <HAL_RCC_ClockConfig+0x1ca>
 8004056:	4a23      	ldr	r2, [pc, #140]	; (80040e4 <HAL_RCC_ClockConfig+0x240>)
 8004058:	69e1      	ldr	r1, [r4, #28]
 800405a:	6a13      	ldr	r3, [r2, #32]
 800405c:	f003 0370 	and.w	r3, r3, #112	; 0x70
 8004060:	4299      	cmp	r1, r3
 8004062:	d204      	bcs.n	800406e <HAL_RCC_ClockConfig+0x1ca>
 8004064:	6a13      	ldr	r3, [r2, #32]
 8004066:	f023 0370 	bic.w	r3, r3, #112	; 0x70
 800406a:	430b      	orrs	r3, r1
 800406c:	6213      	str	r3, [r2, #32]
 800406e:	f7ff fe79 	bl	8003d64 <HAL_RCC_GetSysClockFreq>
 8004072:	4b1c      	ldr	r3, [pc, #112]	; (80040e4 <HAL_RCC_ClockConfig+0x240>)
 8004074:	4602      	mov	r2, r0
 8004076:	481c      	ldr	r0, [pc, #112]	; (80040e8 <HAL_RCC_ClockConfig+0x244>)
 8004078:	6999      	ldr	r1, [r3, #24]
 800407a:	699b      	ldr	r3, [r3, #24]
 800407c:	f3c1 2103 	ubfx	r1, r1, #8, #4
 8004080:	4d1a      	ldr	r5, [pc, #104]	; (80040ec <HAL_RCC_ClockConfig+0x248>)
 8004082:	f003 030f 	and.w	r3, r3, #15
 8004086:	4c1a      	ldr	r4, [pc, #104]	; (80040f0 <HAL_RCC_ClockConfig+0x24c>)
 8004088:	5c41      	ldrb	r1, [r0, r1]
 800408a:	5cc3      	ldrb	r3, [r0, r3]
 800408c:	f001 011f 	and.w	r1, r1, #31
 8004090:	6828      	ldr	r0, [r5, #0]
 8004092:	f003 031f 	and.w	r3, r3, #31
 8004096:	4d17      	ldr	r5, [pc, #92]	; (80040f4 <HAL_RCC_ClockConfig+0x250>)
 8004098:	40ca      	lsrs	r2, r1
 800409a:	fa22 f303 	lsr.w	r3, r2, r3
 800409e:	602a      	str	r2, [r5, #0]
 80040a0:	6023      	str	r3, [r4, #0]
 80040a2:	e8bd 41f0 	ldmia.w	sp!, {r4, r5, r6, r7, r8, lr}
 80040a6:	f7fd bd83 	b.w	8001bb0 <HAL_InitTick>
 80040aa:	07da      	lsls	r2, r3, #31
 80040ac:	f53f af5e 	bmi.w	8003f6c <HAL_RCC_ClockConfig+0xc8>
 80040b0:	e794      	b.n	8003fdc <HAL_RCC_ClockConfig+0x138>
 80040b2:	6982      	ldr	r2, [r0, #24]
 80040b4:	f022 020f 	bic.w	r2, r2, #15
 80040b8:	4311      	orrs	r1, r2
 80040ba:	6181      	str	r1, [r0, #24]
 80040bc:	e78e      	b.n	8003fdc <HAL_RCC_ClockConfig+0x138>
 80040be:	019f      	lsls	r7, r3, #6
 80040c0:	f53f af68 	bmi.w	8003f94 <HAL_RCC_ClockConfig+0xf0>
 80040c4:	e705      	b.n	8003ed2 <HAL_RCC_ClockConfig+0x2e>
 80040c6:	2001      	movs	r0, #1
 80040c8:	4770      	bx	lr
 80040ca:	039b      	lsls	r3, r3, #14
 80040cc:	f53f af62 	bmi.w	8003f94 <HAL_RCC_ClockConfig+0xf0>
 80040d0:	e6ff      	b.n	8003ed2 <HAL_RCC_ClockConfig+0x2e>
 80040d2:	2003      	movs	r0, #3
 80040d4:	e6fe      	b.n	8003ed4 <HAL_RCC_ClockConfig+0x30>
 80040d6:	05de      	lsls	r6, r3, #23
 80040d8:	f53f af5c 	bmi.w	8003f94 <HAL_RCC_ClockConfig+0xf0>
 80040dc:	e6f9      	b.n	8003ed2 <HAL_RCC_ClockConfig+0x2e>
 80040de:	bf00      	nop
 80040e0:	52002000 	.word	0x52002000
 80040e4:	58024400 	.word	0x58024400
 80040e8:	0800636c 	.word	0x0800636c
 80040ec:	2400000c 	.word	0x2400000c
 80040f0:	24000004 	.word	0x24000004
 80040f4:	24000000 	.word	0x24000000

080040f8 <HAL_RCC_GetHCLKFreq>:
 80040f8:	b538      	push	{r3, r4, r5, lr}
 80040fa:	f7ff fe33 	bl	8003d64 <HAL_RCC_GetSysClockFreq>
 80040fe:	4b0b      	ldr	r3, [pc, #44]	; (800412c <HAL_RCC_GetHCLKFreq+0x34>)
 8004100:	490b      	ldr	r1, [pc, #44]	; (8004130 <HAL_RCC_GetHCLKFreq+0x38>)
 8004102:	699a      	ldr	r2, [r3, #24]
 8004104:	699b      	ldr	r3, [r3, #24]
 8004106:	f3c2 2203 	ubfx	r2, r2, #8, #4
 800410a:	4c0a      	ldr	r4, [pc, #40]	; (8004134 <HAL_RCC_GetHCLKFreq+0x3c>)
 800410c:	f003 030f 	and.w	r3, r3, #15
 8004110:	4d09      	ldr	r5, [pc, #36]	; (8004138 <HAL_RCC_GetHCLKFreq+0x40>)
 8004112:	5c8a      	ldrb	r2, [r1, r2]
 8004114:	5ccb      	ldrb	r3, [r1, r3]
 8004116:	f002 021f 	and.w	r2, r2, #31
 800411a:	f003 031f 	and.w	r3, r3, #31
 800411e:	fa20 f202 	lsr.w	r2, r0, r2
 8004122:	fa22 f003 	lsr.w	r0, r2, r3
 8004126:	602a      	str	r2, [r5, #0]
 8004128:	6020      	str	r0, [r4, #0]
 800412a:	bd38      	pop	{r3, r4, r5, pc}
 800412c:	58024400 	.word	0x58024400
 8004130:	0800636c 	.word	0x0800636c
 8004134:	24000004 	.word	0x24000004
 8004138:	24000000 	.word	0x24000000

0800413c <HAL_RCC_GetPCLK1Freq>:
 800413c:	b508      	push	{r3, lr}
 800413e:	f7ff ffdb 	bl	80040f8 <HAL_RCC_GetHCLKFreq>
 8004142:	4b05      	ldr	r3, [pc, #20]	; (8004158 <HAL_RCC_GetPCLK1Freq+0x1c>)
 8004144:	4a05      	ldr	r2, [pc, #20]	; (800415c <HAL_RCC_GetPCLK1Freq+0x20>)
 8004146:	69db      	ldr	r3, [r3, #28]
 8004148:	f3c3 1302 	ubfx	r3, r3, #4, #3
 800414c:	5cd3      	ldrb	r3, [r2, r3]
 800414e:	f003 031f 	and.w	r3, r3, #31
 8004152:	40d8      	lsrs	r0, r3
 8004154:	bd08      	pop	{r3, pc}
 8004156:	bf00      	nop
 8004158:	58024400 	.word	0x58024400
 800415c:	0800636c 	.word	0x0800636c

08004160 <HAL_RCC_GetPCLK2Freq>:
 8004160:	b508      	push	{r3, lr}
 8004162:	f7ff ffc9 	bl	80040f8 <HAL_RCC_GetHCLKFreq>
 8004166:	4b05      	ldr	r3, [pc, #20]	; (800417c <HAL_RCC_GetPCLK2Freq+0x1c>)
 8004168:	4a05      	ldr	r2, [pc, #20]	; (8004180 <HAL_RCC_GetPCLK2Freq+0x20>)
 800416a:	69db      	ldr	r3, [r3, #28]
 800416c:	f3c3 2302 	ubfx	r3, r3, #8, #3
 8004170:	5cd3      	ldrb	r3, [r2, r3]
 8004172:	f003 031f 	and.w	r3, r3, #31
 8004176:	40d8      	lsrs	r0, r3
 8004178:	bd08      	pop	{r3, pc}
 800417a:	bf00      	nop
 800417c:	58024400 	.word	0x58024400
 8004180:	0800636c 	.word	0x0800636c

08004184 <RCCEx_PLL2_Config>:
 8004184:	4a3b      	ldr	r2, [pc, #236]	; (8004274 <RCCEx_PLL2_Config+0xf0>)
 8004186:	b5f8      	push	{r3, r4, r5, r6, r7, lr}
 8004188:	6a93      	ldr	r3, [r2, #40]	; 0x28
 800418a:	f003 0303 	and.w	r3, r3, #3
 800418e:	2b03      	cmp	r3, #3
 8004190:	d069      	beq.n	8004266 <RCCEx_PLL2_Config+0xe2>
 8004192:	6813      	ldr	r3, [r2, #0]
 8004194:	4606      	mov	r6, r0
 8004196:	460f      	mov	r7, r1
 8004198:	4614      	mov	r4, r2
 800419a:	f023 6380 	bic.w	r3, r3, #67108864	; 0x4000000
 800419e:	6013      	str	r3, [r2, #0]
 80041a0:	f7fd fd68 	bl	8001c74 <HAL_GetTick>
 80041a4:	4605      	mov	r5, r0
 80041a6:	e004      	b.n	80041b2 <RCCEx_PLL2_Config+0x2e>
 80041a8:	f7fd fd64 	bl	8001c74 <HAL_GetTick>
 80041ac:	1b43      	subs	r3, r0, r5
 80041ae:	2b02      	cmp	r3, #2
 80041b0:	d857      	bhi.n	8004262 <RCCEx_PLL2_Config+0xde>
 80041b2:	6823      	ldr	r3, [r4, #0]
 80041b4:	011a      	lsls	r2, r3, #4
 80041b6:	d4f7      	bmi.n	80041a8 <RCCEx_PLL2_Config+0x24>
 80041b8:	6aa3      	ldr	r3, [r4, #40]	; 0x28
 80041ba:	6832      	ldr	r2, [r6, #0]
 80041bc:	f423 337c 	bic.w	r3, r3, #258048	; 0x3f000
 80041c0:	492d      	ldr	r1, [pc, #180]	; (8004278 <RCCEx_PLL2_Config+0xf4>)
 80041c2:	ea43 3302 	orr.w	r3, r3, r2, lsl #12
 80041c6:	62a3      	str	r3, [r4, #40]	; 0x28
 80041c8:	6875      	ldr	r5, [r6, #4]
 80041ca:	e9d6 3202 	ldrd	r3, r2, [r6, #8]
 80041ce:	3d01      	subs	r5, #1
 80041d0:	1e50      	subs	r0, r2, #1
 80041d2:	3b01      	subs	r3, #1
 80041d4:	6932      	ldr	r2, [r6, #16]
 80041d6:	f3c5 0508 	ubfx	r5, r5, #0, #9
 80041da:	025b      	lsls	r3, r3, #9
 80041dc:	0400      	lsls	r0, r0, #16
 80041de:	3a01      	subs	r2, #1
 80041e0:	b29b      	uxth	r3, r3
 80041e2:	f400 00fe 	and.w	r0, r0, #8323072	; 0x7f0000
 80041e6:	0612      	lsls	r2, r2, #24
 80041e8:	4303      	orrs	r3, r0
 80041ea:	f002 42fe 	and.w	r2, r2, #2130706432	; 0x7f000000
 80041ee:	432b      	orrs	r3, r5
 80041f0:	4313      	orrs	r3, r2
 80041f2:	63a3      	str	r3, [r4, #56]	; 0x38
 80041f4:	6ae3      	ldr	r3, [r4, #44]	; 0x2c
 80041f6:	6972      	ldr	r2, [r6, #20]
 80041f8:	f023 03c0 	bic.w	r3, r3, #192	; 0xc0
 80041fc:	4313      	orrs	r3, r2
 80041fe:	62e3      	str	r3, [r4, #44]	; 0x2c
 8004200:	6ae3      	ldr	r3, [r4, #44]	; 0x2c
 8004202:	69b2      	ldr	r2, [r6, #24]
 8004204:	f023 0320 	bic.w	r3, r3, #32
 8004208:	4313      	orrs	r3, r2
 800420a:	62e3      	str	r3, [r4, #44]	; 0x2c
 800420c:	6ae3      	ldr	r3, [r4, #44]	; 0x2c
 800420e:	f023 0310 	bic.w	r3, r3, #16
 8004212:	62e3      	str	r3, [r4, #44]	; 0x2c
 8004214:	6be2      	ldr	r2, [r4, #60]	; 0x3c
 8004216:	69f3      	ldr	r3, [r6, #28]
 8004218:	4011      	ands	r1, r2
 800421a:	ea41 01c3 	orr.w	r1, r1, r3, lsl #3
 800421e:	63e1      	str	r1, [r4, #60]	; 0x3c
 8004220:	6ae3      	ldr	r3, [r4, #44]	; 0x2c
 8004222:	f043 0310 	orr.w	r3, r3, #16
 8004226:	62e3      	str	r3, [r4, #44]	; 0x2c
 8004228:	6ae3      	ldr	r3, [r4, #44]	; 0x2c
 800422a:	b1f7      	cbz	r7, 800426a <RCCEx_PLL2_Config+0xe6>
 800422c:	2f01      	cmp	r7, #1
 800422e:	bf0c      	ite	eq
 8004230:	f443 1380 	orreq.w	r3, r3, #1048576	; 0x100000
 8004234:	f443 1300 	orrne.w	r3, r3, #2097152	; 0x200000
 8004238:	62e3      	str	r3, [r4, #44]	; 0x2c
 800423a:	4b0e      	ldr	r3, [pc, #56]	; (8004274 <RCCEx_PLL2_Config+0xf0>)
 800423c:	681a      	ldr	r2, [r3, #0]
 800423e:	461d      	mov	r5, r3
 8004240:	f042 6280 	orr.w	r2, r2, #67108864	; 0x4000000
 8004244:	601a      	str	r2, [r3, #0]
 8004246:	f7fd fd15 	bl	8001c74 <HAL_GetTick>
 800424a:	4604      	mov	r4, r0
 800424c:	e004      	b.n	8004258 <RCCEx_PLL2_Config+0xd4>
 800424e:	f7fd fd11 	bl	8001c74 <HAL_GetTick>
 8004252:	1b00      	subs	r0, r0, r4
 8004254:	2802      	cmp	r0, #2
 8004256:	d804      	bhi.n	8004262 <RCCEx_PLL2_Config+0xde>
 8004258:	682b      	ldr	r3, [r5, #0]
 800425a:	011b      	lsls	r3, r3, #4
 800425c:	d5f7      	bpl.n	800424e <RCCEx_PLL2_Config+0xca>
 800425e:	2000      	movs	r0, #0
 8004260:	bdf8      	pop	{r3, r4, r5, r6, r7, pc}
 8004262:	2003      	movs	r0, #3
 8004264:	bdf8      	pop	{r3, r4, r5, r6, r7, pc}
 8004266:	2001      	movs	r0, #1
 8004268:	bdf8      	pop	{r3, r4, r5, r6, r7, pc}
 800426a:	f443 2300 	orr.w	r3, r3, #524288	; 0x80000
 800426e:	62e3      	str	r3, [r4, #44]	; 0x2c
 8004270:	e7e3      	b.n	800423a <RCCEx_PLL2_Config+0xb6>
 8004272:	bf00      	nop
 8004274:	58024400 	.word	0x58024400
 8004278:	ffff0007 	.word	0xffff0007

0800427c <RCCEx_PLL3_Config>:
 800427c:	4a3b      	ldr	r2, [pc, #236]	; (800436c <RCCEx_PLL3_Config+0xf0>)
 800427e:	b5f8      	push	{r3, r4, r5, r6, r7, lr}
 8004280:	6a93      	ldr	r3, [r2, #40]	; 0x28
 8004282:	f003 0303 	and.w	r3, r3, #3
 8004286:	2b03      	cmp	r3, #3
 8004288:	d069      	beq.n	800435e <RCCEx_PLL3_Config+0xe2>
 800428a:	6813      	ldr	r3, [r2, #0]
 800428c:	4606      	mov	r6, r0
 800428e:	460f      	mov	r7, r1
 8004290:	4614      	mov	r4, r2
 8004292:	f023 5380 	bic.w	r3, r3, #268435456	; 0x10000000
 8004296:	6013      	str	r3, [r2, #0]
 8004298:	f7fd fcec 	bl	8001c74 <HAL_GetTick>
 800429c:	4605      	mov	r5, r0
 800429e:	e004      	b.n	80042aa <RCCEx_PLL3_Config+0x2e>
 80042a0:	f7fd fce8 	bl	8001c74 <HAL_GetTick>
 80042a4:	1b43      	subs	r3, r0, r5
 80042a6:	2b02      	cmp	r3, #2
 80042a8:	d857      	bhi.n	800435a <RCCEx_PLL3_Config+0xde>
 80042aa:	6823      	ldr	r3, [r4, #0]
 80042ac:	009a      	lsls	r2, r3, #2
 80042ae:	d4f7      	bmi.n	80042a0 <RCCEx_PLL3_Config+0x24>
 80042b0:	6aa3      	ldr	r3, [r4, #40]	; 0x28
 80042b2:	6832      	ldr	r2, [r6, #0]
 80042b4:	f023 737c 	bic.w	r3, r3, #66060288	; 0x3f00000
 80042b8:	492d      	ldr	r1, [pc, #180]	; (8004370 <RCCEx_PLL3_Config+0xf4>)
 80042ba:	ea43 5302 	orr.w	r3, r3, r2, lsl #20
 80042be:	62a3      	str	r3, [r4, #40]	; 0x28
 80042c0:	6875      	ldr	r5, [r6, #4]
 80042c2:	e9d6 3202 	ldrd	r3, r2, [r6, #8]
 80042c6:	3d01      	subs	r5, #1
 80042c8:	1e50      	subs	r0, r2, #1
 80042ca:	3b01      	subs	r3, #1
 80042cc:	6932      	ldr	r2, [r6, #16]
 80042ce:	f3c5 0508 	ubfx	r5, r5, #0, #9
 80042d2:	025b      	lsls	r3, r3, #9
 80042d4:	0400      	lsls	r0, r0, #16
 80042d6:	3a01      	subs	r2, #1
 80042d8:	b29b      	uxth	r3, r3
 80042da:	f400 00fe 	and.w	r0, r0, #8323072	; 0x7f0000
 80042de:	0612      	lsls	r2, r2, #24
 80042e0:	4303      	orrs	r3, r0
 80042e2:	f002 42fe 	and.w	r2, r2, #2130706432	; 0x7f000000
 80042e6:	432b      	orrs	r3, r5
 80042e8:	4313      	orrs	r3, r2
 80042ea:	6423      	str	r3, [r4, #64]	; 0x40
 80042ec:	6ae3      	ldr	r3, [r4, #44]	; 0x2c
 80042ee:	6972      	ldr	r2, [r6, #20]
 80042f0:	f423 6340 	bic.w	r3, r3, #3072	; 0xc00
 80042f4:	4313      	orrs	r3, r2
 80042f6:	62e3      	str	r3, [r4, #44]	; 0x2c
 80042f8:	6ae3      	ldr	r3, [r4, #44]	; 0x2c
 80042fa:	69b2      	ldr	r2, [r6, #24]
 80042fc:	f423 7300 	bic.w	r3, r3, #512	; 0x200
 8004300:	4313      	orrs	r3, r2
 8004302:	62e3      	str	r3, [r4, #44]	; 0x2c
 8004304:	6ae3      	ldr	r3, [r4, #44]	; 0x2c
 8004306:	f423 7380 	bic.w	r3, r3, #256	; 0x100
 800430a:	62e3      	str	r3, [r4, #44]	; 0x2c
 800430c:	6c62      	ldr	r2, [r4, #68]	; 0x44
 800430e:	69f3      	ldr	r3, [r6, #28]
 8004310:	4011      	ands	r1, r2
 8004312:	ea41 01c3 	orr.w	r1, r1, r3, lsl #3
 8004316:	6461      	str	r1, [r4, #68]	; 0x44
 8004318:	6ae3      	ldr	r3, [r4, #44]	; 0x2c
 800431a:	f443 7380 	orr.w	r3, r3, #256	; 0x100
 800431e:	62e3      	str	r3, [r4, #44]	; 0x2c
 8004320:	6ae3      	ldr	r3, [r4, #44]	; 0x2c
 8004322:	b1f7      	cbz	r7, 8004362 <RCCEx_PLL3_Config+0xe6>
 8004324:	2f01      	cmp	r7, #1
 8004326:	bf0c      	ite	eq
 8004328:	f443 0300 	orreq.w	r3, r3, #8388608	; 0x800000
 800432c:	f043 7380 	orrne.w	r3, r3, #16777216	; 0x1000000
 8004330:	62e3      	str	r3, [r4, #44]	; 0x2c
 8004332:	4b0e      	ldr	r3, [pc, #56]	; (800436c <RCCEx_PLL3_Config+0xf0>)
 8004334:	681a      	ldr	r2, [r3, #0]
 8004336:	461d      	mov	r5, r3
 8004338:	f042 5280 	orr.w	r2, r2, #268435456	; 0x10000000
 800433c:	601a      	str	r2, [r3, #0]
 800433e:	f7fd fc99 	bl	8001c74 <HAL_GetTick>
 8004342:	4604      	mov	r4, r0
 8004344:	e004      	b.n	8004350 <RCCEx_PLL3_Config+0xd4>
 8004346:	f7fd fc95 	bl	8001c74 <HAL_GetTick>
 800434a:	1b00      	subs	r0, r0, r4
 800434c:	2802      	cmp	r0, #2
 800434e:	d804      	bhi.n	800435a <RCCEx_PLL3_Config+0xde>
 8004350:	682b      	ldr	r3, [r5, #0]
 8004352:	009b      	lsls	r3, r3, #2
 8004354:	d5f7      	bpl.n	8004346 <RCCEx_PLL3_Config+0xca>
 8004356:	2000      	movs	r0, #0
 8004358:	bdf8      	pop	{r3, r4, r5, r6, r7, pc}
 800435a:	2003      	movs	r0, #3
 800435c:	bdf8      	pop	{r3, r4, r5, r6, r7, pc}
 800435e:	2001      	movs	r0, #1
 8004360:	bdf8      	pop	{r3, r4, r5, r6, r7, pc}
 8004362:	f443 0380 	orr.w	r3, r3, #4194304	; 0x400000
 8004366:	62e3      	str	r3, [r4, #44]	; 0x2c
 8004368:	e7e3      	b.n	8004332 <RCCEx_PLL3_Config+0xb6>
 800436a:	bf00      	nop
 800436c:	58024400 	.word	0x58024400
 8004370:	ffff0007 	.word	0xffff0007

08004374 <HAL_RCCEx_PeriphCLKConfig>:
 8004374:	e92d 43f8 	stmdb	sp!, {r3, r4, r5, r6, r7, r8, r9, lr}
 8004378:	6803      	ldr	r3, [r0, #0]
 800437a:	4604      	mov	r4, r0
 800437c:	f013 6600 	ands.w	r6, r3, #134217728	; 0x8000000
 8004380:	d01c      	beq.n	80043bc <HAL_RCCEx_PeriphCLKConfig+0x48>
 8004382:	6e42      	ldr	r2, [r0, #100]	; 0x64
 8004384:	f5b2 1f00 	cmp.w	r2, #2097152	; 0x200000
 8004388:	f000 84ba 	beq.w	8004d00 <HAL_RCCEx_PeriphCLKConfig+0x98c>
 800438c:	d823      	bhi.n	80043d6 <HAL_RCCEx_PeriphCLKConfig+0x62>
 800438e:	2a00      	cmp	r2, #0
 8004390:	f000 83dc 	beq.w	8004b4c <HAL_RCCEx_PeriphCLKConfig+0x7d8>
 8004394:	f5b2 1f80 	cmp.w	r2, #1048576	; 0x100000
 8004398:	d120      	bne.n	80043dc <HAL_RCCEx_PeriphCLKConfig+0x68>
 800439a:	2102      	movs	r1, #2
 800439c:	3004      	adds	r0, #4
 800439e:	f7ff fef1 	bl	8004184 <RCCEx_PLL2_Config>
 80043a2:	4606      	mov	r6, r0
 80043a4:	2e00      	cmp	r6, #0
 80043a6:	f040 849f 	bne.w	8004ce8 <HAL_RCCEx_PeriphCLKConfig+0x974>
 80043aa:	6e62      	ldr	r2, [r4, #100]	; 0x64
 80043ac:	6823      	ldr	r3, [r4, #0]
 80043ae:	48ab      	ldr	r0, [pc, #684]	; (800465c <HAL_RCCEx_PeriphCLKConfig+0x2e8>)
 80043b0:	2600      	movs	r6, #0
 80043b2:	6d01      	ldr	r1, [r0, #80]	; 0x50
 80043b4:	f421 1140 	bic.w	r1, r1, #3145728	; 0x300000
 80043b8:	430a      	orrs	r2, r1
 80043ba:	6502      	str	r2, [r0, #80]	; 0x50
 80043bc:	05dd      	lsls	r5, r3, #23
 80043be:	d511      	bpl.n	80043e4 <HAL_RCCEx_PeriphCLKConfig+0x70>
 80043c0:	6d62      	ldr	r2, [r4, #84]	; 0x54
 80043c2:	2a04      	cmp	r2, #4
 80043c4:	f200 851c 	bhi.w	8004e00 <HAL_RCCEx_PeriphCLKConfig+0xa8c>
 80043c8:	e8df f012 	tbh	[pc, r2, lsl #1]
 80043cc:	0476046f 	.word	0x0476046f
 80043d0:	02d40486 	.word	0x02d40486
 80043d4:	02d4      	.short	0x02d4
 80043d6:	f5b2 1f40 	cmp.w	r2, #3145728	; 0x300000
 80043da:	d0e8      	beq.n	80043ae <HAL_RCCEx_PeriphCLKConfig+0x3a>
 80043dc:	05dd      	lsls	r5, r3, #23
 80043de:	f04f 0601 	mov.w	r6, #1
 80043e2:	d4ed      	bmi.n	80043c0 <HAL_RCCEx_PeriphCLKConfig+0x4c>
 80043e4:	4635      	mov	r5, r6
 80043e6:	0598      	lsls	r0, r3, #22
 80043e8:	d51b      	bpl.n	8004422 <HAL_RCCEx_PeriphCLKConfig+0xae>
 80043ea:	6da2      	ldr	r2, [r4, #88]	; 0x58
 80043ec:	2a80      	cmp	r2, #128	; 0x80
 80043ee:	f000 8453 	beq.w	8004c98 <HAL_RCCEx_PeriphCLKConfig+0x924>
 80043f2:	f200 80ec 	bhi.w	80045ce <HAL_RCCEx_PeriphCLKConfig+0x25a>
 80043f6:	2a00      	cmp	r2, #0
 80043f8:	f000 83a2 	beq.w	8004b40 <HAL_RCCEx_PeriphCLKConfig+0x7cc>
 80043fc:	2a40      	cmp	r2, #64	; 0x40
 80043fe:	f040 80ed 	bne.w	80045dc <HAL_RCCEx_PeriphCLKConfig+0x268>
 8004402:	2100      	movs	r1, #0
 8004404:	1d20      	adds	r0, r4, #4
 8004406:	f7ff febd 	bl	8004184 <RCCEx_PLL2_Config>
 800440a:	6823      	ldr	r3, [r4, #0]
 800440c:	4605      	mov	r5, r0
 800440e:	2d00      	cmp	r5, #0
 8004410:	f040 8386 	bne.w	8004b20 <HAL_RCCEx_PeriphCLKConfig+0x7ac>
 8004414:	4991      	ldr	r1, [pc, #580]	; (800465c <HAL_RCCEx_PeriphCLKConfig+0x2e8>)
 8004416:	6da0      	ldr	r0, [r4, #88]	; 0x58
 8004418:	6d0a      	ldr	r2, [r1, #80]	; 0x50
 800441a:	f422 72e0 	bic.w	r2, r2, #448	; 0x1c0
 800441e:	4302      	orrs	r2, r0
 8004420:	650a      	str	r2, [r1, #80]	; 0x50
 8004422:	0559      	lsls	r1, r3, #21
 8004424:	d51f      	bpl.n	8004466 <HAL_RCCEx_PeriphCLKConfig+0xf2>
 8004426:	f8d4 20a4 	ldr.w	r2, [r4, #164]	; 0xa4
 800442a:	f5b2 0f80 	cmp.w	r2, #4194304	; 0x400000
 800442e:	f000 844a 	beq.w	8004cc6 <HAL_RCCEx_PeriphCLKConfig+0x952>
 8004432:	f200 80d6 	bhi.w	80045e2 <HAL_RCCEx_PeriphCLKConfig+0x26e>
 8004436:	2a00      	cmp	r2, #0
 8004438:	f000 837c 	beq.w	8004b34 <HAL_RCCEx_PeriphCLKConfig+0x7c0>
 800443c:	f5b2 1f00 	cmp.w	r2, #2097152	; 0x200000
 8004440:	f040 80d7 	bne.w	80045f2 <HAL_RCCEx_PeriphCLKConfig+0x27e>
 8004444:	2100      	movs	r1, #0
 8004446:	1d20      	adds	r0, r4, #4
 8004448:	f7ff fe9c 	bl	8004184 <RCCEx_PLL2_Config>
 800444c:	6823      	ldr	r3, [r4, #0]
 800444e:	4605      	mov	r5, r0
 8004450:	2d00      	cmp	r5, #0
 8004452:	f040 8367 	bne.w	8004b24 <HAL_RCCEx_PeriphCLKConfig+0x7b0>
 8004456:	4981      	ldr	r1, [pc, #516]	; (800465c <HAL_RCCEx_PeriphCLKConfig+0x2e8>)
 8004458:	f8d4 00a4 	ldr.w	r0, [r4, #164]	; 0xa4
 800445c:	6d8a      	ldr	r2, [r1, #88]	; 0x58
 800445e:	f422 0260 	bic.w	r2, r2, #14680064	; 0xe00000
 8004462:	4302      	orrs	r2, r0
 8004464:	658a      	str	r2, [r1, #88]	; 0x58
 8004466:	051a      	lsls	r2, r3, #20
 8004468:	d51f      	bpl.n	80044aa <HAL_RCCEx_PeriphCLKConfig+0x136>
 800446a:	f8d4 20a8 	ldr.w	r2, [r4, #168]	; 0xa8
 800446e:	f1b2 7f00 	cmp.w	r2, #33554432	; 0x2000000
 8004472:	f000 843c 	beq.w	8004cee <HAL_RCCEx_PeriphCLKConfig+0x97a>
 8004476:	f200 80bf 	bhi.w	80045f8 <HAL_RCCEx_PeriphCLKConfig+0x284>
 800447a:	2a00      	cmp	r2, #0
 800447c:	f000 836c 	beq.w	8004b58 <HAL_RCCEx_PeriphCLKConfig+0x7e4>
 8004480:	f1b2 7f80 	cmp.w	r2, #16777216	; 0x1000000
 8004484:	f040 80c0 	bne.w	8004608 <HAL_RCCEx_PeriphCLKConfig+0x294>
 8004488:	2100      	movs	r1, #0
 800448a:	1d20      	adds	r0, r4, #4
 800448c:	f7ff fe7a 	bl	8004184 <RCCEx_PLL2_Config>
 8004490:	6823      	ldr	r3, [r4, #0]
 8004492:	4605      	mov	r5, r0
 8004494:	2d00      	cmp	r5, #0
 8004496:	f040 833f 	bne.w	8004b18 <HAL_RCCEx_PeriphCLKConfig+0x7a4>
 800449a:	4970      	ldr	r1, [pc, #448]	; (800465c <HAL_RCCEx_PeriphCLKConfig+0x2e8>)
 800449c:	f8d4 00a8 	ldr.w	r0, [r4, #168]	; 0xa8
 80044a0:	6d8a      	ldr	r2, [r1, #88]	; 0x58
 80044a2:	f022 62e0 	bic.w	r2, r2, #117440512	; 0x7000000
 80044a6:	4302      	orrs	r2, r0
 80044a8:	658a      	str	r2, [r1, #88]	; 0x58
 80044aa:	019f      	lsls	r7, r3, #6
 80044ac:	d518      	bpl.n	80044e0 <HAL_RCCEx_PeriphCLKConfig+0x16c>
 80044ae:	6ca2      	ldr	r2, [r4, #72]	; 0x48
 80044b0:	2a20      	cmp	r2, #32
 80044b2:	f000 8392 	beq.w	8004bda <HAL_RCCEx_PeriphCLKConfig+0x866>
 80044b6:	f200 80aa 	bhi.w	800460e <HAL_RCCEx_PeriphCLKConfig+0x29a>
 80044ba:	b13a      	cbz	r2, 80044cc <HAL_RCCEx_PeriphCLKConfig+0x158>
 80044bc:	2a10      	cmp	r2, #16
 80044be:	f040 80a9 	bne.w	8004614 <HAL_RCCEx_PeriphCLKConfig+0x2a0>
 80044c2:	4966      	ldr	r1, [pc, #408]	; (800465c <HAL_RCCEx_PeriphCLKConfig+0x2e8>)
 80044c4:	6aca      	ldr	r2, [r1, #44]	; 0x2c
 80044c6:	f442 3200 	orr.w	r2, r2, #131072	; 0x20000
 80044ca:	62ca      	str	r2, [r1, #44]	; 0x2c
 80044cc:	2d00      	cmp	r5, #0
 80044ce:	f040 8366 	bne.w	8004b9e <HAL_RCCEx_PeriphCLKConfig+0x82a>
 80044d2:	4962      	ldr	r1, [pc, #392]	; (800465c <HAL_RCCEx_PeriphCLKConfig+0x2e8>)
 80044d4:	6ca0      	ldr	r0, [r4, #72]	; 0x48
 80044d6:	6cca      	ldr	r2, [r1, #76]	; 0x4c
 80044d8:	f022 0230 	bic.w	r2, r2, #48	; 0x30
 80044dc:	4302      	orrs	r2, r0
 80044de:	64ca      	str	r2, [r1, #76]	; 0x4c
 80044e0:	04d8      	lsls	r0, r3, #19
 80044e2:	d51d      	bpl.n	8004520 <HAL_RCCEx_PeriphCLKConfig+0x1ac>
 80044e4:	6de2      	ldr	r2, [r4, #92]	; 0x5c
 80044e6:	f5b2 5f00 	cmp.w	r2, #8192	; 0x2000
 80044ea:	f000 83cd 	beq.w	8004c88 <HAL_RCCEx_PeriphCLKConfig+0x914>
 80044ee:	f200 8094 	bhi.w	800461a <HAL_RCCEx_PeriphCLKConfig+0x2a6>
 80044f2:	2a00      	cmp	r2, #0
 80044f4:	f000 8318 	beq.w	8004b28 <HAL_RCCEx_PeriphCLKConfig+0x7b4>
 80044f8:	f5b2 5f80 	cmp.w	r2, #4096	; 0x1000
 80044fc:	f040 8095 	bne.w	800462a <HAL_RCCEx_PeriphCLKConfig+0x2b6>
 8004500:	2100      	movs	r1, #0
 8004502:	1d20      	adds	r0, r4, #4
 8004504:	f7ff fe3e 	bl	8004184 <RCCEx_PLL2_Config>
 8004508:	6823      	ldr	r3, [r4, #0]
 800450a:	4605      	mov	r5, r0
 800450c:	2d00      	cmp	r5, #0
 800450e:	f040 8305 	bne.w	8004b1c <HAL_RCCEx_PeriphCLKConfig+0x7a8>
 8004512:	4952      	ldr	r1, [pc, #328]	; (800465c <HAL_RCCEx_PeriphCLKConfig+0x2e8>)
 8004514:	6de0      	ldr	r0, [r4, #92]	; 0x5c
 8004516:	6d0a      	ldr	r2, [r1, #80]	; 0x50
 8004518:	f422 42e0 	bic.w	r2, r2, #28672	; 0x7000
 800451c:	4302      	orrs	r2, r0
 800451e:	650a      	str	r2, [r1, #80]	; 0x50
 8004520:	0499      	lsls	r1, r3, #18
 8004522:	d51a      	bpl.n	800455a <HAL_RCCEx_PeriphCLKConfig+0x1e6>
 8004524:	6e22      	ldr	r2, [r4, #96]	; 0x60
 8004526:	f5b2 3f00 	cmp.w	r2, #131072	; 0x20000
 800452a:	f000 8398 	beq.w	8004c5e <HAL_RCCEx_PeriphCLKConfig+0x8ea>
 800452e:	d87f      	bhi.n	8004630 <HAL_RCCEx_PeriphCLKConfig+0x2bc>
 8004530:	b14a      	cbz	r2, 8004546 <HAL_RCCEx_PeriphCLKConfig+0x1d2>
 8004532:	f5b2 3f80 	cmp.w	r2, #65536	; 0x10000
 8004536:	f040 8083 	bne.w	8004640 <HAL_RCCEx_PeriphCLKConfig+0x2cc>
 800453a:	2101      	movs	r1, #1
 800453c:	1d20      	adds	r0, r4, #4
 800453e:	f7ff fe21 	bl	8004184 <RCCEx_PLL2_Config>
 8004542:	6823      	ldr	r3, [r4, #0]
 8004544:	4605      	mov	r5, r0
 8004546:	2d00      	cmp	r5, #0
 8004548:	f040 832b 	bne.w	8004ba2 <HAL_RCCEx_PeriphCLKConfig+0x82e>
 800454c:	4943      	ldr	r1, [pc, #268]	; (800465c <HAL_RCCEx_PeriphCLKConfig+0x2e8>)
 800454e:	6e20      	ldr	r0, [r4, #96]	; 0x60
 8004550:	6d0a      	ldr	r2, [r1, #80]	; 0x50
 8004552:	f422 22e0 	bic.w	r2, r2, #458752	; 0x70000
 8004556:	4302      	orrs	r2, r0
 8004558:	650a      	str	r2, [r1, #80]	; 0x50
 800455a:	045a      	lsls	r2, r3, #17
 800455c:	d51b      	bpl.n	8004596 <HAL_RCCEx_PeriphCLKConfig+0x222>
 800455e:	f8d4 20ac 	ldr.w	r2, [r4, #172]	; 0xac
 8004562:	f1b2 5f00 	cmp.w	r2, #536870912	; 0x20000000
 8004566:	f000 834a 	beq.w	8004bfe <HAL_RCCEx_PeriphCLKConfig+0x88a>
 800456a:	d86c      	bhi.n	8004646 <HAL_RCCEx_PeriphCLKConfig+0x2d2>
 800456c:	b142      	cbz	r2, 8004580 <HAL_RCCEx_PeriphCLKConfig+0x20c>
 800456e:	f1b2 5f80 	cmp.w	r2, #268435456	; 0x10000000
 8004572:	d170      	bne.n	8004656 <HAL_RCCEx_PeriphCLKConfig+0x2e2>
 8004574:	2101      	movs	r1, #1
 8004576:	1d20      	adds	r0, r4, #4
 8004578:	f7ff fe04 	bl	8004184 <RCCEx_PLL2_Config>
 800457c:	6823      	ldr	r3, [r4, #0]
 800457e:	4605      	mov	r5, r0
 8004580:	2d00      	cmp	r5, #0
 8004582:	f040 8302 	bne.w	8004b8a <HAL_RCCEx_PeriphCLKConfig+0x816>
 8004586:	4935      	ldr	r1, [pc, #212]	; (800465c <HAL_RCCEx_PeriphCLKConfig+0x2e8>)
 8004588:	f8d4 00ac 	ldr.w	r0, [r4, #172]	; 0xac
 800458c:	6d8a      	ldr	r2, [r1, #88]	; 0x58
 800458e:	f022 42e0 	bic.w	r2, r2, #1879048192	; 0x70000000
 8004592:	4302      	orrs	r2, r0
 8004594:	658a      	str	r2, [r1, #88]	; 0x58
 8004596:	041f      	lsls	r7, r3, #16
 8004598:	d50d      	bpl.n	80045b6 <HAL_RCCEx_PeriphCLKConfig+0x242>
 800459a:	6ee2      	ldr	r2, [r4, #108]	; 0x6c
 800459c:	f1b2 5f80 	cmp.w	r2, #268435456	; 0x10000000
 80045a0:	f000 834b 	beq.w	8004c3a <HAL_RCCEx_PeriphCLKConfig+0x8c6>
 80045a4:	f1b2 5f00 	cmp.w	r2, #536870912	; 0x20000000
 80045a8:	f000 81f0 	beq.w	800498c <HAL_RCCEx_PeriphCLKConfig+0x618>
 80045ac:	2a00      	cmp	r2, #0
 80045ae:	f000 81f3 	beq.w	8004998 <HAL_RCCEx_PeriphCLKConfig+0x624>
 80045b2:	2601      	movs	r6, #1
 80045b4:	4635      	mov	r5, r6
 80045b6:	01d8      	lsls	r0, r3, #7
 80045b8:	d55c      	bpl.n	8004674 <HAL_RCCEx_PeriphCLKConfig+0x300>
 80045ba:	6c62      	ldr	r2, [r4, #68]	; 0x44
 80045bc:	2a03      	cmp	r2, #3
 80045be:	f200 8425 	bhi.w	8004e0c <HAL_RCCEx_PeriphCLKConfig+0xa98>
 80045c2:	e8df f012 	tbh	[pc, r2, lsl #1]
 80045c6:	0053      	.short	0x0053
 80045c8:	004d0313 	.word	0x004d0313
 80045cc:	0053      	.short	0x0053
 80045ce:	2ac0      	cmp	r2, #192	; 0xc0
 80045d0:	f43f af1d 	beq.w	800440e <HAL_RCCEx_PeriphCLKConfig+0x9a>
 80045d4:	f5b2 7f80 	cmp.w	r2, #256	; 0x100
 80045d8:	f43f af19 	beq.w	800440e <HAL_RCCEx_PeriphCLKConfig+0x9a>
 80045dc:	2601      	movs	r6, #1
 80045de:	4635      	mov	r5, r6
 80045e0:	e71f      	b.n	8004422 <HAL_RCCEx_PeriphCLKConfig+0xae>
 80045e2:	f5b2 0fc0 	cmp.w	r2, #6291456	; 0x600000
 80045e6:	f43f af33 	beq.w	8004450 <HAL_RCCEx_PeriphCLKConfig+0xdc>
 80045ea:	f5b2 0f00 	cmp.w	r2, #8388608	; 0x800000
 80045ee:	f43f af2f 	beq.w	8004450 <HAL_RCCEx_PeriphCLKConfig+0xdc>
 80045f2:	2601      	movs	r6, #1
 80045f4:	4635      	mov	r5, r6
 80045f6:	e736      	b.n	8004466 <HAL_RCCEx_PeriphCLKConfig+0xf2>
 80045f8:	f1b2 7f40 	cmp.w	r2, #50331648	; 0x3000000
 80045fc:	f43f af4a 	beq.w	8004494 <HAL_RCCEx_PeriphCLKConfig+0x120>
 8004600:	f1b2 6f80 	cmp.w	r2, #67108864	; 0x4000000
 8004604:	f43f af46 	beq.w	8004494 <HAL_RCCEx_PeriphCLKConfig+0x120>
 8004608:	2601      	movs	r6, #1
 800460a:	4635      	mov	r5, r6
 800460c:	e74d      	b.n	80044aa <HAL_RCCEx_PeriphCLKConfig+0x136>
 800460e:	2a30      	cmp	r2, #48	; 0x30
 8004610:	f43f af5c 	beq.w	80044cc <HAL_RCCEx_PeriphCLKConfig+0x158>
 8004614:	2601      	movs	r6, #1
 8004616:	4635      	mov	r5, r6
 8004618:	e762      	b.n	80044e0 <HAL_RCCEx_PeriphCLKConfig+0x16c>
 800461a:	f5b2 5f40 	cmp.w	r2, #12288	; 0x3000
 800461e:	f43f af75 	beq.w	800450c <HAL_RCCEx_PeriphCLKConfig+0x198>
 8004622:	f5b2 4f80 	cmp.w	r2, #16384	; 0x4000
 8004626:	f43f af71 	beq.w	800450c <HAL_RCCEx_PeriphCLKConfig+0x198>
 800462a:	2601      	movs	r6, #1
 800462c:	4635      	mov	r5, r6
 800462e:	e777      	b.n	8004520 <HAL_RCCEx_PeriphCLKConfig+0x1ac>
 8004630:	f422 3180 	bic.w	r1, r2, #65536	; 0x10000
 8004634:	f5b1 2f80 	cmp.w	r1, #262144	; 0x40000
 8004638:	d085      	beq.n	8004546 <HAL_RCCEx_PeriphCLKConfig+0x1d2>
 800463a:	f5b2 3f40 	cmp.w	r2, #196608	; 0x30000
 800463e:	d082      	beq.n	8004546 <HAL_RCCEx_PeriphCLKConfig+0x1d2>
 8004640:	2601      	movs	r6, #1
 8004642:	4635      	mov	r5, r6
 8004644:	e789      	b.n	800455a <HAL_RCCEx_PeriphCLKConfig+0x1e6>
 8004646:	f022 5180 	bic.w	r1, r2, #268435456	; 0x10000000
 800464a:	f1b1 4f80 	cmp.w	r1, #1073741824	; 0x40000000
 800464e:	d097      	beq.n	8004580 <HAL_RCCEx_PeriphCLKConfig+0x20c>
 8004650:	f1b2 5f40 	cmp.w	r2, #805306368	; 0x30000000
 8004654:	d094      	beq.n	8004580 <HAL_RCCEx_PeriphCLKConfig+0x20c>
 8004656:	2601      	movs	r6, #1
 8004658:	4635      	mov	r5, r6
 800465a:	e79c      	b.n	8004596 <HAL_RCCEx_PeriphCLKConfig+0x222>
 800465c:	58024400 	.word	0x58024400
 8004660:	2102      	movs	r1, #2
 8004662:	1d20      	adds	r0, r4, #4
 8004664:	f7ff fd8e 	bl	8004184 <RCCEx_PLL2_Config>
 8004668:	6823      	ldr	r3, [r4, #0]
 800466a:	4605      	mov	r5, r0
 800466c:	2d00      	cmp	r5, #0
 800466e:	f000 828e 	beq.w	8004b8e <HAL_RCCEx_PeriphCLKConfig+0x81a>
 8004672:	462e      	mov	r6, r5
 8004674:	0259      	lsls	r1, r3, #9
 8004676:	f100 8208 	bmi.w	8004a8a <HAL_RCCEx_PeriphCLKConfig+0x716>
 800467a:	07df      	lsls	r7, r3, #31
 800467c:	d539      	bpl.n	80046f2 <HAL_RCCEx_PeriphCLKConfig+0x37e>
 800467e:	6fa2      	ldr	r2, [r4, #120]	; 0x78
 8004680:	2a28      	cmp	r2, #40	; 0x28
 8004682:	f200 8174 	bhi.w	800496e <HAL_RCCEx_PeriphCLKConfig+0x5fa>
 8004686:	e8df f012 	tbh	[pc, r2, lsl #1]
 800468a:	0030      	.short	0x0030
 800468c:	01720172 	.word	0x01720172
 8004690:	01720172 	.word	0x01720172
 8004694:	01720172 	.word	0x01720172
 8004698:	03580172 	.word	0x03580172
 800469c:	01720172 	.word	0x01720172
 80046a0:	01720172 	.word	0x01720172
 80046a4:	01720172 	.word	0x01720172
 80046a8:	00290172 	.word	0x00290172
 80046ac:	01720172 	.word	0x01720172
 80046b0:	01720172 	.word	0x01720172
 80046b4:	01720172 	.word	0x01720172
 80046b8:	00300172 	.word	0x00300172
 80046bc:	01720172 	.word	0x01720172
 80046c0:	01720172 	.word	0x01720172
 80046c4:	01720172 	.word	0x01720172
 80046c8:	00300172 	.word	0x00300172
 80046cc:	01720172 	.word	0x01720172
 80046d0:	01720172 	.word	0x01720172
 80046d4:	01720172 	.word	0x01720172
 80046d8:	00300172 	.word	0x00300172
 80046dc:	2101      	movs	r1, #1
 80046de:	f104 0024 	add.w	r0, r4, #36	; 0x24
 80046e2:	f7ff fdcb 	bl	800427c <RCCEx_PLL3_Config>
 80046e6:	6823      	ldr	r3, [r4, #0]
 80046e8:	4605      	mov	r5, r0
 80046ea:	2d00      	cmp	r5, #0
 80046ec:	f000 826b 	beq.w	8004bc6 <HAL_RCCEx_PeriphCLKConfig+0x852>
 80046f0:	462e      	mov	r6, r5
 80046f2:	0798      	lsls	r0, r3, #30
 80046f4:	d516      	bpl.n	8004724 <HAL_RCCEx_PeriphCLKConfig+0x3b0>
 80046f6:	6f62      	ldr	r2, [r4, #116]	; 0x74
 80046f8:	2a05      	cmp	r2, #5
 80046fa:	f200 8384 	bhi.w	8004e06 <HAL_RCCEx_PeriphCLKConfig+0xa92>
 80046fe:	e8df f012 	tbh	[pc, r2, lsl #1]
 8004702:	000d      	.short	0x000d
 8004704:	00060308 	.word	0x00060308
 8004708:	000d000d 	.word	0x000d000d
 800470c:	000d      	.short	0x000d
 800470e:	2101      	movs	r1, #1
 8004710:	f104 0024 	add.w	r0, r4, #36	; 0x24
 8004714:	f7ff fdb2 	bl	800427c <RCCEx_PLL3_Config>
 8004718:	6823      	ldr	r3, [r4, #0]
 800471a:	4605      	mov	r5, r0
 800471c:	2d00      	cmp	r5, #0
 800471e:	f000 822c 	beq.w	8004b7a <HAL_RCCEx_PeriphCLKConfig+0x806>
 8004722:	462e      	mov	r6, r5
 8004724:	0759      	lsls	r1, r3, #29
 8004726:	d517      	bpl.n	8004758 <HAL_RCCEx_PeriphCLKConfig+0x3e4>
 8004728:	f8d4 2090 	ldr.w	r2, [r4, #144]	; 0x90
 800472c:	2a05      	cmp	r2, #5
 800472e:	f200 8370 	bhi.w	8004e12 <HAL_RCCEx_PeriphCLKConfig+0xa9e>
 8004732:	e8df f012 	tbh	[pc, r2, lsl #1]
 8004736:	000d      	.short	0x000d
 8004738:	000602f8 	.word	0x000602f8
 800473c:	000d000d 	.word	0x000d000d
 8004740:	000d      	.short	0x000d
 8004742:	2101      	movs	r1, #1
 8004744:	f104 0024 	add.w	r0, r4, #36	; 0x24
 8004748:	f7ff fd98 	bl	800427c <RCCEx_PLL3_Config>
 800474c:	6823      	ldr	r3, [r4, #0]
 800474e:	4605      	mov	r5, r0
 8004750:	2d00      	cmp	r5, #0
 8004752:	f000 8209 	beq.w	8004b68 <HAL_RCCEx_PeriphCLKConfig+0x7f4>
 8004756:	462e      	mov	r6, r5
 8004758:	069a      	lsls	r2, r3, #26
 800475a:	d51d      	bpl.n	8004798 <HAL_RCCEx_PeriphCLKConfig+0x424>
 800475c:	f8d4 208c 	ldr.w	r2, [r4, #140]	; 0x8c
 8004760:	f1b2 5f00 	cmp.w	r2, #536870912	; 0x20000000
 8004764:	f000 8271 	beq.w	8004c4a <HAL_RCCEx_PeriphCLKConfig+0x8d6>
 8004768:	f200 8121 	bhi.w	80049ae <HAL_RCCEx_PeriphCLKConfig+0x63a>
 800476c:	b14a      	cbz	r2, 8004782 <HAL_RCCEx_PeriphCLKConfig+0x40e>
 800476e:	f1b2 5f80 	cmp.w	r2, #268435456	; 0x10000000
 8004772:	f040 8126 	bne.w	80049c2 <HAL_RCCEx_PeriphCLKConfig+0x64e>
 8004776:	2100      	movs	r1, #0
 8004778:	1d20      	adds	r0, r4, #4
 800477a:	f7ff fd03 	bl	8004184 <RCCEx_PLL2_Config>
 800477e:	6823      	ldr	r3, [r4, #0]
 8004780:	4605      	mov	r5, r0
 8004782:	2d00      	cmp	r5, #0
 8004784:	f040 8213 	bne.w	8004bae <HAL_RCCEx_PeriphCLKConfig+0x83a>
 8004788:	49b9      	ldr	r1, [pc, #740]	; (8004a70 <HAL_RCCEx_PeriphCLKConfig+0x6fc>)
 800478a:	f8d4 008c 	ldr.w	r0, [r4, #140]	; 0x8c
 800478e:	6d4a      	ldr	r2, [r1, #84]	; 0x54
 8004790:	f022 42e0 	bic.w	r2, r2, #1879048192	; 0x70000000
 8004794:	4302      	orrs	r2, r0
 8004796:	654a      	str	r2, [r1, #84]	; 0x54
 8004798:	065f      	lsls	r7, r3, #25
 800479a:	d51d      	bpl.n	80047d8 <HAL_RCCEx_PeriphCLKConfig+0x464>
 800479c:	f8d4 2098 	ldr.w	r2, [r4, #152]	; 0x98
 80047a0:	f5b2 6f00 	cmp.w	r2, #2048	; 0x800
 80047a4:	f000 823f 	beq.w	8004c26 <HAL_RCCEx_PeriphCLKConfig+0x8b2>
 80047a8:	f200 8129 	bhi.w	80049fe <HAL_RCCEx_PeriphCLKConfig+0x68a>
 80047ac:	b14a      	cbz	r2, 80047c2 <HAL_RCCEx_PeriphCLKConfig+0x44e>
 80047ae:	f5b2 6f80 	cmp.w	r2, #1024	; 0x400
 80047b2:	f040 812e 	bne.w	8004a12 <HAL_RCCEx_PeriphCLKConfig+0x69e>
 80047b6:	2100      	movs	r1, #0
 80047b8:	1d20      	adds	r0, r4, #4
 80047ba:	f7ff fce3 	bl	8004184 <RCCEx_PLL2_Config>
 80047be:	6823      	ldr	r3, [r4, #0]
 80047c0:	4605      	mov	r5, r0
 80047c2:	2d00      	cmp	r5, #0
 80047c4:	f040 81ef 	bne.w	8004ba6 <HAL_RCCEx_PeriphCLKConfig+0x832>
 80047c8:	49a9      	ldr	r1, [pc, #676]	; (8004a70 <HAL_RCCEx_PeriphCLKConfig+0x6fc>)
 80047ca:	f8d4 0098 	ldr.w	r0, [r4, #152]	; 0x98
 80047ce:	6d8a      	ldr	r2, [r1, #88]	; 0x58
 80047d0:	f422 52e0 	bic.w	r2, r2, #7168	; 0x1c00
 80047d4:	4302      	orrs	r2, r0
 80047d6:	658a      	str	r2, [r1, #88]	; 0x58
 80047d8:	0618      	lsls	r0, r3, #24
 80047da:	d51d      	bpl.n	8004818 <HAL_RCCEx_PeriphCLKConfig+0x4a4>
 80047dc:	f8d4 209c 	ldr.w	r2, [r4, #156]	; 0x9c
 80047e0:	f5b2 4f80 	cmp.w	r2, #16384	; 0x4000
 80047e4:	f000 8215 	beq.w	8004c12 <HAL_RCCEx_PeriphCLKConfig+0x89e>
 80047e8:	f200 80fc 	bhi.w	80049e4 <HAL_RCCEx_PeriphCLKConfig+0x670>
 80047ec:	b14a      	cbz	r2, 8004802 <HAL_RCCEx_PeriphCLKConfig+0x48e>
 80047ee:	f5b2 5f00 	cmp.w	r2, #8192	; 0x2000
 80047f2:	f040 8101 	bne.w	80049f8 <HAL_RCCEx_PeriphCLKConfig+0x684>
 80047f6:	2100      	movs	r1, #0
 80047f8:	1d20      	adds	r0, r4, #4
 80047fa:	f7ff fcc3 	bl	8004184 <RCCEx_PLL2_Config>
 80047fe:	6823      	ldr	r3, [r4, #0]
 8004800:	4605      	mov	r5, r0
 8004802:	2d00      	cmp	r5, #0
 8004804:	f040 81d1 	bne.w	8004baa <HAL_RCCEx_PeriphCLKConfig+0x836>
 8004808:	4999      	ldr	r1, [pc, #612]	; (8004a70 <HAL_RCCEx_PeriphCLKConfig+0x6fc>)
 800480a:	f8d4 009c 	ldr.w	r0, [r4, #156]	; 0x9c
 800480e:	6d8a      	ldr	r2, [r1, #88]	; 0x58
 8004810:	f422 4260 	bic.w	r2, r2, #57344	; 0xe000
 8004814:	4302      	orrs	r2, r0
 8004816:	658a      	str	r2, [r1, #88]	; 0x58
 8004818:	0719      	lsls	r1, r3, #28
 800481a:	d50b      	bpl.n	8004834 <HAL_RCCEx_PeriphCLKConfig+0x4c0>
 800481c:	f8d4 1080 	ldr.w	r1, [r4, #128]	; 0x80
 8004820:	f5b1 5f80 	cmp.w	r1, #4096	; 0x1000
 8004824:	f000 8225 	beq.w	8004c72 <HAL_RCCEx_PeriphCLKConfig+0x8fe>
 8004828:	4891      	ldr	r0, [pc, #580]	; (8004a70 <HAL_RCCEx_PeriphCLKConfig+0x6fc>)
 800482a:	6d42      	ldr	r2, [r0, #84]	; 0x54
 800482c:	f422 5240 	bic.w	r2, r2, #12288	; 0x3000
 8004830:	430a      	orrs	r2, r1
 8004832:	6542      	str	r2, [r0, #84]	; 0x54
 8004834:	06da      	lsls	r2, r3, #27
 8004836:	d50b      	bpl.n	8004850 <HAL_RCCEx_PeriphCLKConfig+0x4dc>
 8004838:	f8d4 1094 	ldr.w	r1, [r4, #148]	; 0x94
 800483c:	f5b1 7f80 	cmp.w	r1, #256	; 0x100
 8004840:	f000 82b2 	beq.w	8004da8 <HAL_RCCEx_PeriphCLKConfig+0xa34>
 8004844:	488a      	ldr	r0, [pc, #552]	; (8004a70 <HAL_RCCEx_PeriphCLKConfig+0x6fc>)
 8004846:	6d82      	ldr	r2, [r0, #88]	; 0x58
 8004848:	f422 7240 	bic.w	r2, r2, #768	; 0x300
 800484c:	430a      	orrs	r2, r1
 800484e:	6582      	str	r2, [r0, #88]	; 0x58
 8004850:	031f      	lsls	r7, r3, #12
 8004852:	d50e      	bpl.n	8004872 <HAL_RCCEx_PeriphCLKConfig+0x4fe>
 8004854:	f8d4 10a0 	ldr.w	r1, [r4, #160]	; 0xa0
 8004858:	f5b1 3f80 	cmp.w	r1, #65536	; 0x10000
 800485c:	f000 80f2 	beq.w	8004a44 <HAL_RCCEx_PeriphCLKConfig+0x6d0>
 8004860:	f5b1 3f00 	cmp.w	r1, #131072	; 0x20000
 8004864:	f000 80f5 	beq.w	8004a52 <HAL_RCCEx_PeriphCLKConfig+0x6de>
 8004868:	2900      	cmp	r1, #0
 800486a:	f000 828b 	beq.w	8004d84 <HAL_RCCEx_PeriphCLKConfig+0xa10>
 800486e:	2601      	movs	r6, #1
 8004870:	4635      	mov	r5, r6
 8004872:	0358      	lsls	r0, r3, #13
 8004874:	d50f      	bpl.n	8004896 <HAL_RCCEx_PeriphCLKConfig+0x522>
 8004876:	f8d4 2084 	ldr.w	r2, [r4, #132]	; 0x84
 800487a:	f5b2 1f00 	cmp.w	r2, #2097152	; 0x200000
 800487e:	f000 80cb 	beq.w	8004a18 <HAL_RCCEx_PeriphCLKConfig+0x6a4>
 8004882:	f5b2 1f40 	cmp.w	r2, #3145728	; 0x300000
 8004886:	f000 80ce 	beq.w	8004a26 <HAL_RCCEx_PeriphCLKConfig+0x6b2>
 800488a:	f5b2 1f80 	cmp.w	r2, #1048576	; 0x100000
 800488e:	f000 8282 	beq.w	8004d96 <HAL_RCCEx_PeriphCLKConfig+0xa22>
 8004892:	2601      	movs	r6, #1
 8004894:	4635      	mov	r5, r6
 8004896:	03d9      	lsls	r1, r3, #15
 8004898:	d517      	bpl.n	80048ca <HAL_RCCEx_PeriphCLKConfig+0x556>
 800489a:	6ce2      	ldr	r2, [r4, #76]	; 0x4c
 800489c:	2a00      	cmp	r2, #0
 800489e:	f000 825f 	beq.w	8004d60 <HAL_RCCEx_PeriphCLKConfig+0x9ec>
 80048a2:	f5b2 3f80 	cmp.w	r2, #65536	; 0x10000
 80048a6:	f040 8132 	bne.w	8004b0e <HAL_RCCEx_PeriphCLKConfig+0x79a>
 80048aa:	2102      	movs	r1, #2
 80048ac:	1d20      	adds	r0, r4, #4
 80048ae:	f7ff fc69 	bl	8004184 <RCCEx_PLL2_Config>
 80048b2:	4605      	mov	r5, r0
 80048b4:	6823      	ldr	r3, [r4, #0]
 80048b6:	2d00      	cmp	r5, #0
 80048b8:	f040 818d 	bne.w	8004bd6 <HAL_RCCEx_PeriphCLKConfig+0x862>
 80048bc:	496c      	ldr	r1, [pc, #432]	; (8004a70 <HAL_RCCEx_PeriphCLKConfig+0x6fc>)
 80048be:	6ce0      	ldr	r0, [r4, #76]	; 0x4c
 80048c0:	6cca      	ldr	r2, [r1, #76]	; 0x4c
 80048c2:	f422 3280 	bic.w	r2, r2, #65536	; 0x10000
 80048c6:	4302      	orrs	r2, r0
 80048c8:	64ca      	str	r2, [r1, #76]	; 0x4c
 80048ca:	009a      	lsls	r2, r3, #2
 80048cc:	f100 80d2 	bmi.w	8004a74 <HAL_RCCEx_PeriphCLKConfig+0x700>
 80048d0:	039f      	lsls	r7, r3, #14
 80048d2:	d43f      	bmi.n	8004954 <HAL_RCCEx_PeriphCLKConfig+0x5e0>
 80048d4:	1e30      	subs	r0, r6, #0
 80048d6:	bf18      	it	ne
 80048d8:	2001      	movne	r0, #1
 80048da:	02de      	lsls	r6, r3, #11
 80048dc:	d506      	bpl.n	80048ec <HAL_RCCEx_PeriphCLKConfig+0x578>
 80048de:	4964      	ldr	r1, [pc, #400]	; (8004a70 <HAL_RCCEx_PeriphCLKConfig+0x6fc>)
 80048e0:	6f25      	ldr	r5, [r4, #112]	; 0x70
 80048e2:	6d0a      	ldr	r2, [r1, #80]	; 0x50
 80048e4:	f022 4200 	bic.w	r2, r2, #2147483648	; 0x80000000
 80048e8:	432a      	orrs	r2, r5
 80048ea:	650a      	str	r2, [r1, #80]	; 0x50
 80048ec:	00dd      	lsls	r5, r3, #3
 80048ee:	d507      	bpl.n	8004900 <HAL_RCCEx_PeriphCLKConfig+0x58c>
 80048f0:	495f      	ldr	r1, [pc, #380]	; (8004a70 <HAL_RCCEx_PeriphCLKConfig+0x6fc>)
 80048f2:	f8d4 50b4 	ldr.w	r5, [r4, #180]	; 0xb4
 80048f6:	690a      	ldr	r2, [r1, #16]
 80048f8:	f422 4280 	bic.w	r2, r2, #16384	; 0x4000
 80048fc:	432a      	orrs	r2, r5
 80048fe:	610a      	str	r2, [r1, #16]
 8004900:	0299      	lsls	r1, r3, #10
 8004902:	d506      	bpl.n	8004912 <HAL_RCCEx_PeriphCLKConfig+0x59e>
 8004904:	495a      	ldr	r1, [pc, #360]	; (8004a70 <HAL_RCCEx_PeriphCLKConfig+0x6fc>)
 8004906:	6ea5      	ldr	r5, [r4, #104]	; 0x68
 8004908:	6d0a      	ldr	r2, [r1, #80]	; 0x50
 800490a:	f022 7280 	bic.w	r2, r2, #16777216	; 0x1000000
 800490e:	432a      	orrs	r2, r5
 8004910:	650a      	str	r2, [r1, #80]	; 0x50
 8004912:	005a      	lsls	r2, r3, #1
 8004914:	d509      	bpl.n	800492a <HAL_RCCEx_PeriphCLKConfig+0x5b6>
 8004916:	4a56      	ldr	r2, [pc, #344]	; (8004a70 <HAL_RCCEx_PeriphCLKConfig+0x6fc>)
 8004918:	6911      	ldr	r1, [r2, #16]
 800491a:	f421 4100 	bic.w	r1, r1, #32768	; 0x8000
 800491e:	6111      	str	r1, [r2, #16]
 8004920:	6911      	ldr	r1, [r2, #16]
 8004922:	f8d4 50b8 	ldr.w	r5, [r4, #184]	; 0xb8
 8004926:	4329      	orrs	r1, r5
 8004928:	6111      	str	r1, [r2, #16]
 800492a:	2b00      	cmp	r3, #0
 800492c:	da06      	bge.n	800493c <HAL_RCCEx_PeriphCLKConfig+0x5c8>
 800492e:	4950      	ldr	r1, [pc, #320]	; (8004a70 <HAL_RCCEx_PeriphCLKConfig+0x6fc>)
 8004930:	6d25      	ldr	r5, [r4, #80]	; 0x50
 8004932:	6cca      	ldr	r2, [r1, #76]	; 0x4c
 8004934:	f022 5240 	bic.w	r2, r2, #805306368	; 0x30000000
 8004938:	432a      	orrs	r2, r5
 800493a:	64ca      	str	r2, [r1, #76]	; 0x4c
 800493c:	021b      	lsls	r3, r3, #8
 800493e:	d507      	bpl.n	8004950 <HAL_RCCEx_PeriphCLKConfig+0x5dc>
 8004940:	4a4b      	ldr	r2, [pc, #300]	; (8004a70 <HAL_RCCEx_PeriphCLKConfig+0x6fc>)
 8004942:	f8d4 1088 	ldr.w	r1, [r4, #136]	; 0x88
 8004946:	6d53      	ldr	r3, [r2, #84]	; 0x54
 8004948:	f423 0340 	bic.w	r3, r3, #12582912	; 0xc00000
 800494c:	430b      	orrs	r3, r1
 800494e:	6553      	str	r3, [r2, #84]	; 0x54
 8004950:	e8bd 83f8 	ldmia.w	sp!, {r3, r4, r5, r6, r7, r8, r9, pc}
 8004954:	6fe2      	ldr	r2, [r4, #124]	; 0x7c
 8004956:	f5b2 7f80 	cmp.w	r2, #256	; 0x100
 800495a:	f000 820a 	beq.w	8004d72 <HAL_RCCEx_PeriphCLKConfig+0x9fe>
 800495e:	d933      	bls.n	80049c8 <HAL_RCCEx_PeriphCLKConfig+0x654>
 8004960:	f422 7180 	bic.w	r1, r2, #256	; 0x100
 8004964:	f5b1 7f00 	cmp.w	r1, #512	; 0x200
 8004968:	d030      	beq.n	80049cc <HAL_RCCEx_PeriphCLKConfig+0x658>
 800496a:	2001      	movs	r0, #1
 800496c:	e7b5      	b.n	80048da <HAL_RCCEx_PeriphCLKConfig+0x566>
 800496e:	2601      	movs	r6, #1
 8004970:	4635      	mov	r5, r6
 8004972:	e6be      	b.n	80046f2 <HAL_RCCEx_PeriphCLKConfig+0x37e>
 8004974:	4635      	mov	r5, r6
 8004976:	2d00      	cmp	r5, #0
 8004978:	f040 80cc 	bne.w	8004b14 <HAL_RCCEx_PeriphCLKConfig+0x7a0>
 800497c:	493c      	ldr	r1, [pc, #240]	; (8004a70 <HAL_RCCEx_PeriphCLKConfig+0x6fc>)
 800497e:	6d60      	ldr	r0, [r4, #84]	; 0x54
 8004980:	6d0a      	ldr	r2, [r1, #80]	; 0x50
 8004982:	f022 0207 	bic.w	r2, r2, #7
 8004986:	4302      	orrs	r2, r0
 8004988:	650a      	str	r2, [r1, #80]	; 0x50
 800498a:	e52c      	b.n	80043e6 <HAL_RCCEx_PeriphCLKConfig+0x72>
 800498c:	2101      	movs	r1, #1
 800498e:	1d20      	adds	r0, r4, #4
 8004990:	f7ff fbf8 	bl	8004184 <RCCEx_PLL2_Config>
 8004994:	6823      	ldr	r3, [r4, #0]
 8004996:	4605      	mov	r5, r0
 8004998:	2d00      	cmp	r5, #0
 800499a:	f040 80e3 	bne.w	8004b64 <HAL_RCCEx_PeriphCLKConfig+0x7f0>
 800499e:	4934      	ldr	r1, [pc, #208]	; (8004a70 <HAL_RCCEx_PeriphCLKConfig+0x6fc>)
 80049a0:	6ee0      	ldr	r0, [r4, #108]	; 0x6c
 80049a2:	6d0a      	ldr	r2, [r1, #80]	; 0x50
 80049a4:	f022 5240 	bic.w	r2, r2, #805306368	; 0x30000000
 80049a8:	4302      	orrs	r2, r0
 80049aa:	650a      	str	r2, [r1, #80]	; 0x50
 80049ac:	e603      	b.n	80045b6 <HAL_RCCEx_PeriphCLKConfig+0x242>
 80049ae:	f022 5180 	bic.w	r1, r2, #268435456	; 0x10000000
 80049b2:	f1b1 4f80 	cmp.w	r1, #1073741824	; 0x40000000
 80049b6:	f43f aee4 	beq.w	8004782 <HAL_RCCEx_PeriphCLKConfig+0x40e>
 80049ba:	f1b2 5f40 	cmp.w	r2, #805306368	; 0x30000000
 80049be:	f43f aee0 	beq.w	8004782 <HAL_RCCEx_PeriphCLKConfig+0x40e>
 80049c2:	2601      	movs	r6, #1
 80049c4:	4635      	mov	r5, r6
 80049c6:	e6e7      	b.n	8004798 <HAL_RCCEx_PeriphCLKConfig+0x424>
 80049c8:	2a00      	cmp	r2, #0
 80049ca:	d1ce      	bne.n	800496a <HAL_RCCEx_PeriphCLKConfig+0x5f6>
 80049cc:	2d00      	cmp	r5, #0
 80049ce:	d1cc      	bne.n	800496a <HAL_RCCEx_PeriphCLKConfig+0x5f6>
 80049d0:	4d27      	ldr	r5, [pc, #156]	; (8004a70 <HAL_RCCEx_PeriphCLKConfig+0x6fc>)
 80049d2:	1e30      	subs	r0, r6, #0
 80049d4:	6d69      	ldr	r1, [r5, #84]	; 0x54
 80049d6:	bf18      	it	ne
 80049d8:	2001      	movne	r0, #1
 80049da:	f421 7140 	bic.w	r1, r1, #768	; 0x300
 80049de:	430a      	orrs	r2, r1
 80049e0:	656a      	str	r2, [r5, #84]	; 0x54
 80049e2:	e77a      	b.n	80048da <HAL_RCCEx_PeriphCLKConfig+0x566>
 80049e4:	f422 5100 	bic.w	r1, r2, #8192	; 0x2000
 80049e8:	f5b1 4f00 	cmp.w	r1, #32768	; 0x8000
 80049ec:	f43f af09 	beq.w	8004802 <HAL_RCCEx_PeriphCLKConfig+0x48e>
 80049f0:	f5b2 4fc0 	cmp.w	r2, #24576	; 0x6000
 80049f4:	f43f af05 	beq.w	8004802 <HAL_RCCEx_PeriphCLKConfig+0x48e>
 80049f8:	2601      	movs	r6, #1
 80049fa:	4635      	mov	r5, r6
 80049fc:	e70c      	b.n	8004818 <HAL_RCCEx_PeriphCLKConfig+0x4a4>
 80049fe:	f422 6180 	bic.w	r1, r2, #1024	; 0x400
 8004a02:	f5b1 5f80 	cmp.w	r1, #4096	; 0x1000
 8004a06:	f43f aedc 	beq.w	80047c2 <HAL_RCCEx_PeriphCLKConfig+0x44e>
 8004a0a:	f5b2 6f40 	cmp.w	r2, #3072	; 0xc00
 8004a0e:	f43f aed8 	beq.w	80047c2 <HAL_RCCEx_PeriphCLKConfig+0x44e>
 8004a12:	2601      	movs	r6, #1
 8004a14:	4635      	mov	r5, r6
 8004a16:	e6df      	b.n	80047d8 <HAL_RCCEx_PeriphCLKConfig+0x464>
 8004a18:	2101      	movs	r1, #1
 8004a1a:	f104 0024 	add.w	r0, r4, #36	; 0x24
 8004a1e:	f7ff fc2d 	bl	800427c <RCCEx_PLL3_Config>
 8004a22:	6823      	ldr	r3, [r4, #0]
 8004a24:	4605      	mov	r5, r0
 8004a26:	2d00      	cmp	r5, #0
 8004a28:	f040 80c8 	bne.w	8004bbc <HAL_RCCEx_PeriphCLKConfig+0x848>
 8004a2c:	4910      	ldr	r1, [pc, #64]	; (8004a70 <HAL_RCCEx_PeriphCLKConfig+0x6fc>)
 8004a2e:	f8d4 0084 	ldr.w	r0, [r4, #132]	; 0x84
 8004a32:	6d4a      	ldr	r2, [r1, #84]	; 0x54
 8004a34:	f422 1240 	bic.w	r2, r2, #3145728	; 0x300000
 8004a38:	4302      	orrs	r2, r0
 8004a3a:	654a      	str	r2, [r1, #84]	; 0x54
 8004a3c:	03d9      	lsls	r1, r3, #15
 8004a3e:	f57f af44 	bpl.w	80048ca <HAL_RCCEx_PeriphCLKConfig+0x556>
 8004a42:	e72a      	b.n	800489a <HAL_RCCEx_PeriphCLKConfig+0x526>
 8004a44:	2102      	movs	r1, #2
 8004a46:	f104 0024 	add.w	r0, r4, #36	; 0x24
 8004a4a:	f7ff fc17 	bl	800427c <RCCEx_PLL3_Config>
 8004a4e:	6823      	ldr	r3, [r4, #0]
 8004a50:	4605      	mov	r5, r0
 8004a52:	2d00      	cmp	r5, #0
 8004a54:	f040 80ad 	bne.w	8004bb2 <HAL_RCCEx_PeriphCLKConfig+0x83e>
 8004a58:	4905      	ldr	r1, [pc, #20]	; (8004a70 <HAL_RCCEx_PeriphCLKConfig+0x6fc>)
 8004a5a:	f8d4 00a0 	ldr.w	r0, [r4, #160]	; 0xa0
 8004a5e:	6d8a      	ldr	r2, [r1, #88]	; 0x58
 8004a60:	f422 3240 	bic.w	r2, r2, #196608	; 0x30000
 8004a64:	4302      	orrs	r2, r0
 8004a66:	0358      	lsls	r0, r3, #13
 8004a68:	658a      	str	r2, [r1, #88]	; 0x58
 8004a6a:	f57f af14 	bpl.w	8004896 <HAL_RCCEx_PeriphCLKConfig+0x522>
 8004a6e:	e702      	b.n	8004876 <HAL_RCCEx_PeriphCLKConfig+0x502>
 8004a70:	58024400 	.word	0x58024400
 8004a74:	2102      	movs	r1, #2
 8004a76:	f104 0024 	add.w	r0, r4, #36	; 0x24
 8004a7a:	f7ff fbff 	bl	800427c <RCCEx_PLL3_Config>
 8004a7e:	6823      	ldr	r3, [r4, #0]
 8004a80:	2800      	cmp	r0, #0
 8004a82:	f43f af25 	beq.w	80048d0 <HAL_RCCEx_PeriphCLKConfig+0x55c>
 8004a86:	2601      	movs	r6, #1
 8004a88:	e722      	b.n	80048d0 <HAL_RCCEx_PeriphCLKConfig+0x55c>
 8004a8a:	4bb3      	ldr	r3, [pc, #716]	; (8004d58 <HAL_RCCEx_PeriphCLKConfig+0x9e4>)
 8004a8c:	681a      	ldr	r2, [r3, #0]
 8004a8e:	4698      	mov	r8, r3
 8004a90:	f442 7280 	orr.w	r2, r2, #256	; 0x100
 8004a94:	601a      	str	r2, [r3, #0]
 8004a96:	f7fd f8ed 	bl	8001c74 <HAL_GetTick>
 8004a9a:	4607      	mov	r7, r0
 8004a9c:	e005      	b.n	8004aaa <HAL_RCCEx_PeriphCLKConfig+0x736>
 8004a9e:	f7fd f8e9 	bl	8001c74 <HAL_GetTick>
 8004aa2:	1bc0      	subs	r0, r0, r7
 8004aa4:	2864      	cmp	r0, #100	; 0x64
 8004aa6:	f200 8152 	bhi.w	8004d4e <HAL_RCCEx_PeriphCLKConfig+0x9da>
 8004aaa:	f8d8 3000 	ldr.w	r3, [r8]
 8004aae:	05da      	lsls	r2, r3, #23
 8004ab0:	d5f5      	bpl.n	8004a9e <HAL_RCCEx_PeriphCLKConfig+0x72a>
 8004ab2:	2d00      	cmp	r5, #0
 8004ab4:	f040 81a1 	bne.w	8004dfa <HAL_RCCEx_PeriphCLKConfig+0xa86>
 8004ab8:	4aa8      	ldr	r2, [pc, #672]	; (8004d5c <HAL_RCCEx_PeriphCLKConfig+0x9e8>)
 8004aba:	f8d4 30b0 	ldr.w	r3, [r4, #176]	; 0xb0
 8004abe:	6f11      	ldr	r1, [r2, #112]	; 0x70
 8004ac0:	4059      	eors	r1, r3
 8004ac2:	f411 7f40 	tst.w	r1, #768	; 0x300
 8004ac6:	d00b      	beq.n	8004ae0 <HAL_RCCEx_PeriphCLKConfig+0x76c>
 8004ac8:	6f11      	ldr	r1, [r2, #112]	; 0x70
 8004aca:	6f10      	ldr	r0, [r2, #112]	; 0x70
 8004acc:	f421 7140 	bic.w	r1, r1, #768	; 0x300
 8004ad0:	f440 3080 	orr.w	r0, r0, #65536	; 0x10000
 8004ad4:	6710      	str	r0, [r2, #112]	; 0x70
 8004ad6:	6f10      	ldr	r0, [r2, #112]	; 0x70
 8004ad8:	f420 3080 	bic.w	r0, r0, #65536	; 0x10000
 8004adc:	6710      	str	r0, [r2, #112]	; 0x70
 8004ade:	6711      	str	r1, [r2, #112]	; 0x70
 8004ae0:	f5b3 7f80 	cmp.w	r3, #256	; 0x100
 8004ae4:	f000 816b 	beq.w	8004dbe <HAL_RCCEx_PeriphCLKConfig+0xa4a>
 8004ae8:	f403 7240 	and.w	r2, r3, #768	; 0x300
 8004aec:	f5b2 7f40 	cmp.w	r2, #768	; 0x300
 8004af0:	f000 8179 	beq.w	8004de6 <HAL_RCCEx_PeriphCLKConfig+0xa72>
 8004af4:	4999      	ldr	r1, [pc, #612]	; (8004d5c <HAL_RCCEx_PeriphCLKConfig+0x9e8>)
 8004af6:	690a      	ldr	r2, [r1, #16]
 8004af8:	f422 527c 	bic.w	r2, r2, #16128	; 0x3f00
 8004afc:	610a      	str	r2, [r1, #16]
 8004afe:	4a97      	ldr	r2, [pc, #604]	; (8004d5c <HAL_RCCEx_PeriphCLKConfig+0x9e8>)
 8004b00:	f3c3 030b 	ubfx	r3, r3, #0, #12
 8004b04:	6f11      	ldr	r1, [r2, #112]	; 0x70
 8004b06:	430b      	orrs	r3, r1
 8004b08:	6713      	str	r3, [r2, #112]	; 0x70
 8004b0a:	6823      	ldr	r3, [r4, #0]
 8004b0c:	e5b5      	b.n	800467a <HAL_RCCEx_PeriphCLKConfig+0x306>
 8004b0e:	2601      	movs	r6, #1
 8004b10:	4635      	mov	r5, r6
 8004b12:	e6da      	b.n	80048ca <HAL_RCCEx_PeriphCLKConfig+0x556>
 8004b14:	462e      	mov	r6, r5
 8004b16:	e466      	b.n	80043e6 <HAL_RCCEx_PeriphCLKConfig+0x72>
 8004b18:	462e      	mov	r6, r5
 8004b1a:	e4c6      	b.n	80044aa <HAL_RCCEx_PeriphCLKConfig+0x136>
 8004b1c:	462e      	mov	r6, r5
 8004b1e:	e4ff      	b.n	8004520 <HAL_RCCEx_PeriphCLKConfig+0x1ac>
 8004b20:	462e      	mov	r6, r5
 8004b22:	e47e      	b.n	8004422 <HAL_RCCEx_PeriphCLKConfig+0xae>
 8004b24:	462e      	mov	r6, r5
 8004b26:	e49e      	b.n	8004466 <HAL_RCCEx_PeriphCLKConfig+0xf2>
 8004b28:	498c      	ldr	r1, [pc, #560]	; (8004d5c <HAL_RCCEx_PeriphCLKConfig+0x9e8>)
 8004b2a:	6aca      	ldr	r2, [r1, #44]	; 0x2c
 8004b2c:	f442 3200 	orr.w	r2, r2, #131072	; 0x20000
 8004b30:	62ca      	str	r2, [r1, #44]	; 0x2c
 8004b32:	e4eb      	b.n	800450c <HAL_RCCEx_PeriphCLKConfig+0x198>
 8004b34:	4989      	ldr	r1, [pc, #548]	; (8004d5c <HAL_RCCEx_PeriphCLKConfig+0x9e8>)
 8004b36:	6aca      	ldr	r2, [r1, #44]	; 0x2c
 8004b38:	f442 3200 	orr.w	r2, r2, #131072	; 0x20000
 8004b3c:	62ca      	str	r2, [r1, #44]	; 0x2c
 8004b3e:	e487      	b.n	8004450 <HAL_RCCEx_PeriphCLKConfig+0xdc>
 8004b40:	4986      	ldr	r1, [pc, #536]	; (8004d5c <HAL_RCCEx_PeriphCLKConfig+0x9e8>)
 8004b42:	6aca      	ldr	r2, [r1, #44]	; 0x2c
 8004b44:	f442 3200 	orr.w	r2, r2, #131072	; 0x20000
 8004b48:	62ca      	str	r2, [r1, #44]	; 0x2c
 8004b4a:	e460      	b.n	800440e <HAL_RCCEx_PeriphCLKConfig+0x9a>
 8004b4c:	4883      	ldr	r0, [pc, #524]	; (8004d5c <HAL_RCCEx_PeriphCLKConfig+0x9e8>)
 8004b4e:	6ac1      	ldr	r1, [r0, #44]	; 0x2c
 8004b50:	f441 3100 	orr.w	r1, r1, #131072	; 0x20000
 8004b54:	62c1      	str	r1, [r0, #44]	; 0x2c
 8004b56:	e42a      	b.n	80043ae <HAL_RCCEx_PeriphCLKConfig+0x3a>
 8004b58:	4980      	ldr	r1, [pc, #512]	; (8004d5c <HAL_RCCEx_PeriphCLKConfig+0x9e8>)
 8004b5a:	6aca      	ldr	r2, [r1, #44]	; 0x2c
 8004b5c:	f442 3200 	orr.w	r2, r2, #131072	; 0x20000
 8004b60:	62ca      	str	r2, [r1, #44]	; 0x2c
 8004b62:	e497      	b.n	8004494 <HAL_RCCEx_PeriphCLKConfig+0x120>
 8004b64:	462e      	mov	r6, r5
 8004b66:	e526      	b.n	80045b6 <HAL_RCCEx_PeriphCLKConfig+0x242>
 8004b68:	497c      	ldr	r1, [pc, #496]	; (8004d5c <HAL_RCCEx_PeriphCLKConfig+0x9e8>)
 8004b6a:	f8d4 0090 	ldr.w	r0, [r4, #144]	; 0x90
 8004b6e:	6d8a      	ldr	r2, [r1, #88]	; 0x58
 8004b70:	f022 0207 	bic.w	r2, r2, #7
 8004b74:	4302      	orrs	r2, r0
 8004b76:	658a      	str	r2, [r1, #88]	; 0x58
 8004b78:	e5ee      	b.n	8004758 <HAL_RCCEx_PeriphCLKConfig+0x3e4>
 8004b7a:	4978      	ldr	r1, [pc, #480]	; (8004d5c <HAL_RCCEx_PeriphCLKConfig+0x9e8>)
 8004b7c:	6f60      	ldr	r0, [r4, #116]	; 0x74
 8004b7e:	6d4a      	ldr	r2, [r1, #84]	; 0x54
 8004b80:	f022 0207 	bic.w	r2, r2, #7
 8004b84:	4302      	orrs	r2, r0
 8004b86:	654a      	str	r2, [r1, #84]	; 0x54
 8004b88:	e5cc      	b.n	8004724 <HAL_RCCEx_PeriphCLKConfig+0x3b0>
 8004b8a:	462e      	mov	r6, r5
 8004b8c:	e503      	b.n	8004596 <HAL_RCCEx_PeriphCLKConfig+0x222>
 8004b8e:	4973      	ldr	r1, [pc, #460]	; (8004d5c <HAL_RCCEx_PeriphCLKConfig+0x9e8>)
 8004b90:	6c60      	ldr	r0, [r4, #68]	; 0x44
 8004b92:	6cca      	ldr	r2, [r1, #76]	; 0x4c
 8004b94:	f022 0203 	bic.w	r2, r2, #3
 8004b98:	4302      	orrs	r2, r0
 8004b9a:	64ca      	str	r2, [r1, #76]	; 0x4c
 8004b9c:	e56a      	b.n	8004674 <HAL_RCCEx_PeriphCLKConfig+0x300>
 8004b9e:	462e      	mov	r6, r5
 8004ba0:	e49e      	b.n	80044e0 <HAL_RCCEx_PeriphCLKConfig+0x16c>
 8004ba2:	462e      	mov	r6, r5
 8004ba4:	e4d9      	b.n	800455a <HAL_RCCEx_PeriphCLKConfig+0x1e6>
 8004ba6:	462e      	mov	r6, r5
 8004ba8:	e616      	b.n	80047d8 <HAL_RCCEx_PeriphCLKConfig+0x464>
 8004baa:	462e      	mov	r6, r5
 8004bac:	e634      	b.n	8004818 <HAL_RCCEx_PeriphCLKConfig+0x4a4>
 8004bae:	462e      	mov	r6, r5
 8004bb0:	e5f2      	b.n	8004798 <HAL_RCCEx_PeriphCLKConfig+0x424>
 8004bb2:	0358      	lsls	r0, r3, #13
 8004bb4:	462e      	mov	r6, r5
 8004bb6:	f57f ae6e 	bpl.w	8004896 <HAL_RCCEx_PeriphCLKConfig+0x522>
 8004bba:	e65c      	b.n	8004876 <HAL_RCCEx_PeriphCLKConfig+0x502>
 8004bbc:	03d9      	lsls	r1, r3, #15
 8004bbe:	462e      	mov	r6, r5
 8004bc0:	f57f ae83 	bpl.w	80048ca <HAL_RCCEx_PeriphCLKConfig+0x556>
 8004bc4:	e669      	b.n	800489a <HAL_RCCEx_PeriphCLKConfig+0x526>
 8004bc6:	4965      	ldr	r1, [pc, #404]	; (8004d5c <HAL_RCCEx_PeriphCLKConfig+0x9e8>)
 8004bc8:	6fa0      	ldr	r0, [r4, #120]	; 0x78
 8004bca:	6d4a      	ldr	r2, [r1, #84]	; 0x54
 8004bcc:	f022 0238 	bic.w	r2, r2, #56	; 0x38
 8004bd0:	4302      	orrs	r2, r0
 8004bd2:	654a      	str	r2, [r1, #84]	; 0x54
 8004bd4:	e58d      	b.n	80046f2 <HAL_RCCEx_PeriphCLKConfig+0x37e>
 8004bd6:	462e      	mov	r6, r5
 8004bd8:	e677      	b.n	80048ca <HAL_RCCEx_PeriphCLKConfig+0x556>
 8004bda:	2102      	movs	r1, #2
 8004bdc:	1d20      	adds	r0, r4, #4
 8004bde:	f7ff fad1 	bl	8004184 <RCCEx_PLL2_Config>
 8004be2:	4605      	mov	r5, r0
 8004be4:	6823      	ldr	r3, [r4, #0]
 8004be6:	2d00      	cmp	r5, #0
 8004be8:	d1d9      	bne.n	8004b9e <HAL_RCCEx_PeriphCLKConfig+0x82a>
 8004bea:	e472      	b.n	80044d2 <HAL_RCCEx_PeriphCLKConfig+0x15e>
 8004bec:	495b      	ldr	r1, [pc, #364]	; (8004d5c <HAL_RCCEx_PeriphCLKConfig+0x9e8>)
 8004bee:	6aca      	ldr	r2, [r1, #44]	; 0x2c
 8004bf0:	f442 3200 	orr.w	r2, r2, #131072	; 0x20000
 8004bf4:	62ca      	str	r2, [r1, #44]	; 0x2c
 8004bf6:	2d00      	cmp	r5, #0
 8004bf8:	f47f ad3b 	bne.w	8004672 <HAL_RCCEx_PeriphCLKConfig+0x2fe>
 8004bfc:	e7c7      	b.n	8004b8e <HAL_RCCEx_PeriphCLKConfig+0x81a>
 8004bfe:	2101      	movs	r1, #1
 8004c00:	f104 0024 	add.w	r0, r4, #36	; 0x24
 8004c04:	f7ff fb3a 	bl	800427c <RCCEx_PLL3_Config>
 8004c08:	4605      	mov	r5, r0
 8004c0a:	6823      	ldr	r3, [r4, #0]
 8004c0c:	2d00      	cmp	r5, #0
 8004c0e:	d1bc      	bne.n	8004b8a <HAL_RCCEx_PeriphCLKConfig+0x816>
 8004c10:	e4b9      	b.n	8004586 <HAL_RCCEx_PeriphCLKConfig+0x212>
 8004c12:	2102      	movs	r1, #2
 8004c14:	f104 0024 	add.w	r0, r4, #36	; 0x24
 8004c18:	f7ff fb30 	bl	800427c <RCCEx_PLL3_Config>
 8004c1c:	4605      	mov	r5, r0
 8004c1e:	6823      	ldr	r3, [r4, #0]
 8004c20:	2d00      	cmp	r5, #0
 8004c22:	d1c2      	bne.n	8004baa <HAL_RCCEx_PeriphCLKConfig+0x836>
 8004c24:	e5f0      	b.n	8004808 <HAL_RCCEx_PeriphCLKConfig+0x494>
 8004c26:	2102      	movs	r1, #2
 8004c28:	f104 0024 	add.w	r0, r4, #36	; 0x24
 8004c2c:	f7ff fb26 	bl	800427c <RCCEx_PLL3_Config>
 8004c30:	4605      	mov	r5, r0
 8004c32:	6823      	ldr	r3, [r4, #0]
 8004c34:	2d00      	cmp	r5, #0
 8004c36:	d1b6      	bne.n	8004ba6 <HAL_RCCEx_PeriphCLKConfig+0x832>
 8004c38:	e5c6      	b.n	80047c8 <HAL_RCCEx_PeriphCLKConfig+0x454>
 8004c3a:	4948      	ldr	r1, [pc, #288]	; (8004d5c <HAL_RCCEx_PeriphCLKConfig+0x9e8>)
 8004c3c:	6aca      	ldr	r2, [r1, #44]	; 0x2c
 8004c3e:	f442 3200 	orr.w	r2, r2, #131072	; 0x20000
 8004c42:	62ca      	str	r2, [r1, #44]	; 0x2c
 8004c44:	2d00      	cmp	r5, #0
 8004c46:	d18d      	bne.n	8004b64 <HAL_RCCEx_PeriphCLKConfig+0x7f0>
 8004c48:	e6a9      	b.n	800499e <HAL_RCCEx_PeriphCLKConfig+0x62a>
 8004c4a:	2102      	movs	r1, #2
 8004c4c:	f104 0024 	add.w	r0, r4, #36	; 0x24
 8004c50:	f7ff fb14 	bl	800427c <RCCEx_PLL3_Config>
 8004c54:	4605      	mov	r5, r0
 8004c56:	6823      	ldr	r3, [r4, #0]
 8004c58:	2d00      	cmp	r5, #0
 8004c5a:	d1a8      	bne.n	8004bae <HAL_RCCEx_PeriphCLKConfig+0x83a>
 8004c5c:	e594      	b.n	8004788 <HAL_RCCEx_PeriphCLKConfig+0x414>
 8004c5e:	2101      	movs	r1, #1
 8004c60:	f104 0024 	add.w	r0, r4, #36	; 0x24
 8004c64:	f7ff fb0a 	bl	800427c <RCCEx_PLL3_Config>
 8004c68:	4605      	mov	r5, r0
 8004c6a:	6823      	ldr	r3, [r4, #0]
 8004c6c:	2d00      	cmp	r5, #0
 8004c6e:	d198      	bne.n	8004ba2 <HAL_RCCEx_PeriphCLKConfig+0x82e>
 8004c70:	e46c      	b.n	800454c <HAL_RCCEx_PeriphCLKConfig+0x1d8>
 8004c72:	2102      	movs	r1, #2
 8004c74:	f104 0024 	add.w	r0, r4, #36	; 0x24
 8004c78:	f7ff fb00 	bl	800427c <RCCEx_PLL3_Config>
 8004c7c:	f8d4 1080 	ldr.w	r1, [r4, #128]	; 0x80
 8004c80:	b100      	cbz	r0, 8004c84 <HAL_RCCEx_PeriphCLKConfig+0x910>
 8004c82:	2601      	movs	r6, #1
 8004c84:	6823      	ldr	r3, [r4, #0]
 8004c86:	e5cf      	b.n	8004828 <HAL_RCCEx_PeriphCLKConfig+0x4b4>
 8004c88:	2100      	movs	r1, #0
 8004c8a:	f104 0024 	add.w	r0, r4, #36	; 0x24
 8004c8e:	f7ff faf5 	bl	800427c <RCCEx_PLL3_Config>
 8004c92:	6823      	ldr	r3, [r4, #0]
 8004c94:	4605      	mov	r5, r0
 8004c96:	e439      	b.n	800450c <HAL_RCCEx_PeriphCLKConfig+0x198>
 8004c98:	2100      	movs	r1, #0
 8004c9a:	f104 0024 	add.w	r0, r4, #36	; 0x24
 8004c9e:	f7ff faed 	bl	800427c <RCCEx_PLL3_Config>
 8004ca2:	6823      	ldr	r3, [r4, #0]
 8004ca4:	4605      	mov	r5, r0
 8004ca6:	f7ff bbb2 	b.w	800440e <HAL_RCCEx_PeriphCLKConfig+0x9a>
 8004caa:	492c      	ldr	r1, [pc, #176]	; (8004d5c <HAL_RCCEx_PeriphCLKConfig+0x9e8>)
 8004cac:	4635      	mov	r5, r6
 8004cae:	6aca      	ldr	r2, [r1, #44]	; 0x2c
 8004cb0:	f442 3200 	orr.w	r2, r2, #131072	; 0x20000
 8004cb4:	62ca      	str	r2, [r1, #44]	; 0x2c
 8004cb6:	e65e      	b.n	8004976 <HAL_RCCEx_PeriphCLKConfig+0x602>
 8004cb8:	2100      	movs	r1, #0
 8004cba:	1d20      	adds	r0, r4, #4
 8004cbc:	f7ff fa62 	bl	8004184 <RCCEx_PLL2_Config>
 8004cc0:	6823      	ldr	r3, [r4, #0]
 8004cc2:	4605      	mov	r5, r0
 8004cc4:	e657      	b.n	8004976 <HAL_RCCEx_PeriphCLKConfig+0x602>
 8004cc6:	2100      	movs	r1, #0
 8004cc8:	f104 0024 	add.w	r0, r4, #36	; 0x24
 8004ccc:	f7ff fad6 	bl	800427c <RCCEx_PLL3_Config>
 8004cd0:	6823      	ldr	r3, [r4, #0]
 8004cd2:	4605      	mov	r5, r0
 8004cd4:	f7ff bbbc 	b.w	8004450 <HAL_RCCEx_PeriphCLKConfig+0xdc>
 8004cd8:	2100      	movs	r1, #0
 8004cda:	f104 0024 	add.w	r0, r4, #36	; 0x24
 8004cde:	f7ff facd 	bl	800427c <RCCEx_PLL3_Config>
 8004ce2:	6823      	ldr	r3, [r4, #0]
 8004ce4:	4605      	mov	r5, r0
 8004ce6:	e646      	b.n	8004976 <HAL_RCCEx_PeriphCLKConfig+0x602>
 8004ce8:	6823      	ldr	r3, [r4, #0]
 8004cea:	f7ff bb67 	b.w	80043bc <HAL_RCCEx_PeriphCLKConfig+0x48>
 8004cee:	2100      	movs	r1, #0
 8004cf0:	f104 0024 	add.w	r0, r4, #36	; 0x24
 8004cf4:	f7ff fac2 	bl	800427c <RCCEx_PLL3_Config>
 8004cf8:	6823      	ldr	r3, [r4, #0]
 8004cfa:	4605      	mov	r5, r0
 8004cfc:	f7ff bbca 	b.w	8004494 <HAL_RCCEx_PeriphCLKConfig+0x120>
 8004d00:	2102      	movs	r1, #2
 8004d02:	3024      	adds	r0, #36	; 0x24
 8004d04:	f7ff faba 	bl	800427c <RCCEx_PLL3_Config>
 8004d08:	4606      	mov	r6, r0
 8004d0a:	2e00      	cmp	r6, #0
 8004d0c:	f43f ab4d 	beq.w	80043aa <HAL_RCCEx_PeriphCLKConfig+0x36>
 8004d10:	e7ea      	b.n	8004ce8 <HAL_RCCEx_PeriphCLKConfig+0x974>
 8004d12:	2101      	movs	r1, #1
 8004d14:	1d20      	adds	r0, r4, #4
 8004d16:	f7ff fa35 	bl	8004184 <RCCEx_PLL2_Config>
 8004d1a:	4605      	mov	r5, r0
 8004d1c:	6823      	ldr	r3, [r4, #0]
 8004d1e:	2d00      	cmp	r5, #0
 8004d20:	f47f acff 	bne.w	8004722 <HAL_RCCEx_PeriphCLKConfig+0x3ae>
 8004d24:	e729      	b.n	8004b7a <HAL_RCCEx_PeriphCLKConfig+0x806>
 8004d26:	2101      	movs	r1, #1
 8004d28:	1d20      	adds	r0, r4, #4
 8004d2a:	f7ff fa2b 	bl	8004184 <RCCEx_PLL2_Config>
 8004d2e:	4605      	mov	r5, r0
 8004d30:	6823      	ldr	r3, [r4, #0]
 8004d32:	2d00      	cmp	r5, #0
 8004d34:	f47f ad0f 	bne.w	8004756 <HAL_RCCEx_PeriphCLKConfig+0x3e2>
 8004d38:	e716      	b.n	8004b68 <HAL_RCCEx_PeriphCLKConfig+0x7f4>
 8004d3a:	2101      	movs	r1, #1
 8004d3c:	1d20      	adds	r0, r4, #4
 8004d3e:	f7ff fa21 	bl	8004184 <RCCEx_PLL2_Config>
 8004d42:	4605      	mov	r5, r0
 8004d44:	6823      	ldr	r3, [r4, #0]
 8004d46:	2d00      	cmp	r5, #0
 8004d48:	f47f acd2 	bne.w	80046f0 <HAL_RCCEx_PeriphCLKConfig+0x37c>
 8004d4c:	e73b      	b.n	8004bc6 <HAL_RCCEx_PeriphCLKConfig+0x852>
 8004d4e:	2603      	movs	r6, #3
 8004d50:	6823      	ldr	r3, [r4, #0]
 8004d52:	4635      	mov	r5, r6
 8004d54:	e491      	b.n	800467a <HAL_RCCEx_PeriphCLKConfig+0x306>
 8004d56:	bf00      	nop
 8004d58:	58024800 	.word	0x58024800
 8004d5c:	58024400 	.word	0x58024400
 8004d60:	492d      	ldr	r1, [pc, #180]	; (8004e18 <HAL_RCCEx_PeriphCLKConfig+0xaa4>)
 8004d62:	6aca      	ldr	r2, [r1, #44]	; 0x2c
 8004d64:	f442 3200 	orr.w	r2, r2, #131072	; 0x20000
 8004d68:	62ca      	str	r2, [r1, #44]	; 0x2c
 8004d6a:	2d00      	cmp	r5, #0
 8004d6c:	f47f af33 	bne.w	8004bd6 <HAL_RCCEx_PeriphCLKConfig+0x862>
 8004d70:	e5a4      	b.n	80048bc <HAL_RCCEx_PeriphCLKConfig+0x548>
 8004d72:	4829      	ldr	r0, [pc, #164]	; (8004e18 <HAL_RCCEx_PeriphCLKConfig+0xaa4>)
 8004d74:	6ac1      	ldr	r1, [r0, #44]	; 0x2c
 8004d76:	f441 3100 	orr.w	r1, r1, #131072	; 0x20000
 8004d7a:	62c1      	str	r1, [r0, #44]	; 0x2c
 8004d7c:	2d00      	cmp	r5, #0
 8004d7e:	f47f adf4 	bne.w	800496a <HAL_RCCEx_PeriphCLKConfig+0x5f6>
 8004d82:	e625      	b.n	80049d0 <HAL_RCCEx_PeriphCLKConfig+0x65c>
 8004d84:	1d20      	adds	r0, r4, #4
 8004d86:	f7ff f9fd 	bl	8004184 <RCCEx_PLL2_Config>
 8004d8a:	4605      	mov	r5, r0
 8004d8c:	6823      	ldr	r3, [r4, #0]
 8004d8e:	2d00      	cmp	r5, #0
 8004d90:	f47f af0f 	bne.w	8004bb2 <HAL_RCCEx_PeriphCLKConfig+0x83e>
 8004d94:	e660      	b.n	8004a58 <HAL_RCCEx_PeriphCLKConfig+0x6e4>
 8004d96:	4920      	ldr	r1, [pc, #128]	; (8004e18 <HAL_RCCEx_PeriphCLKConfig+0xaa4>)
 8004d98:	6aca      	ldr	r2, [r1, #44]	; 0x2c
 8004d9a:	f442 3200 	orr.w	r2, r2, #131072	; 0x20000
 8004d9e:	62ca      	str	r2, [r1, #44]	; 0x2c
 8004da0:	2d00      	cmp	r5, #0
 8004da2:	f47f af0b 	bne.w	8004bbc <HAL_RCCEx_PeriphCLKConfig+0x848>
 8004da6:	e641      	b.n	8004a2c <HAL_RCCEx_PeriphCLKConfig+0x6b8>
 8004da8:	2102      	movs	r1, #2
 8004daa:	f104 0024 	add.w	r0, r4, #36	; 0x24
 8004dae:	f7ff fa65 	bl	800427c <RCCEx_PLL3_Config>
 8004db2:	f8d4 1094 	ldr.w	r1, [r4, #148]	; 0x94
 8004db6:	b100      	cbz	r0, 8004dba <HAL_RCCEx_PeriphCLKConfig+0xa46>
 8004db8:	2601      	movs	r6, #1
 8004dba:	6823      	ldr	r3, [r4, #0]
 8004dbc:	e542      	b.n	8004844 <HAL_RCCEx_PeriphCLKConfig+0x4d0>
 8004dbe:	f7fc ff59 	bl	8001c74 <HAL_GetTick>
 8004dc2:	f8df 8054 	ldr.w	r8, [pc, #84]	; 8004e18 <HAL_RCCEx_PeriphCLKConfig+0xaa4>
 8004dc6:	f241 3988 	movw	r9, #5000	; 0x1388
 8004dca:	4607      	mov	r7, r0
 8004dcc:	e004      	b.n	8004dd8 <HAL_RCCEx_PeriphCLKConfig+0xa64>
 8004dce:	f7fc ff51 	bl	8001c74 <HAL_GetTick>
 8004dd2:	1bc0      	subs	r0, r0, r7
 8004dd4:	4548      	cmp	r0, r9
 8004dd6:	d8ba      	bhi.n	8004d4e <HAL_RCCEx_PeriphCLKConfig+0x9da>
 8004dd8:	f8d8 3070 	ldr.w	r3, [r8, #112]	; 0x70
 8004ddc:	079b      	lsls	r3, r3, #30
 8004dde:	d5f6      	bpl.n	8004dce <HAL_RCCEx_PeriphCLKConfig+0xa5a>
 8004de0:	f8d4 30b0 	ldr.w	r3, [r4, #176]	; 0xb0
 8004de4:	e680      	b.n	8004ae8 <HAL_RCCEx_PeriphCLKConfig+0x774>
 8004de6:	480c      	ldr	r0, [pc, #48]	; (8004e18 <HAL_RCCEx_PeriphCLKConfig+0xaa4>)
 8004de8:	4a0c      	ldr	r2, [pc, #48]	; (8004e1c <HAL_RCCEx_PeriphCLKConfig+0xaa8>)
 8004dea:	6901      	ldr	r1, [r0, #16]
 8004dec:	ea02 1213 	and.w	r2, r2, r3, lsr #4
 8004df0:	f421 517c 	bic.w	r1, r1, #16128	; 0x3f00
 8004df4:	430a      	orrs	r2, r1
 8004df6:	6102      	str	r2, [r0, #16]
 8004df8:	e681      	b.n	8004afe <HAL_RCCEx_PeriphCLKConfig+0x78a>
 8004dfa:	6823      	ldr	r3, [r4, #0]
 8004dfc:	462e      	mov	r6, r5
 8004dfe:	e43c      	b.n	800467a <HAL_RCCEx_PeriphCLKConfig+0x306>
 8004e00:	2601      	movs	r6, #1
 8004e02:	f7ff baef 	b.w	80043e4 <HAL_RCCEx_PeriphCLKConfig+0x70>
 8004e06:	2601      	movs	r6, #1
 8004e08:	4635      	mov	r5, r6
 8004e0a:	e48b      	b.n	8004724 <HAL_RCCEx_PeriphCLKConfig+0x3b0>
 8004e0c:	2601      	movs	r6, #1
 8004e0e:	4635      	mov	r5, r6
 8004e10:	e430      	b.n	8004674 <HAL_RCCEx_PeriphCLKConfig+0x300>
 8004e12:	2601      	movs	r6, #1
 8004e14:	4635      	mov	r5, r6
 8004e16:	e49f      	b.n	8004758 <HAL_RCCEx_PeriphCLKConfig+0x3e4>
 8004e18:	58024400 	.word	0x58024400
 8004e1c:	00ffffcf 	.word	0x00ffffcf

08004e20 <HAL_RCCEx_GetD3PCLK1Freq>:
 8004e20:	b508      	push	{r3, lr}
 8004e22:	f7ff f969 	bl	80040f8 <HAL_RCC_GetHCLKFreq>
 8004e26:	4b05      	ldr	r3, [pc, #20]	; (8004e3c <HAL_RCCEx_GetD3PCLK1Freq+0x1c>)
 8004e28:	4a05      	ldr	r2, [pc, #20]	; (8004e40 <HAL_RCCEx_GetD3PCLK1Freq+0x20>)
 8004e2a:	6a1b      	ldr	r3, [r3, #32]
 8004e2c:	f3c3 1302 	ubfx	r3, r3, #4, #3
 8004e30:	5cd3      	ldrb	r3, [r2, r3]
 8004e32:	f003 031f 	and.w	r3, r3, #31
 8004e36:	40d8      	lsrs	r0, r3
 8004e38:	bd08      	pop	{r3, pc}
 8004e3a:	bf00      	nop
 8004e3c:	58024400 	.word	0x58024400
 8004e40:	0800636c 	.word	0x0800636c

08004e44 <HAL_RCCEx_GetPLL2ClockFreq>:
 8004e44:	4b58      	ldr	r3, [pc, #352]	; (8004fa8 <HAL_RCCEx_GetPLL2ClockFreq+0x164>)
 8004e46:	b470      	push	{r4, r5, r6}
 8004e48:	6a99      	ldr	r1, [r3, #40]	; 0x28
 8004e4a:	6a9d      	ldr	r5, [r3, #40]	; 0x28
 8004e4c:	6adc      	ldr	r4, [r3, #44]	; 0x2c
 8004e4e:	f415 3f7c 	tst.w	r5, #258048	; 0x3f000
 8004e52:	f3c5 3205 	ubfx	r2, r5, #12, #6
 8004e56:	6bde      	ldr	r6, [r3, #60]	; 0x3c
 8004e58:	d05c      	beq.n	8004f14 <HAL_RCCEx_GetPLL2ClockFreq+0xd0>
 8004e5a:	f3c6 06cc 	ubfx	r6, r6, #3, #13
 8004e5e:	f3c4 1400 	ubfx	r4, r4, #4, #1
 8004e62:	f001 0103 	and.w	r1, r1, #3
 8004e66:	fb04 f406 	mul.w	r4, r4, r6
 8004e6a:	2901      	cmp	r1, #1
 8004e6c:	ee07 4a90 	vmov	s15, r4
 8004e70:	eeb8 7ae7 	vcvt.f32.s32	s14, s15
 8004e74:	d003      	beq.n	8004e7e <HAL_RCCEx_GetPLL2ClockFreq+0x3a>
 8004e76:	2902      	cmp	r1, #2
 8004e78:	d075      	beq.n	8004f66 <HAL_RCCEx_GetPLL2ClockFreq+0x122>
 8004e7a:	2900      	cmp	r1, #0
 8004e7c:	d04f      	beq.n	8004f1e <HAL_RCCEx_GetPLL2ClockFreq+0xda>
 8004e7e:	ee07 2a90 	vmov	s15, r2
 8004e82:	eddf 6a4a 	vldr	s13, [pc, #296]	; 8004fac <HAL_RCCEx_GetPLL2ClockFreq+0x168>
 8004e86:	eef8 7ae7 	vcvt.f32.s32	s15, s15
 8004e8a:	6b9b      	ldr	r3, [r3, #56]	; 0x38
 8004e8c:	ee86 6aa7 	vdiv.f32	s12, s13, s15
 8004e90:	ed9f 5a47 	vldr	s10, [pc, #284]	; 8004fb0 <HAL_RCCEx_GetPLL2ClockFreq+0x16c>
 8004e94:	f3c3 0308 	ubfx	r3, r3, #0, #9
 8004e98:	ee06 3a90 	vmov	s13, r3
 8004e9c:	eef7 5a00 	vmov.f32	s11, #112	; 0x3f800000  1.0
 8004ea0:	eef8 6ae6 	vcvt.f32.s32	s13, s13
 8004ea4:	eee7 6a05 	vfma.f32	s13, s14, s10
 8004ea8:	ee76 6aa5 	vadd.f32	s13, s13, s11
 8004eac:	ee66 6a26 	vmul.f32	s13, s12, s13
 8004eb0:	4a3d      	ldr	r2, [pc, #244]	; (8004fa8 <HAL_RCCEx_GetPLL2ClockFreq+0x164>)
 8004eb2:	eeb7 6a00 	vmov.f32	s12, #112	; 0x3f800000  1.0
 8004eb6:	6b93      	ldr	r3, [r2, #56]	; 0x38
 8004eb8:	f3c3 2346 	ubfx	r3, r3, #9, #7
 8004ebc:	ee07 3a10 	vmov	s14, r3
 8004ec0:	eeb8 7ac7 	vcvt.f32.s32	s14, s14
 8004ec4:	bc70      	pop	{r4, r5, r6}
 8004ec6:	ee37 7a06 	vadd.f32	s14, s14, s12
 8004eca:	eec6 7a87 	vdiv.f32	s15, s13, s14
 8004ece:	eefc 7ae7 	vcvt.u32.f32	s15, s15
 8004ed2:	edc0 7a00 	vstr	s15, [r0]
 8004ed6:	6b93      	ldr	r3, [r2, #56]	; 0x38
 8004ed8:	f3c3 4306 	ubfx	r3, r3, #16, #7
 8004edc:	ee07 3a10 	vmov	s14, r3
 8004ee0:	eeb8 7ac7 	vcvt.f32.s32	s14, s14
 8004ee4:	ee37 7a06 	vadd.f32	s14, s14, s12
 8004ee8:	eec6 7a87 	vdiv.f32	s15, s13, s14
 8004eec:	eefc 7ae7 	vcvt.u32.f32	s15, s15
 8004ef0:	edc0 7a01 	vstr	s15, [r0, #4]
 8004ef4:	6b93      	ldr	r3, [r2, #56]	; 0x38
 8004ef6:	f3c3 6306 	ubfx	r3, r3, #24, #7
 8004efa:	ee07 3a90 	vmov	s15, r3
 8004efe:	eef8 7ae7 	vcvt.f32.s32	s15, s15
 8004f02:	ee77 7a86 	vadd.f32	s15, s15, s12
 8004f06:	ee86 7aa7 	vdiv.f32	s14, s13, s15
 8004f0a:	eebc 7ac7 	vcvt.u32.f32	s14, s14
 8004f0e:	ed80 7a02 	vstr	s14, [r0, #8]
 8004f12:	4770      	bx	lr
 8004f14:	bc70      	pop	{r4, r5, r6}
 8004f16:	e9c0 2200 	strd	r2, r2, [r0]
 8004f1a:	6082      	str	r2, [r0, #8]
 8004f1c:	4770      	bx	lr
 8004f1e:	6819      	ldr	r1, [r3, #0]
 8004f20:	0689      	lsls	r1, r1, #26
 8004f22:	d527      	bpl.n	8004f74 <HAL_RCCEx_GetPLL2ClockFreq+0x130>
 8004f24:	6819      	ldr	r1, [r3, #0]
 8004f26:	ee07 2a90 	vmov	s15, r2
 8004f2a:	4a22      	ldr	r2, [pc, #136]	; (8004fb4 <HAL_RCCEx_GetPLL2ClockFreq+0x170>)
 8004f2c:	eeb7 5a00 	vmov.f32	s10, #112	; 0x3f800000  1.0
 8004f30:	f3c1 01c1 	ubfx	r1, r1, #3, #2
 8004f34:	eef8 7ae7 	vcvt.f32.s32	s15, s15
 8004f38:	6b9b      	ldr	r3, [r3, #56]	; 0x38
 8004f3a:	40ca      	lsrs	r2, r1
 8004f3c:	eddf 4a1c 	vldr	s9, [pc, #112]	; 8004fb0 <HAL_RCCEx_GetPLL2ClockFreq+0x16c>
 8004f40:	f3c3 0308 	ubfx	r3, r3, #0, #9
 8004f44:	ee06 2a10 	vmov	s12, r2
 8004f48:	ee06 3a90 	vmov	s13, r3
 8004f4c:	eeb8 6ac6 	vcvt.f32.s32	s12, s12
 8004f50:	eef8 6ae6 	vcvt.f32.s32	s13, s13
 8004f54:	eec6 5a27 	vdiv.f32	s11, s12, s15
 8004f58:	eee7 6a24 	vfma.f32	s13, s14, s9
 8004f5c:	ee76 6a85 	vadd.f32	s13, s13, s10
 8004f60:	ee66 6aa5 	vmul.f32	s13, s13, s11
 8004f64:	e7a4      	b.n	8004eb0 <HAL_RCCEx_GetPLL2ClockFreq+0x6c>
 8004f66:	ee07 2a90 	vmov	s15, r2
 8004f6a:	eddf 6a13 	vldr	s13, [pc, #76]	; 8004fb8 <HAL_RCCEx_GetPLL2ClockFreq+0x174>
 8004f6e:	eef8 7ae7 	vcvt.f32.s32	s15, s15
 8004f72:	e78a      	b.n	8004e8a <HAL_RCCEx_GetPLL2ClockFreq+0x46>
 8004f74:	ee07 2a90 	vmov	s15, r2
 8004f78:	ed9f 5a10 	vldr	s10, [pc, #64]	; 8004fbc <HAL_RCCEx_GetPLL2ClockFreq+0x178>
 8004f7c:	6b9b      	ldr	r3, [r3, #56]	; 0x38
 8004f7e:	eeb7 6a00 	vmov.f32	s12, #112	; 0x3f800000  1.0
 8004f82:	eef8 7ae7 	vcvt.f32.s32	s15, s15
 8004f86:	eddf 5a0a 	vldr	s11, [pc, #40]	; 8004fb0 <HAL_RCCEx_GetPLL2ClockFreq+0x16c>
 8004f8a:	f3c3 0308 	ubfx	r3, r3, #0, #9
 8004f8e:	eec5 6a27 	vdiv.f32	s13, s10, s15
 8004f92:	ee07 3a90 	vmov	s15, r3
 8004f96:	eef8 7ae7 	vcvt.f32.s32	s15, s15
 8004f9a:	eee7 7a25 	vfma.f32	s15, s14, s11
 8004f9e:	ee77 7a86 	vadd.f32	s15, s15, s12
 8004fa2:	ee66 6aa7 	vmul.f32	s13, s13, s15
 8004fa6:	e783      	b.n	8004eb0 <HAL_RCCEx_GetPLL2ClockFreq+0x6c>
 8004fa8:	58024400 	.word	0x58024400
 8004fac:	4a742400 	.word	0x4a742400
 8004fb0:	39000000 	.word	0x39000000
 8004fb4:	03d09000 	.word	0x03d09000
 8004fb8:	4afe502a 	.word	0x4afe502a
 8004fbc:	4c742400 	.word	0x4c742400

08004fc0 <HAL_RCCEx_GetPLL3ClockFreq>:
 8004fc0:	4b58      	ldr	r3, [pc, #352]	; (8005124 <HAL_RCCEx_GetPLL3ClockFreq+0x164>)
 8004fc2:	b470      	push	{r4, r5, r6}
 8004fc4:	6a99      	ldr	r1, [r3, #40]	; 0x28
 8004fc6:	6a9d      	ldr	r5, [r3, #40]	; 0x28
 8004fc8:	6adc      	ldr	r4, [r3, #44]	; 0x2c
 8004fca:	f015 7f7c 	tst.w	r5, #66060288	; 0x3f00000
 8004fce:	f3c5 5205 	ubfx	r2, r5, #20, #6
 8004fd2:	6c5e      	ldr	r6, [r3, #68]	; 0x44
 8004fd4:	d05c      	beq.n	8005090 <HAL_RCCEx_GetPLL3ClockFreq+0xd0>
 8004fd6:	f3c6 06cc 	ubfx	r6, r6, #3, #13
 8004fda:	f3c4 2400 	ubfx	r4, r4, #8, #1
 8004fde:	f001 0103 	and.w	r1, r1, #3
 8004fe2:	fb04 f406 	mul.w	r4, r4, r6
 8004fe6:	2901      	cmp	r1, #1
 8004fe8:	ee07 4a90 	vmov	s15, r4
 8004fec:	eeb8 7ae7 	vcvt.f32.s32	s14, s15
 8004ff0:	d003      	beq.n	8004ffa <HAL_RCCEx_GetPLL3ClockFreq+0x3a>
 8004ff2:	2902      	cmp	r1, #2
 8004ff4:	d075      	beq.n	80050e2 <HAL_RCCEx_GetPLL3ClockFreq+0x122>
 8004ff6:	2900      	cmp	r1, #0
 8004ff8:	d04f      	beq.n	800509a <HAL_RCCEx_GetPLL3ClockFreq+0xda>
 8004ffa:	ee07 2a90 	vmov	s15, r2
 8004ffe:	eddf 6a4a 	vldr	s13, [pc, #296]	; 8005128 <HAL_RCCEx_GetPLL3ClockFreq+0x168>
 8005002:	eef8 7ae7 	vcvt.f32.s32	s15, s15
 8005006:	6c1b      	ldr	r3, [r3, #64]	; 0x40
 8005008:	ee86 6aa7 	vdiv.f32	s12, s13, s15
 800500c:	ed9f 5a47 	vldr	s10, [pc, #284]	; 800512c <HAL_RCCEx_GetPLL3ClockFreq+0x16c>
 8005010:	f3c3 0308 	ubfx	r3, r3, #0, #9
 8005014:	ee06 3a90 	vmov	s13, r3
 8005018:	eef7 5a00 	vmov.f32	s11, #112	; 0x3f800000  1.0
 800501c:	eef8 6ae6 	vcvt.f32.s32	s13, s13
 8005020:	eee7 6a05 	vfma.f32	s13, s14, s10
 8005024:	ee76 6aa5 	vadd.f32	s13, s13, s11
 8005028:	ee66 6a26 	vmul.f32	s13, s12, s13
 800502c:	4a3d      	ldr	r2, [pc, #244]	; (8005124 <HAL_RCCEx_GetPLL3ClockFreq+0x164>)
 800502e:	eeb7 6a00 	vmov.f32	s12, #112	; 0x3f800000  1.0
 8005032:	6c13      	ldr	r3, [r2, #64]	; 0x40
 8005034:	f3c3 2346 	ubfx	r3, r3, #9, #7
 8005038:	ee07 3a10 	vmov	s14, r3
 800503c:	eeb8 7ac7 	vcvt.f32.s32	s14, s14
 8005040:	bc70      	pop	{r4, r5, r6}
 8005042:	ee37 7a06 	vadd.f32	s14, s14, s12
 8005046:	eec6 7a87 	vdiv.f32	s15, s13, s14
 800504a:	eefc 7ae7 	vcvt.u32.f32	s15, s15
 800504e:	edc0 7a00 	vstr	s15, [r0]
 8005052:	6c13      	ldr	r3, [r2, #64]	; 0x40
 8005054:	f3c3 4306 	ubfx	r3, r3, #16, #7
 8005058:	ee07 3a10 	vmov	s14, r3
 800505c:	eeb8 7ac7 	vcvt.f32.s32	s14, s14
 8005060:	ee37 7a06 	vadd.f32	s14, s14, s12
 8005064:	eec6 7a87 	vdiv.f32	s15, s13, s14
 8005068:	eefc 7ae7 	vcvt.u32.f32	s15, s15
 800506c:	edc0 7a01 	vstr	s15, [r0, #4]
 8005070:	6c13      	ldr	r3, [r2, #64]	; 0x40
 8005072:	f3c3 6306 	ubfx	r3, r3, #24, #7
 8005076:	ee07 3a90 	vmov	s15, r3
 800507a:	eef8 7ae7 	vcvt.f32.s32	s15, s15
 800507e:	ee77 7a86 	vadd.f32	s15, s15, s12
 8005082:	ee86 7aa7 	vdiv.f32	s14, s13, s15
 8005086:	eebc 7ac7 	vcvt.u32.f32	s14, s14
 800508a:	ed80 7a02 	vstr	s14, [r0, #8]
 800508e:	4770      	bx	lr
 8005090:	bc70      	pop	{r4, r5, r6}
 8005092:	e9c0 2200 	strd	r2, r2, [r0]
 8005096:	6082      	str	r2, [r0, #8]
 8005098:	4770      	bx	lr
 800509a:	6819      	ldr	r1, [r3, #0]
 800509c:	0689      	lsls	r1, r1, #26
 800509e:	d527      	bpl.n	80050f0 <HAL_RCCEx_GetPLL3ClockFreq+0x130>
 80050a0:	6819      	ldr	r1, [r3, #0]
 80050a2:	ee07 2a90 	vmov	s15, r2
 80050a6:	4a22      	ldr	r2, [pc, #136]	; (8005130 <HAL_RCCEx_GetPLL3ClockFreq+0x170>)
 80050a8:	eeb7 5a00 	vmov.f32	s10, #112	; 0x3f800000  1.0
 80050ac:	f3c1 01c1 	ubfx	r1, r1, #3, #2
 80050b0:	eef8 7ae7 	vcvt.f32.s32	s15, s15
 80050b4:	6c1b      	ldr	r3, [r3, #64]	; 0x40
 80050b6:	40ca      	lsrs	r2, r1
 80050b8:	eddf 4a1c 	vldr	s9, [pc, #112]	; 800512c <HAL_RCCEx_GetPLL3ClockFreq+0x16c>
 80050bc:	f3c3 0308 	ubfx	r3, r3, #0, #9
 80050c0:	ee06 2a10 	vmov	s12, r2
 80050c4:	ee06 3a90 	vmov	s13, r3
 80050c8:	eeb8 6ac6 	vcvt.f32.s32	s12, s12
 80050cc:	eef8 6ae6 	vcvt.f32.s32	s13, s13
 80050d0:	eec6 5a27 	vdiv.f32	s11, s12, s15
 80050d4:	eee7 6a24 	vfma.f32	s13, s14, s9
 80050d8:	ee76 6a85 	vadd.f32	s13, s13, s10
 80050dc:	ee66 6aa5 	vmul.f32	s13, s13, s11
 80050e0:	e7a4      	b.n	800502c <HAL_RCCEx_GetPLL3ClockFreq+0x6c>
 80050e2:	ee07 2a90 	vmov	s15, r2
 80050e6:	eddf 6a13 	vldr	s13, [pc, #76]	; 8005134 <HAL_RCCEx_GetPLL3ClockFreq+0x174>
 80050ea:	eef8 7ae7 	vcvt.f32.s32	s15, s15
 80050ee:	e78a      	b.n	8005006 <HAL_RCCEx_GetPLL3ClockFreq+0x46>
 80050f0:	ee07 2a90 	vmov	s15, r2
 80050f4:	ed9f 5a10 	vldr	s10, [pc, #64]	; 8005138 <HAL_RCCEx_GetPLL3ClockFreq+0x178>
 80050f8:	6c1b      	ldr	r3, [r3, #64]	; 0x40
 80050fa:	eeb7 6a00 	vmov.f32	s12, #112	; 0x3f800000  1.0
 80050fe:	eef8 7ae7 	vcvt.f32.s32	s15, s15
 8005102:	eddf 5a0a 	vldr	s11, [pc, #40]	; 800512c <HAL_RCCEx_GetPLL3ClockFreq+0x16c>
 8005106:	f3c3 0308 	ubfx	r3, r3, #0, #9
 800510a:	eec5 6a27 	vdiv.f32	s13, s10, s15
 800510e:	ee07 3a90 	vmov	s15, r3
 8005112:	eef8 7ae7 	vcvt.f32.s32	s15, s15
 8005116:	eee7 7a25 	vfma.f32	s15, s14, s11
 800511a:	ee77 7a86 	vadd.f32	s15, s15, s12
 800511e:	ee66 6aa7 	vmul.f32	s13, s13, s15
 8005122:	e783      	b.n	800502c <HAL_RCCEx_GetPLL3ClockFreq+0x6c>
 8005124:	58024400 	.word	0x58024400
 8005128:	4a742400 	.word	0x4a742400
 800512c:	39000000 	.word	0x39000000
 8005130:	03d09000 	.word	0x03d09000
 8005134:	4afe502a 	.word	0x4afe502a
 8005138:	4c742400 	.word	0x4c742400

0800513c <SPI_CloseTransfer>:
 800513c:	6803      	ldr	r3, [r0, #0]
 800513e:	492c      	ldr	r1, [pc, #176]	; (80051f0 <SPI_CloseTransfer+0xb4>)
 8005140:	695a      	ldr	r2, [r3, #20]
 8005142:	b410      	push	{r4}
 8005144:	699c      	ldr	r4, [r3, #24]
 8005146:	f044 0408 	orr.w	r4, r4, #8
 800514a:	619c      	str	r4, [r3, #24]
 800514c:	699c      	ldr	r4, [r3, #24]
 800514e:	f044 0410 	orr.w	r4, r4, #16
 8005152:	619c      	str	r4, [r3, #24]
 8005154:	681c      	ldr	r4, [r3, #0]
 8005156:	f024 0401 	bic.w	r4, r4, #1
 800515a:	601c      	str	r4, [r3, #0]
 800515c:	691c      	ldr	r4, [r3, #16]
 800515e:	4021      	ands	r1, r4
 8005160:	6119      	str	r1, [r3, #16]
 8005162:	6899      	ldr	r1, [r3, #8]
 8005164:	f421 4140 	bic.w	r1, r1, #49152	; 0xc000
 8005168:	6099      	str	r1, [r3, #8]
 800516a:	f890 1081 	ldrb.w	r1, [r0, #129]	; 0x81
 800516e:	2904      	cmp	r1, #4
 8005170:	d001      	beq.n	8005176 <SPI_CloseTransfer+0x3a>
 8005172:	0691      	lsls	r1, r2, #26
 8005174:	d430      	bmi.n	80051d8 <SPI_CloseTransfer+0x9c>
 8005176:	f890 1081 	ldrb.w	r1, [r0, #129]	; 0x81
 800517a:	2903      	cmp	r1, #3
 800517c:	d001      	beq.n	8005182 <SPI_CloseTransfer+0x46>
 800517e:	0654      	lsls	r4, r2, #25
 8005180:	d41f      	bmi.n	80051c2 <SPI_CloseTransfer+0x86>
 8005182:	0591      	lsls	r1, r2, #22
 8005184:	d509      	bpl.n	800519a <SPI_CloseTransfer+0x5e>
 8005186:	f8d0 1084 	ldr.w	r1, [r0, #132]	; 0x84
 800518a:	f041 0101 	orr.w	r1, r1, #1
 800518e:	f8c0 1084 	str.w	r1, [r0, #132]	; 0x84
 8005192:	6999      	ldr	r1, [r3, #24]
 8005194:	f441 7100 	orr.w	r1, r1, #512	; 0x200
 8005198:	6199      	str	r1, [r3, #24]
 800519a:	05d2      	lsls	r2, r2, #23
 800519c:	d509      	bpl.n	80051b2 <SPI_CloseTransfer+0x76>
 800519e:	f8d0 2084 	ldr.w	r2, [r0, #132]	; 0x84
 80051a2:	f042 0208 	orr.w	r2, r2, #8
 80051a6:	f8c0 2084 	str.w	r2, [r0, #132]	; 0x84
 80051aa:	699a      	ldr	r2, [r3, #24]
 80051ac:	f442 7280 	orr.w	r2, r2, #256	; 0x100
 80051b0:	619a      	str	r2, [r3, #24]
 80051b2:	2300      	movs	r3, #0
 80051b4:	f85d 4b04 	ldr.w	r4, [sp], #4
 80051b8:	f8a0 3062 	strh.w	r3, [r0, #98]	; 0x62
 80051bc:	f8a0 306a 	strh.w	r3, [r0, #106]	; 0x6a
 80051c0:	4770      	bx	lr
 80051c2:	f8d0 1084 	ldr.w	r1, [r0, #132]	; 0x84
 80051c6:	f041 0104 	orr.w	r1, r1, #4
 80051ca:	f8c0 1084 	str.w	r1, [r0, #132]	; 0x84
 80051ce:	6999      	ldr	r1, [r3, #24]
 80051d0:	f041 0140 	orr.w	r1, r1, #64	; 0x40
 80051d4:	6199      	str	r1, [r3, #24]
 80051d6:	e7d4      	b.n	8005182 <SPI_CloseTransfer+0x46>
 80051d8:	f8d0 1084 	ldr.w	r1, [r0, #132]	; 0x84
 80051dc:	f041 0180 	orr.w	r1, r1, #128	; 0x80
 80051e0:	f8c0 1084 	str.w	r1, [r0, #132]	; 0x84
 80051e4:	6999      	ldr	r1, [r3, #24]
 80051e6:	f041 0120 	orr.w	r1, r1, #32
 80051ea:	6199      	str	r1, [r3, #24]
 80051ec:	e7c3      	b.n	8005176 <SPI_CloseTransfer+0x3a>
 80051ee:	bf00      	nop
 80051f0:	fffffc90 	.word	0xfffffc90

080051f4 <HAL_SPI_Init>:
 80051f4:	2800      	cmp	r0, #0
 80051f6:	f000 80ae 	beq.w	8005356 <HAL_SPI_Init+0x162>
 80051fa:	4a59      	ldr	r2, [pc, #356]	; (8005360 <HAL_SPI_Init+0x16c>)
 80051fc:	2100      	movs	r1, #0
 80051fe:	b5f8      	push	{r3, r4, r5, r6, r7, lr}
 8005200:	6803      	ldr	r3, [r0, #0]
 8005202:	4604      	mov	r4, r0
 8005204:	6281      	str	r1, [r0, #40]	; 0x28
 8005206:	4293      	cmp	r3, r2
 8005208:	d016      	beq.n	8005238 <HAL_SPI_Init+0x44>
 800520a:	f5a2 4278 	sub.w	r2, r2, #63488	; 0xf800
 800520e:	4293      	cmp	r3, r2
 8005210:	d012      	beq.n	8005238 <HAL_SPI_Init+0x44>
 8005212:	f502 6280 	add.w	r2, r2, #1024	; 0x400
 8005216:	4293      	cmp	r3, r2
 8005218:	68c2      	ldr	r2, [r0, #12]
 800521a:	f000 8094 	beq.w	8005346 <HAL_SPI_Init+0x152>
 800521e:	2a0f      	cmp	r2, #15
 8005220:	d808      	bhi.n	8005234 <HAL_SPI_Init+0x40>
 8005222:	6bc1      	ldr	r1, [r0, #60]	; 0x3c
 8005224:	f102 0008 	add.w	r0, r2, #8
 8005228:	094d      	lsrs	r5, r1, #5
 800522a:	08c0      	lsrs	r0, r0, #3
 800522c:	fb05 0000 	mla	r0, r5, r0, r0
 8005230:	2808      	cmp	r0, #8
 8005232:	d915      	bls.n	8005260 <HAL_SPI_Init+0x6c>
 8005234:	2001      	movs	r0, #1
 8005236:	bdf8      	pop	{r3, r4, r5, r6, r7, pc}
 8005238:	68e2      	ldr	r2, [r4, #12]
 800523a:	6be1      	ldr	r1, [r4, #60]	; 0x3c
 800523c:	f102 0008 	add.w	r0, r2, #8
 8005240:	4e47      	ldr	r6, [pc, #284]	; (8005360 <HAL_SPI_Init+0x16c>)
 8005242:	4d48      	ldr	r5, [pc, #288]	; (8005364 <HAL_SPI_Init+0x170>)
 8005244:	094f      	lsrs	r7, r1, #5
 8005246:	08c0      	lsrs	r0, r0, #3
 8005248:	42ab      	cmp	r3, r5
 800524a:	bf18      	it	ne
 800524c:	42b3      	cmpne	r3, r6
 800524e:	fb07 0000 	mla	r0, r7, r0, r0
 8005252:	d003      	beq.n	800525c <HAL_SPI_Init+0x68>
 8005254:	f505 6580 	add.w	r5, r5, #1024	; 0x400
 8005258:	42ab      	cmp	r3, r5
 800525a:	d101      	bne.n	8005260 <HAL_SPI_Init+0x6c>
 800525c:	2810      	cmp	r0, #16
 800525e:	d8e9      	bhi.n	8005234 <HAL_SPI_Init+0x40>
 8005260:	f894 0081 	ldrb.w	r0, [r4, #129]	; 0x81
 8005264:	f000 05ff 	and.w	r5, r0, #255	; 0xff
 8005268:	2800      	cmp	r0, #0
 800526a:	d061      	beq.n	8005330 <HAL_SPI_Init+0x13c>
 800526c:	f04f 0c00 	mov.w	ip, #0
 8005270:	2002      	movs	r0, #2
 8005272:	69a7      	ldr	r7, [r4, #24]
 8005274:	6ba5      	ldr	r5, [r4, #56]	; 0x38
 8005276:	f884 0081 	strb.w	r0, [r4, #129]	; 0x81
 800527a:	f1b7 6f80 	cmp.w	r7, #67108864	; 0x4000000
 800527e:	6818      	ldr	r0, [r3, #0]
 8005280:	f020 0001 	bic.w	r0, r0, #1
 8005284:	6018      	str	r0, [r3, #0]
 8005286:	6860      	ldr	r0, [r4, #4]
 8005288:	d045      	beq.n	8005316 <HAL_SPI_Init+0x122>
 800528a:	6b66      	ldr	r6, [r4, #52]	; 0x34
 800528c:	ea47 0e06 	orr.w	lr, r7, r6
 8005290:	6a67      	ldr	r7, [r4, #36]	; 0x24
 8005292:	6926      	ldr	r6, [r4, #16]
 8005294:	ea4e 0e07 	orr.w	lr, lr, r7
 8005298:	6967      	ldr	r7, [r4, #20]
 800529a:	ea4e 0e06 	orr.w	lr, lr, r6
 800529e:	6a26      	ldr	r6, [r4, #32]
 80052a0:	ea4e 0e07 	orr.w	lr, lr, r7
 80052a4:	6ce7      	ldr	r7, [r4, #76]	; 0x4c
 80052a6:	ea4e 0e06 	orr.w	lr, lr, r6
 80052aa:	68a6      	ldr	r6, [r4, #8]
 80052ac:	ea4e 0707 	orr.w	r7, lr, r7
 80052b0:	433e      	orrs	r6, r7
 80052b2:	6ca7      	ldr	r7, [r4, #72]	; 0x48
 80052b4:	433e      	orrs	r6, r7
 80052b6:	6da7      	ldr	r7, [r4, #88]	; 0x58
 80052b8:	433e      	orrs	r6, r7
 80052ba:	69e7      	ldr	r7, [r4, #28]
 80052bc:	4339      	orrs	r1, r7
 80052be:	4306      	orrs	r6, r0
 80052c0:	430a      	orrs	r2, r1
 80052c2:	4335      	orrs	r5, r6
 80052c4:	ea42 020c 	orr.w	r2, r2, ip
 80052c8:	609a      	str	r2, [r3, #8]
 80052ca:	60dd      	str	r5, [r3, #12]
 80052cc:	b9b0      	cbnz	r0, 80052fc <HAL_SPI_Init+0x108>
 80052ce:	689a      	ldr	r2, [r3, #8]
 80052d0:	f422 52c0 	bic.w	r2, r2, #6144	; 0x1800
 80052d4:	f442 6200 	orr.w	r2, r2, #2048	; 0x800
 80052d8:	609a      	str	r2, [r3, #8]
 80052da:	689a      	ldr	r2, [r3, #8]
 80052dc:	f422 62c0 	bic.w	r2, r2, #1536	; 0x600
 80052e0:	f442 6280 	orr.w	r2, r2, #1024	; 0x400
 80052e4:	609a      	str	r2, [r3, #8]
 80052e6:	6d1a      	ldr	r2, [r3, #80]	; 0x50
 80052e8:	f022 0201 	bic.w	r2, r2, #1
 80052ec:	651a      	str	r2, [r3, #80]	; 0x50
 80052ee:	2000      	movs	r0, #0
 80052f0:	2301      	movs	r3, #1
 80052f2:	f8c4 0084 	str.w	r0, [r4, #132]	; 0x84
 80052f6:	f884 3081 	strb.w	r3, [r4, #129]	; 0x81
 80052fa:	bdf8      	pop	{r3, r4, r5, r6, r7, pc}
 80052fc:	6d1a      	ldr	r2, [r3, #80]	; 0x50
 80052fe:	f022 0201 	bic.w	r2, r2, #1
 8005302:	651a      	str	r2, [r3, #80]	; 0x50
 8005304:	0242      	lsls	r2, r0, #9
 8005306:	d5f2      	bpl.n	80052ee <HAL_SPI_Init+0xfa>
 8005308:	68da      	ldr	r2, [r3, #12]
 800530a:	6d61      	ldr	r1, [r4, #84]	; 0x54
 800530c:	f022 4200 	bic.w	r2, r2, #2147483648	; 0x80000000
 8005310:	430a      	orrs	r2, r1
 8005312:	60da      	str	r2, [r3, #12]
 8005314:	e7eb      	b.n	80052ee <HAL_SPI_Init+0xfa>
 8005316:	f5b0 0f80 	cmp.w	r0, #4194304	; 0x400000
 800531a:	d01e      	beq.n	800535a <HAL_SPI_Init+0x166>
 800531c:	2800      	cmp	r0, #0
 800531e:	d1b4      	bne.n	800528a <HAL_SPI_Init+0x96>
 8005320:	f1b5 5f80 	cmp.w	r5, #268435456	; 0x10000000
 8005324:	d1b1      	bne.n	800528a <HAL_SPI_Init+0x96>
 8005326:	681e      	ldr	r6, [r3, #0]
 8005328:	f446 5680 	orr.w	r6, r6, #4096	; 0x1000
 800532c:	601e      	str	r6, [r3, #0]
 800532e:	e7ac      	b.n	800528a <HAL_SPI_Init+0x96>
 8005330:	4620      	mov	r0, r4
 8005332:	f884 5080 	strb.w	r5, [r4, #128]	; 0x80
 8005336:	f7fc f821 	bl	800137c <HAL_SPI_MspInit>
 800533a:	6823      	ldr	r3, [r4, #0]
 800533c:	f8d4 c028 	ldr.w	ip, [r4, #40]	; 0x28
 8005340:	68e2      	ldr	r2, [r4, #12]
 8005342:	6be1      	ldr	r1, [r4, #60]	; 0x3c
 8005344:	e794      	b.n	8005270 <HAL_SPI_Init+0x7c>
 8005346:	6bc1      	ldr	r1, [r0, #60]	; 0x3c
 8005348:	f102 0008 	add.w	r0, r2, #8
 800534c:	094d      	lsrs	r5, r1, #5
 800534e:	08c0      	lsrs	r0, r0, #3
 8005350:	fb05 0000 	mla	r0, r5, r0, r0
 8005354:	e782      	b.n	800525c <HAL_SPI_Init+0x68>
 8005356:	2001      	movs	r0, #1
 8005358:	4770      	bx	lr
 800535a:	2d00      	cmp	r5, #0
 800535c:	d0e3      	beq.n	8005326 <HAL_SPI_Init+0x132>
 800535e:	e794      	b.n	800528a <HAL_SPI_Init+0x96>
 8005360:	40013000 	.word	0x40013000
 8005364:	40003800 	.word	0x40003800

08005368 <HAL_SPI_TxCpltCallback>:
 8005368:	4770      	bx	lr
 800536a:	bf00      	nop

0800536c <HAL_SPI_RxCpltCallback>:
 800536c:	4770      	bx	lr
 800536e:	bf00      	nop

08005370 <HAL_SPI_TxRxCpltCallback>:
 8005370:	4770      	bx	lr
 8005372:	bf00      	nop

08005374 <HAL_SPI_IRQHandler>:
 8005374:	6803      	ldr	r3, [r0, #0]
 8005376:	6919      	ldr	r1, [r3, #16]
 8005378:	695a      	ldr	r2, [r3, #20]
 800537a:	f8d3 c008 	ldr.w	ip, [r3, #8]
 800537e:	e92d 41f0 	stmdb	sp!, {r4, r5, r6, r7, r8, lr}
 8005382:	ea01 0502 	and.w	r5, r1, r2
 8005386:	4604      	mov	r4, r0
 8005388:	f890 6081 	ldrb.w	r6, [r0, #129]	; 0x81
 800538c:	f005 0764 	and.w	r7, r5, #100	; 0x64
 8005390:	2f04      	cmp	r7, #4
 8005392:	d02f      	beq.n	80053f4 <HAL_SPI_IRQHandler+0x80>
 8005394:	f005 0045 	and.w	r0, r5, #69	; 0x45
 8005398:	2801      	cmp	r0, #1
 800539a:	d034      	beq.n	8005406 <HAL_SPI_IRQHandler+0x92>
 800539c:	f005 0026 	and.w	r0, r5, #38	; 0x26
 80053a0:	2802      	cmp	r0, #2
 80053a2:	f000 80df 	beq.w	8005564 <HAL_SPI_IRQHandler+0x1f0>
 80053a6:	0728      	lsls	r0, r5, #28
 80053a8:	d570      	bpl.n	800548c <HAL_SPI_IRQHandler+0x118>
 80053aa:	699a      	ldr	r2, [r3, #24]
 80053ac:	f41c 4f40 	tst.w	ip, #49152	; 0xc000
 80053b0:	b2f6      	uxtb	r6, r6
 80053b2:	f042 0208 	orr.w	r2, r2, #8
 80053b6:	619a      	str	r2, [r3, #24]
 80053b8:	699a      	ldr	r2, [r3, #24]
 80053ba:	f042 0210 	orr.w	r2, r2, #16
 80053be:	619a      	str	r2, [r3, #24]
 80053c0:	699a      	ldr	r2, [r3, #24]
 80053c2:	f442 6200 	orr.w	r2, r2, #2048	; 0x800
 80053c6:	619a      	str	r2, [r3, #24]
 80053c8:	691a      	ldr	r2, [r3, #16]
 80053ca:	f022 0208 	bic.w	r2, r2, #8
 80053ce:	611a      	str	r2, [r3, #16]
 80053d0:	d023      	beq.n	800541a <HAL_SPI_IRQHandler+0xa6>
 80053d2:	2e04      	cmp	r6, #4
 80053d4:	f000 80db 	beq.w	800558e <HAL_SPI_IRQHandler+0x21a>
 80053d8:	6fa2      	ldr	r2, [r4, #120]	; 0x78
 80053da:	69d2      	ldr	r2, [r2, #28]
 80053dc:	b1ea      	cbz	r2, 800541a <HAL_SPI_IRQHandler+0xa6>
 80053de:	2e03      	cmp	r6, #3
 80053e0:	d050      	beq.n	8005484 <HAL_SPI_IRQHandler+0x110>
 80053e2:	6fe2      	ldr	r2, [r4, #124]	; 0x7c
 80053e4:	69d2      	ldr	r2, [r2, #28]
 80053e6:	b1c2      	cbz	r2, 800541a <HAL_SPI_IRQHandler+0xa6>
 80053e8:	2e05      	cmp	r6, #5
 80053ea:	d114      	bne.n	8005416 <HAL_SPI_IRQHandler+0xa2>
 80053ec:	4620      	mov	r0, r4
 80053ee:	f7ff ffbf 	bl	8005370 <HAL_SPI_TxRxCpltCallback>
 80053f2:	e010      	b.n	8005416 <HAL_SPI_IRQHandler+0xa2>
 80053f4:	6f43      	ldr	r3, [r0, #116]	; 0x74
 80053f6:	4798      	blx	r3
 80053f8:	6f23      	ldr	r3, [r4, #112]	; 0x70
 80053fa:	4620      	mov	r0, r4
 80053fc:	4798      	blx	r3
 80053fe:	f005 0345 	and.w	r3, r5, #69	; 0x45
 8005402:	2b01      	cmp	r3, #1
 8005404:	d102      	bne.n	800540c <HAL_SPI_IRQHandler+0x98>
 8005406:	6f23      	ldr	r3, [r4, #112]	; 0x70
 8005408:	4620      	mov	r0, r4
 800540a:	4798      	blx	r3
 800540c:	f005 0526 	and.w	r5, r5, #38	; 0x26
 8005410:	2d02      	cmp	r5, #2
 8005412:	f000 80a7 	beq.w	8005564 <HAL_SPI_IRQHandler+0x1f0>
 8005416:	e8bd 81f0 	ldmia.w	sp!, {r4, r5, r6, r7, r8, pc}
 800541a:	689a      	ldr	r2, [r3, #8]
 800541c:	f412 4f40 	tst.w	r2, #49152	; 0xc000
 8005420:	d11f      	bne.n	8005462 <HAL_SPI_IRQHandler+0xee>
 8005422:	f8b4 206a 	ldrh.w	r2, [r4, #106]	; 0x6a
 8005426:	b292      	uxth	r2, r2
 8005428:	b1da      	cbz	r2, 8005462 <HAL_SPI_IRQHandler+0xee>
 800542a:	6e61      	ldr	r1, [r4, #100]	; 0x64
 800542c:	e00e      	b.n	800544c <HAL_SPI_IRQHandler+0xd8>
 800542e:	6822      	ldr	r2, [r4, #0]
 8005430:	6b12      	ldr	r2, [r2, #48]	; 0x30
 8005432:	f841 2b04 	str.w	r2, [r1], #4
 8005436:	6661      	str	r1, [r4, #100]	; 0x64
 8005438:	f8b4 206a 	ldrh.w	r2, [r4, #106]	; 0x6a
 800543c:	3a01      	subs	r2, #1
 800543e:	b292      	uxth	r2, r2
 8005440:	f8a4 206a 	strh.w	r2, [r4, #106]	; 0x6a
 8005444:	f8b4 206a 	ldrh.w	r2, [r4, #106]	; 0x6a
 8005448:	b292      	uxth	r2, r2
 800544a:	b152      	cbz	r2, 8005462 <HAL_SPI_IRQHandler+0xee>
 800544c:	68e2      	ldr	r2, [r4, #12]
 800544e:	2a0f      	cmp	r2, #15
 8005450:	d8ed      	bhi.n	800542e <HAL_SPI_IRQHandler+0xba>
 8005452:	2a07      	cmp	r2, #7
 8005454:	f240 808e 	bls.w	8005574 <HAL_SPI_IRQHandler+0x200>
 8005458:	8e1a      	ldrh	r2, [r3, #48]	; 0x30
 800545a:	f821 2b02 	strh.w	r2, [r1], #2
 800545e:	6661      	str	r1, [r4, #100]	; 0x64
 8005460:	e7ea      	b.n	8005438 <HAL_SPI_IRQHandler+0xc4>
 8005462:	4620      	mov	r0, r4
 8005464:	f7ff fe6a 	bl	800513c <SPI_CloseTransfer>
 8005468:	2301      	movs	r3, #1
 800546a:	f884 3081 	strb.w	r3, [r4, #129]	; 0x81
 800546e:	f8d4 3084 	ldr.w	r3, [r4, #132]	; 0x84
 8005472:	2b00      	cmp	r3, #0
 8005474:	d17b      	bne.n	800556e <HAL_SPI_IRQHandler+0x1fa>
 8005476:	2e05      	cmp	r6, #5
 8005478:	d0b8      	beq.n	80053ec <HAL_SPI_IRQHandler+0x78>
 800547a:	2e04      	cmp	r6, #4
 800547c:	f000 808c 	beq.w	8005598 <HAL_SPI_IRQHandler+0x224>
 8005480:	2e03      	cmp	r6, #3
 8005482:	d1c8      	bne.n	8005416 <HAL_SPI_IRQHandler+0xa2>
 8005484:	4620      	mov	r0, r4
 8005486:	f7ff ff6f 	bl	8005368 <HAL_SPI_TxCpltCallback>
 800548a:	e7c4      	b.n	8005416 <HAL_SPI_IRQHandler+0xa2>
 800548c:	0512      	lsls	r2, r2, #20
 800548e:	d501      	bpl.n	8005494 <HAL_SPI_IRQHandler+0x120>
 8005490:	070f      	lsls	r7, r1, #28
 8005492:	d477      	bmi.n	8005584 <HAL_SPI_IRQHandler+0x210>
 8005494:	f415 7f58 	tst.w	r5, #864	; 0x360
 8005498:	d0bd      	beq.n	8005416 <HAL_SPI_IRQHandler+0xa2>
 800549a:	066e      	lsls	r6, r5, #25
 800549c:	d509      	bpl.n	80054b2 <HAL_SPI_IRQHandler+0x13e>
 800549e:	f8d4 2084 	ldr.w	r2, [r4, #132]	; 0x84
 80054a2:	f042 0204 	orr.w	r2, r2, #4
 80054a6:	f8c4 2084 	str.w	r2, [r4, #132]	; 0x84
 80054aa:	699a      	ldr	r2, [r3, #24]
 80054ac:	f042 0240 	orr.w	r2, r2, #64	; 0x40
 80054b0:	619a      	str	r2, [r3, #24]
 80054b2:	05a8      	lsls	r0, r5, #22
 80054b4:	d509      	bpl.n	80054ca <HAL_SPI_IRQHandler+0x156>
 80054b6:	f8d4 2084 	ldr.w	r2, [r4, #132]	; 0x84
 80054ba:	f042 0201 	orr.w	r2, r2, #1
 80054be:	f8c4 2084 	str.w	r2, [r4, #132]	; 0x84
 80054c2:	699a      	ldr	r2, [r3, #24]
 80054c4:	f442 7200 	orr.w	r2, r2, #512	; 0x200
 80054c8:	619a      	str	r2, [r3, #24]
 80054ca:	05e9      	lsls	r1, r5, #23
 80054cc:	d509      	bpl.n	80054e2 <HAL_SPI_IRQHandler+0x16e>
 80054ce:	f8d4 2084 	ldr.w	r2, [r4, #132]	; 0x84
 80054d2:	f042 0208 	orr.w	r2, r2, #8
 80054d6:	f8c4 2084 	str.w	r2, [r4, #132]	; 0x84
 80054da:	699a      	ldr	r2, [r3, #24]
 80054dc:	f442 7280 	orr.w	r2, r2, #256	; 0x100
 80054e0:	619a      	str	r2, [r3, #24]
 80054e2:	06aa      	lsls	r2, r5, #26
 80054e4:	d509      	bpl.n	80054fa <HAL_SPI_IRQHandler+0x186>
 80054e6:	f8d4 2084 	ldr.w	r2, [r4, #132]	; 0x84
 80054ea:	f042 0280 	orr.w	r2, r2, #128	; 0x80
 80054ee:	f8c4 2084 	str.w	r2, [r4, #132]	; 0x84
 80054f2:	699a      	ldr	r2, [r3, #24]
 80054f4:	f042 0220 	orr.w	r2, r2, #32
 80054f8:	619a      	str	r2, [r3, #24]
 80054fa:	f8d4 2084 	ldr.w	r2, [r4, #132]	; 0x84
 80054fe:	2a00      	cmp	r2, #0
 8005500:	d089      	beq.n	8005416 <HAL_SPI_IRQHandler+0xa2>
 8005502:	6819      	ldr	r1, [r3, #0]
 8005504:	f40c 4c40 	and.w	ip, ip, #49152	; 0xc000
 8005508:	4a29      	ldr	r2, [pc, #164]	; (80055b0 <HAL_SPI_IRQHandler+0x23c>)
 800550a:	f021 0101 	bic.w	r1, r1, #1
 800550e:	f5bc 4f40 	cmp.w	ip, #49152	; 0xc000
 8005512:	6019      	str	r1, [r3, #0]
 8005514:	6919      	ldr	r1, [r3, #16]
 8005516:	ea02 0201 	and.w	r2, r2, r1
 800551a:	611a      	str	r2, [r3, #16]
 800551c:	d140      	bne.n	80055a0 <HAL_SPI_IRQHandler+0x22c>
 800551e:	689a      	ldr	r2, [r3, #8]
 8005520:	6fe0      	ldr	r0, [r4, #124]	; 0x7c
 8005522:	f422 4240 	bic.w	r2, r2, #49152	; 0xc000
 8005526:	609a      	str	r2, [r3, #8]
 8005528:	b150      	cbz	r0, 8005540 <HAL_SPI_IRQHandler+0x1cc>
 800552a:	4b22      	ldr	r3, [pc, #136]	; (80055b4 <HAL_SPI_IRQHandler+0x240>)
 800552c:	6503      	str	r3, [r0, #80]	; 0x50
 800552e:	f7fd fb89 	bl	8002c44 <HAL_DMA_Abort_IT>
 8005532:	b128      	cbz	r0, 8005540 <HAL_SPI_IRQHandler+0x1cc>
 8005534:	f8d4 3084 	ldr.w	r3, [r4, #132]	; 0x84
 8005538:	f043 0340 	orr.w	r3, r3, #64	; 0x40
 800553c:	f8c4 3084 	str.w	r3, [r4, #132]	; 0x84
 8005540:	6fa0      	ldr	r0, [r4, #120]	; 0x78
 8005542:	2800      	cmp	r0, #0
 8005544:	f43f af67 	beq.w	8005416 <HAL_SPI_IRQHandler+0xa2>
 8005548:	4b1a      	ldr	r3, [pc, #104]	; (80055b4 <HAL_SPI_IRQHandler+0x240>)
 800554a:	6503      	str	r3, [r0, #80]	; 0x50
 800554c:	f7fd fb7a 	bl	8002c44 <HAL_DMA_Abort_IT>
 8005550:	2800      	cmp	r0, #0
 8005552:	f43f af60 	beq.w	8005416 <HAL_SPI_IRQHandler+0xa2>
 8005556:	f8d4 3084 	ldr.w	r3, [r4, #132]	; 0x84
 800555a:	f043 0340 	orr.w	r3, r3, #64	; 0x40
 800555e:	f8c4 3084 	str.w	r3, [r4, #132]	; 0x84
 8005562:	e758      	b.n	8005416 <HAL_SPI_IRQHandler+0xa2>
 8005564:	6f63      	ldr	r3, [r4, #116]	; 0x74
 8005566:	4620      	mov	r0, r4
 8005568:	e8bd 41f0 	ldmia.w	sp!, {r4, r5, r6, r7, r8, lr}
 800556c:	4718      	bx	r3
 800556e:	f7fb fee5 	bl	800133c <HAL_SPI_ErrorCallback>
 8005572:	e750      	b.n	8005416 <HAL_SPI_IRQHandler+0xa2>
 8005574:	6822      	ldr	r2, [r4, #0]
 8005576:	f892 2030 	ldrb.w	r2, [r2, #48]	; 0x30
 800557a:	700a      	strb	r2, [r1, #0]
 800557c:	6e61      	ldr	r1, [r4, #100]	; 0x64
 800557e:	3101      	adds	r1, #1
 8005580:	6661      	str	r1, [r4, #100]	; 0x64
 8005582:	e759      	b.n	8005438 <HAL_SPI_IRQHandler+0xc4>
 8005584:	699a      	ldr	r2, [r3, #24]
 8005586:	f442 6200 	orr.w	r2, r2, #2048	; 0x800
 800558a:	619a      	str	r2, [r3, #24]
 800558c:	e743      	b.n	8005416 <HAL_SPI_IRQHandler+0xa2>
 800558e:	6fe2      	ldr	r2, [r4, #124]	; 0x7c
 8005590:	69d2      	ldr	r2, [r2, #28]
 8005592:	2a00      	cmp	r2, #0
 8005594:	f43f af41 	beq.w	800541a <HAL_SPI_IRQHandler+0xa6>
 8005598:	4620      	mov	r0, r4
 800559a:	f7ff fee7 	bl	800536c <HAL_SPI_RxCpltCallback>
 800559e:	e73a      	b.n	8005416 <HAL_SPI_IRQHandler+0xa2>
 80055a0:	2301      	movs	r3, #1
 80055a2:	4620      	mov	r0, r4
 80055a4:	f884 3081 	strb.w	r3, [r4, #129]	; 0x81
 80055a8:	f7fb fec8 	bl	800133c <HAL_SPI_ErrorCallback>
 80055ac:	e733      	b.n	8005416 <HAL_SPI_IRQHandler+0xa2>
 80055ae:	bf00      	nop
 80055b0:	fffffc94 	.word	0xfffffc94
 80055b4:	080055b9 	.word	0x080055b9

080055b8 <SPI_DMAAbortOnError>:
 80055b8:	b508      	push	{r3, lr}
 80055ba:	6b80      	ldr	r0, [r0, #56]	; 0x38
 80055bc:	2300      	movs	r3, #0
 80055be:	2201      	movs	r2, #1
 80055c0:	f8a0 306a 	strh.w	r3, [r0, #106]	; 0x6a
 80055c4:	f8a0 3062 	strh.w	r3, [r0, #98]	; 0x62
 80055c8:	f880 2081 	strb.w	r2, [r0, #129]	; 0x81
 80055cc:	f7fb feb6 	bl	800133c <HAL_SPI_ErrorCallback>
 80055d0:	bd08      	pop	{r3, pc}
 80055d2:	bf00      	nop

080055d4 <HAL_UART_Transmit_DMA>:
 80055d4:	b5f8      	push	{r3, r4, r5, r6, r7, lr}
 80055d6:	f8d0 7084 	ldr.w	r7, [r0, #132]	; 0x84
 80055da:	2f20      	cmp	r7, #32
 80055dc:	d141      	bne.n	8005662 <HAL_UART_Transmit_DMA+0x8e>
 80055de:	2900      	cmp	r1, #0
 80055e0:	d03d      	beq.n	800565e <HAL_UART_Transmit_DMA+0x8a>
 80055e2:	fab2 f682 	clz	r6, r2
 80055e6:	0976      	lsrs	r6, r6, #5
 80055e8:	2a00      	cmp	r2, #0
 80055ea:	d038      	beq.n	800565e <HAL_UART_Transmit_DMA+0x8a>
 80055ec:	4604      	mov	r4, r0
 80055ee:	f890 0080 	ldrb.w	r0, [r0, #128]	; 0x80
 80055f2:	2801      	cmp	r0, #1
 80055f4:	d035      	beq.n	8005662 <HAL_UART_Transmit_DMA+0x8e>
 80055f6:	2501      	movs	r5, #1
 80055f8:	f04f 0c21 	mov.w	ip, #33	; 0x21
 80055fc:	6fa0      	ldr	r0, [r4, #120]	; 0x78
 80055fe:	f8a4 2056 	strh.w	r2, [r4, #86]	; 0x56
 8005602:	6521      	str	r1, [r4, #80]	; 0x50
 8005604:	f8c4 608c 	str.w	r6, [r4, #140]	; 0x8c
 8005608:	f8a4 2054 	strh.w	r2, [r4, #84]	; 0x54
 800560c:	f884 5080 	strb.w	r5, [r4, #128]	; 0x80
 8005610:	f8c4 c084 	str.w	ip, [r4, #132]	; 0x84
 8005614:	b1c0      	cbz	r0, 8005648 <HAL_UART_Transmit_DMA+0x74>
 8005616:	f8df c054 	ldr.w	ip, [pc, #84]	; 800566c <HAL_UART_Transmit_DMA+0x98>
 800561a:	4613      	mov	r3, r2
 800561c:	4a12      	ldr	r2, [pc, #72]	; (8005668 <HAL_UART_Transmit_DMA+0x94>)
 800561e:	6506      	str	r6, [r0, #80]	; 0x50
 8005620:	e9c0 c20f 	strd	ip, r2, [r0, #60]	; 0x3c
 8005624:	6822      	ldr	r2, [r4, #0]
 8005626:	f8df c048 	ldr.w	ip, [pc, #72]	; 8005670 <HAL_UART_Transmit_DMA+0x9c>
 800562a:	3228      	adds	r2, #40	; 0x28
 800562c:	f8c0 c04c 	str.w	ip, [r0, #76]	; 0x4c
 8005630:	f7fd f8ac 	bl	800278c <HAL_DMA_Start_IT>
 8005634:	b140      	cbz	r0, 8005648 <HAL_UART_Transmit_DMA+0x74>
 8005636:	2310      	movs	r3, #16
 8005638:	4628      	mov	r0, r5
 800563a:	f884 6080 	strb.w	r6, [r4, #128]	; 0x80
 800563e:	f8c4 308c 	str.w	r3, [r4, #140]	; 0x8c
 8005642:	f8c4 7084 	str.w	r7, [r4, #132]	; 0x84
 8005646:	bdf8      	pop	{r3, r4, r5, r6, r7, pc}
 8005648:	6823      	ldr	r3, [r4, #0]
 800564a:	2240      	movs	r2, #64	; 0x40
 800564c:	2000      	movs	r0, #0
 800564e:	621a      	str	r2, [r3, #32]
 8005650:	f884 0080 	strb.w	r0, [r4, #128]	; 0x80
 8005654:	689a      	ldr	r2, [r3, #8]
 8005656:	f042 0280 	orr.w	r2, r2, #128	; 0x80
 800565a:	609a      	str	r2, [r3, #8]
 800565c:	bdf8      	pop	{r3, r4, r5, r6, r7, pc}
 800565e:	2001      	movs	r0, #1
 8005660:	bdf8      	pop	{r3, r4, r5, r6, r7, pc}
 8005662:	2002      	movs	r0, #2
 8005664:	bdf8      	pop	{r3, r4, r5, r6, r7, pc}
 8005666:	bf00      	nop
 8005668:	080056a9 	.word	0x080056a9
 800566c:	08005679 	.word	0x08005679
 8005670:	080056b5 	.word	0x080056b5

08005674 <HAL_UART_TxCpltCallback>:
 8005674:	4770      	bx	lr
 8005676:	bf00      	nop

08005678 <UART_DMATransmitCplt>:
 8005678:	b508      	push	{r3, lr}
 800567a:	69c3      	ldr	r3, [r0, #28]
 800567c:	6b80      	ldr	r0, [r0, #56]	; 0x38
 800567e:	f5b3 7f80 	cmp.w	r3, #256	; 0x100
 8005682:	d00c      	beq.n	800569e <UART_DMATransmitCplt+0x26>
 8005684:	6803      	ldr	r3, [r0, #0]
 8005686:	2200      	movs	r2, #0
 8005688:	f8a0 2056 	strh.w	r2, [r0, #86]	; 0x56
 800568c:	689a      	ldr	r2, [r3, #8]
 800568e:	f022 0280 	bic.w	r2, r2, #128	; 0x80
 8005692:	609a      	str	r2, [r3, #8]
 8005694:	681a      	ldr	r2, [r3, #0]
 8005696:	f042 0240 	orr.w	r2, r2, #64	; 0x40
 800569a:	601a      	str	r2, [r3, #0]
 800569c:	bd08      	pop	{r3, pc}
 800569e:	f7ff ffe9 	bl	8005674 <HAL_UART_TxCpltCallback>
 80056a2:	bd08      	pop	{r3, pc}

080056a4 <HAL_UART_TxHalfCpltCallback>:
 80056a4:	4770      	bx	lr
 80056a6:	bf00      	nop

080056a8 <UART_DMATxHalfCplt>:
 80056a8:	6b80      	ldr	r0, [r0, #56]	; 0x38
 80056aa:	b508      	push	{r3, lr}
 80056ac:	f7ff fffa 	bl	80056a4 <HAL_UART_TxHalfCpltCallback>
 80056b0:	bd08      	pop	{r3, pc}
 80056b2:	bf00      	nop

080056b4 <UART_DMAError>:
 80056b4:	6b80      	ldr	r0, [r0, #56]	; 0x38
 80056b6:	6803      	ldr	r3, [r0, #0]
 80056b8:	b510      	push	{r4, lr}
 80056ba:	f8d0 4084 	ldr.w	r4, [r0, #132]	; 0x84
 80056be:	f8d0 1088 	ldr.w	r1, [r0, #136]	; 0x88
 80056c2:	689a      	ldr	r2, [r3, #8]
 80056c4:	0612      	lsls	r2, r2, #24
 80056c6:	d501      	bpl.n	80056cc <UART_DMAError+0x18>
 80056c8:	2c21      	cmp	r4, #33	; 0x21
 80056ca:	d026      	beq.n	800571a <UART_DMAError+0x66>
 80056cc:	689a      	ldr	r2, [r3, #8]
 80056ce:	0652      	lsls	r2, r2, #25
 80056d0:	d501      	bpl.n	80056d6 <UART_DMAError+0x22>
 80056d2:	2922      	cmp	r1, #34	; 0x22
 80056d4:	d008      	beq.n	80056e8 <UART_DMAError+0x34>
 80056d6:	f8d0 308c 	ldr.w	r3, [r0, #140]	; 0x8c
 80056da:	f043 0310 	orr.w	r3, r3, #16
 80056de:	f8c0 308c 	str.w	r3, [r0, #140]	; 0x8c
 80056e2:	f7fb fe33 	bl	800134c <HAL_UART_ErrorCallback>
 80056e6:	bd10      	pop	{r4, pc}
 80056e8:	2100      	movs	r1, #0
 80056ea:	4a13      	ldr	r2, [pc, #76]	; (8005738 <UART_DMAError+0x84>)
 80056ec:	f8a0 105e 	strh.w	r1, [r0, #94]	; 0x5e
 80056f0:	6819      	ldr	r1, [r3, #0]
 80056f2:	f421 7190 	bic.w	r1, r1, #288	; 0x120
 80056f6:	6019      	str	r1, [r3, #0]
 80056f8:	6899      	ldr	r1, [r3, #8]
 80056fa:	400a      	ands	r2, r1
 80056fc:	609a      	str	r2, [r3, #8]
 80056fe:	6ec2      	ldr	r2, [r0, #108]	; 0x6c
 8005700:	2a01      	cmp	r2, #1
 8005702:	d103      	bne.n	800570c <UART_DMAError+0x58>
 8005704:	681a      	ldr	r2, [r3, #0]
 8005706:	f022 0210 	bic.w	r2, r2, #16
 800570a:	601a      	str	r2, [r3, #0]
 800570c:	2300      	movs	r3, #0
 800570e:	2220      	movs	r2, #32
 8005710:	6703      	str	r3, [r0, #112]	; 0x70
 8005712:	f8c0 2088 	str.w	r2, [r0, #136]	; 0x88
 8005716:	66c3      	str	r3, [r0, #108]	; 0x6c
 8005718:	e7dd      	b.n	80056d6 <UART_DMAError+0x22>
 800571a:	2200      	movs	r2, #0
 800571c:	2420      	movs	r4, #32
 800571e:	f8a0 2056 	strh.w	r2, [r0, #86]	; 0x56
 8005722:	681a      	ldr	r2, [r3, #0]
 8005724:	f022 02c0 	bic.w	r2, r2, #192	; 0xc0
 8005728:	601a      	str	r2, [r3, #0]
 800572a:	689a      	ldr	r2, [r3, #8]
 800572c:	f422 0200 	bic.w	r2, r2, #8388608	; 0x800000
 8005730:	609a      	str	r2, [r3, #8]
 8005732:	f8c0 4084 	str.w	r4, [r0, #132]	; 0x84
 8005736:	e7c9      	b.n	80056cc <UART_DMAError+0x18>
 8005738:	effffffe 	.word	0xeffffffe

0800573c <UART_DMAAbortOnError>:
 800573c:	b508      	push	{r3, lr}
 800573e:	6b80      	ldr	r0, [r0, #56]	; 0x38
 8005740:	2300      	movs	r3, #0
 8005742:	f8a0 305e 	strh.w	r3, [r0, #94]	; 0x5e
 8005746:	f8a0 3056 	strh.w	r3, [r0, #86]	; 0x56
 800574a:	f7fb fdff 	bl	800134c <HAL_UART_ErrorCallback>
 800574e:	bd08      	pop	{r3, pc}

08005750 <HAL_UARTEx_RxEventCallback>:
 8005750:	4770      	bx	lr
 8005752:	bf00      	nop

08005754 <HAL_UART_IRQHandler>:
 8005754:	6802      	ldr	r2, [r0, #0]
 8005756:	e92d 41f0 	stmdb	sp!, {r4, r5, r6, r7, r8, lr}
 800575a:	69d3      	ldr	r3, [r2, #28]
 800575c:	f640 060f 	movw	r6, #2063	; 0x80f
 8005760:	6815      	ldr	r5, [r2, #0]
 8005762:	4604      	mov	r4, r0
 8005764:	4233      	tst	r3, r6
 8005766:	6891      	ldr	r1, [r2, #8]
 8005768:	d027      	beq.n	80057ba <HAL_UART_IRQHandler+0x66>
 800576a:	48a8      	ldr	r0, [pc, #672]	; (8005a0c <HAL_UART_IRQHandler+0x2b8>)
 800576c:	4ea8      	ldr	r6, [pc, #672]	; (8005a10 <HAL_UART_IRQHandler+0x2bc>)
 800576e:	4008      	ands	r0, r1
 8005770:	402e      	ands	r6, r5
 8005772:	4306      	orrs	r6, r0
 8005774:	d16b      	bne.n	800584e <HAL_UART_IRQHandler+0xfa>
 8005776:	6ee0      	ldr	r0, [r4, #108]	; 0x6c
 8005778:	2801      	cmp	r0, #1
 800577a:	d02c      	beq.n	80057d6 <HAL_UART_IRQHandler+0x82>
 800577c:	02de      	lsls	r6, r3, #11
 800577e:	d502      	bpl.n	8005786 <HAL_UART_IRQHandler+0x32>
 8005780:	0248      	lsls	r0, r1, #9
 8005782:	f100 80ee 	bmi.w	8005962 <HAL_UART_IRQHandler+0x20e>
 8005786:	061f      	lsls	r7, r3, #24
 8005788:	d506      	bpl.n	8005798 <HAL_UART_IRQHandler+0x44>
 800578a:	f401 0100 	and.w	r1, r1, #8388608	; 0x800000
 800578e:	f005 0080 	and.w	r0, r5, #128	; 0x80
 8005792:	4301      	orrs	r1, r0
 8005794:	f040 80dd 	bne.w	8005952 <HAL_UART_IRQHandler+0x1fe>
 8005798:	065e      	lsls	r6, r3, #25
 800579a:	d502      	bpl.n	80057a2 <HAL_UART_IRQHandler+0x4e>
 800579c:	0668      	lsls	r0, r5, #25
 800579e:	f100 80ec 	bmi.w	800597a <HAL_UART_IRQHandler+0x226>
 80057a2:	0219      	lsls	r1, r3, #8
 80057a4:	d502      	bpl.n	80057ac <HAL_UART_IRQHandler+0x58>
 80057a6:	006a      	lsls	r2, r5, #1
 80057a8:	f100 80f4 	bmi.w	8005994 <HAL_UART_IRQHandler+0x240>
 80057ac:	01db      	lsls	r3, r3, #7
 80057ae:	d502      	bpl.n	80057b6 <HAL_UART_IRQHandler+0x62>
 80057b0:	2d00      	cmp	r5, #0
 80057b2:	f2c0 811f 	blt.w	80059f4 <HAL_UART_IRQHandler+0x2a0>
 80057b6:	e8bd 81f0 	ldmia.w	sp!, {r4, r5, r6, r7, r8, pc}
 80057ba:	069e      	lsls	r6, r3, #26
 80057bc:	d5db      	bpl.n	8005776 <HAL_UART_IRQHandler+0x22>
 80057be:	f005 0620 	and.w	r6, r5, #32
 80057c2:	f001 5780 	and.w	r7, r1, #268435456	; 0x10000000
 80057c6:	433e      	orrs	r6, r7
 80057c8:	d0d5      	beq.n	8005776 <HAL_UART_IRQHandler+0x22>
 80057ca:	6f03      	ldr	r3, [r0, #112]	; 0x70
 80057cc:	2b00      	cmp	r3, #0
 80057ce:	d0f2      	beq.n	80057b6 <HAL_UART_IRQHandler+0x62>
 80057d0:	e8bd 41f0 	ldmia.w	sp!, {r4, r5, r6, r7, r8, lr}
 80057d4:	4718      	bx	r3
 80057d6:	06d8      	lsls	r0, r3, #27
 80057d8:	d5d0      	bpl.n	800577c <HAL_UART_IRQHandler+0x28>
 80057da:	06ef      	lsls	r7, r5, #27
 80057dc:	d5ce      	bpl.n	800577c <HAL_UART_IRQHandler+0x28>
 80057de:	2310      	movs	r3, #16
 80057e0:	6213      	str	r3, [r2, #32]
 80057e2:	6893      	ldr	r3, [r2, #8]
 80057e4:	f013 0340 	ands.w	r3, r3, #64	; 0x40
 80057e8:	f000 80e0 	beq.w	80059ac <HAL_UART_IRQHandler+0x258>
 80057ec:	6fe0      	ldr	r0, [r4, #124]	; 0x7c
 80057ee:	6801      	ldr	r1, [r0, #0]
 80057f0:	684b      	ldr	r3, [r1, #4]
 80057f2:	b29b      	uxth	r3, r3
 80057f4:	2b00      	cmp	r3, #0
 80057f6:	d0de      	beq.n	80057b6 <HAL_UART_IRQHandler+0x62>
 80057f8:	f8b4 105c 	ldrh.w	r1, [r4, #92]	; 0x5c
 80057fc:	4299      	cmp	r1, r3
 80057fe:	d9da      	bls.n	80057b6 <HAL_UART_IRQHandler+0x62>
 8005800:	69c5      	ldr	r5, [r0, #28]
 8005802:	f8a4 305e 	strh.w	r3, [r4, #94]	; 0x5e
 8005806:	f5b5 7f80 	cmp.w	r5, #256	; 0x100
 800580a:	d018      	beq.n	800583e <HAL_UART_IRQHandler+0xea>
 800580c:	6813      	ldr	r3, [r2, #0]
 800580e:	2100      	movs	r1, #0
 8005810:	2520      	movs	r5, #32
 8005812:	f423 7380 	bic.w	r3, r3, #256	; 0x100
 8005816:	6013      	str	r3, [r2, #0]
 8005818:	6893      	ldr	r3, [r2, #8]
 800581a:	f023 0301 	bic.w	r3, r3, #1
 800581e:	6093      	str	r3, [r2, #8]
 8005820:	6893      	ldr	r3, [r2, #8]
 8005822:	f023 0340 	bic.w	r3, r3, #64	; 0x40
 8005826:	6093      	str	r3, [r2, #8]
 8005828:	f8c4 5088 	str.w	r5, [r4, #136]	; 0x88
 800582c:	66e1      	str	r1, [r4, #108]	; 0x6c
 800582e:	6813      	ldr	r3, [r2, #0]
 8005830:	f023 0310 	bic.w	r3, r3, #16
 8005834:	6013      	str	r3, [r2, #0]
 8005836:	f7fd f885 	bl	8002944 <HAL_DMA_Abort>
 800583a:	f8b4 105c 	ldrh.w	r1, [r4, #92]	; 0x5c
 800583e:	f8b4 305e 	ldrh.w	r3, [r4, #94]	; 0x5e
 8005842:	4620      	mov	r0, r4
 8005844:	1ac9      	subs	r1, r1, r3
 8005846:	b289      	uxth	r1, r1
 8005848:	f7ff ff82 	bl	8005750 <HAL_UARTEx_RxEventCallback>
 800584c:	e7b3      	b.n	80057b6 <HAL_UART_IRQHandler+0x62>
 800584e:	07df      	lsls	r7, r3, #31
 8005850:	d509      	bpl.n	8005866 <HAL_UART_IRQHandler+0x112>
 8005852:	05ee      	lsls	r6, r5, #23
 8005854:	d507      	bpl.n	8005866 <HAL_UART_IRQHandler+0x112>
 8005856:	2601      	movs	r6, #1
 8005858:	6216      	str	r6, [r2, #32]
 800585a:	f8d4 608c 	ldr.w	r6, [r4, #140]	; 0x8c
 800585e:	f046 0601 	orr.w	r6, r6, #1
 8005862:	f8c4 608c 	str.w	r6, [r4, #140]	; 0x8c
 8005866:	079f      	lsls	r7, r3, #30
 8005868:	d566      	bpl.n	8005938 <HAL_UART_IRQHandler+0x1e4>
 800586a:	07ce      	lsls	r6, r1, #31
 800586c:	d509      	bpl.n	8005882 <HAL_UART_IRQHandler+0x12e>
 800586e:	2602      	movs	r6, #2
 8005870:	075f      	lsls	r7, r3, #29
 8005872:	6216      	str	r6, [r2, #32]
 8005874:	f8d4 608c 	ldr.w	r6, [r4, #140]	; 0x8c
 8005878:	f046 0604 	orr.w	r6, r6, #4
 800587c:	f8c4 608c 	str.w	r6, [r4, #140]	; 0x8c
 8005880:	d45e      	bmi.n	8005940 <HAL_UART_IRQHandler+0x1ec>
 8005882:	071e      	lsls	r6, r3, #28
 8005884:	d50b      	bpl.n	800589e <HAL_UART_IRQHandler+0x14a>
 8005886:	f005 0620 	and.w	r6, r5, #32
 800588a:	4330      	orrs	r0, r6
 800588c:	d007      	beq.n	800589e <HAL_UART_IRQHandler+0x14a>
 800588e:	2008      	movs	r0, #8
 8005890:	6210      	str	r0, [r2, #32]
 8005892:	f8d4 008c 	ldr.w	r0, [r4, #140]	; 0x8c
 8005896:	f040 0008 	orr.w	r0, r0, #8
 800589a:	f8c4 008c 	str.w	r0, [r4, #140]	; 0x8c
 800589e:	0518      	lsls	r0, r3, #20
 80058a0:	d50a      	bpl.n	80058b8 <HAL_UART_IRQHandler+0x164>
 80058a2:	016f      	lsls	r7, r5, #5
 80058a4:	d508      	bpl.n	80058b8 <HAL_UART_IRQHandler+0x164>
 80058a6:	f44f 6000 	mov.w	r0, #2048	; 0x800
 80058aa:	6210      	str	r0, [r2, #32]
 80058ac:	f8d4 008c 	ldr.w	r0, [r4, #140]	; 0x8c
 80058b0:	f040 0020 	orr.w	r0, r0, #32
 80058b4:	f8c4 008c 	str.w	r0, [r4, #140]	; 0x8c
 80058b8:	f8d4 008c 	ldr.w	r0, [r4, #140]	; 0x8c
 80058bc:	2800      	cmp	r0, #0
 80058be:	f43f af7a 	beq.w	80057b6 <HAL_UART_IRQHandler+0x62>
 80058c2:	069e      	lsls	r6, r3, #26
 80058c4:	d506      	bpl.n	80058d4 <HAL_UART_IRQHandler+0x180>
 80058c6:	f005 0520 	and.w	r5, r5, #32
 80058ca:	f001 5180 	and.w	r1, r1, #268435456	; 0x10000000
 80058ce:	ea55 0301 	orrs.w	r3, r5, r1
 80058d2:	d164      	bne.n	800599e <HAL_UART_IRQHandler+0x24a>
 80058d4:	f8d4 508c 	ldr.w	r5, [r4, #140]	; 0x8c
 80058d8:	6893      	ldr	r3, [r2, #8]
 80058da:	f005 0528 	and.w	r5, r5, #40	; 0x28
 80058de:	f003 0340 	and.w	r3, r3, #64	; 0x40
 80058e2:	431d      	orrs	r5, r3
 80058e4:	f000 808b 	beq.w	80059fe <HAL_UART_IRQHandler+0x2aa>
 80058e8:	6811      	ldr	r1, [r2, #0]
 80058ea:	4b4a      	ldr	r3, [pc, #296]	; (8005a14 <HAL_UART_IRQHandler+0x2c0>)
 80058ec:	f421 7190 	bic.w	r1, r1, #288	; 0x120
 80058f0:	6011      	str	r1, [r2, #0]
 80058f2:	6891      	ldr	r1, [r2, #8]
 80058f4:	400b      	ands	r3, r1
 80058f6:	6093      	str	r3, [r2, #8]
 80058f8:	6ee3      	ldr	r3, [r4, #108]	; 0x6c
 80058fa:	2b01      	cmp	r3, #1
 80058fc:	d103      	bne.n	8005906 <HAL_UART_IRQHandler+0x1b2>
 80058fe:	6813      	ldr	r3, [r2, #0]
 8005900:	f023 0310 	bic.w	r3, r3, #16
 8005904:	6013      	str	r3, [r2, #0]
 8005906:	2120      	movs	r1, #32
 8005908:	2300      	movs	r3, #0
 800590a:	f8c4 1088 	str.w	r1, [r4, #136]	; 0x88
 800590e:	66e3      	str	r3, [r4, #108]	; 0x6c
 8005910:	6891      	ldr	r1, [r2, #8]
 8005912:	6723      	str	r3, [r4, #112]	; 0x70
 8005914:	064d      	lsls	r5, r1, #25
 8005916:	d52c      	bpl.n	8005972 <HAL_UART_IRQHandler+0x21e>
 8005918:	6893      	ldr	r3, [r2, #8]
 800591a:	6fe0      	ldr	r0, [r4, #124]	; 0x7c
 800591c:	f023 0340 	bic.w	r3, r3, #64	; 0x40
 8005920:	6093      	str	r3, [r2, #8]
 8005922:	b330      	cbz	r0, 8005972 <HAL_UART_IRQHandler+0x21e>
 8005924:	4b3c      	ldr	r3, [pc, #240]	; (8005a18 <HAL_UART_IRQHandler+0x2c4>)
 8005926:	6503      	str	r3, [r0, #80]	; 0x50
 8005928:	f7fd f98c 	bl	8002c44 <HAL_DMA_Abort_IT>
 800592c:	2800      	cmp	r0, #0
 800592e:	f43f af42 	beq.w	80057b6 <HAL_UART_IRQHandler+0x62>
 8005932:	6fe0      	ldr	r0, [r4, #124]	; 0x7c
 8005934:	6d03      	ldr	r3, [r0, #80]	; 0x50
 8005936:	e74b      	b.n	80057d0 <HAL_UART_IRQHandler+0x7c>
 8005938:	075e      	lsls	r6, r3, #29
 800593a:	d5a2      	bpl.n	8005882 <HAL_UART_IRQHandler+0x12e>
 800593c:	07cf      	lsls	r7, r1, #31
 800593e:	d5a0      	bpl.n	8005882 <HAL_UART_IRQHandler+0x12e>
 8005940:	2604      	movs	r6, #4
 8005942:	6216      	str	r6, [r2, #32]
 8005944:	f8d4 608c 	ldr.w	r6, [r4, #140]	; 0x8c
 8005948:	f046 0602 	orr.w	r6, r6, #2
 800594c:	f8c4 608c 	str.w	r6, [r4, #140]	; 0x8c
 8005950:	e797      	b.n	8005882 <HAL_UART_IRQHandler+0x12e>
 8005952:	6f63      	ldr	r3, [r4, #116]	; 0x74
 8005954:	2b00      	cmp	r3, #0
 8005956:	f43f af2e 	beq.w	80057b6 <HAL_UART_IRQHandler+0x62>
 800595a:	4620      	mov	r0, r4
 800595c:	e8bd 41f0 	ldmia.w	sp!, {r4, r5, r6, r7, r8, lr}
 8005960:	4718      	bx	r3
 8005962:	f44f 1380 	mov.w	r3, #1048576	; 0x100000
 8005966:	4620      	mov	r0, r4
 8005968:	6213      	str	r3, [r2, #32]
 800596a:	e8bd 41f0 	ldmia.w	sp!, {r4, r5, r6, r7, r8, lr}
 800596e:	f000 bc3b 	b.w	80061e8 <HAL_UARTEx_WakeupCallback>
 8005972:	4620      	mov	r0, r4
 8005974:	f7fb fcea 	bl	800134c <HAL_UART_ErrorCallback>
 8005978:	e71d      	b.n	80057b6 <HAL_UART_IRQHandler+0x62>
 800597a:	6813      	ldr	r3, [r2, #0]
 800597c:	2520      	movs	r5, #32
 800597e:	2100      	movs	r1, #0
 8005980:	4620      	mov	r0, r4
 8005982:	f023 0340 	bic.w	r3, r3, #64	; 0x40
 8005986:	6013      	str	r3, [r2, #0]
 8005988:	f8c4 5084 	str.w	r5, [r4, #132]	; 0x84
 800598c:	6761      	str	r1, [r4, #116]	; 0x74
 800598e:	f7ff fe71 	bl	8005674 <HAL_UART_TxCpltCallback>
 8005992:	e710      	b.n	80057b6 <HAL_UART_IRQHandler+0x62>
 8005994:	4620      	mov	r0, r4
 8005996:	e8bd 41f0 	ldmia.w	sp!, {r4, r5, r6, r7, r8, lr}
 800599a:	f000 bc29 	b.w	80061f0 <HAL_UARTEx_TxFifoEmptyCallback>
 800599e:	6f23      	ldr	r3, [r4, #112]	; 0x70
 80059a0:	2b00      	cmp	r3, #0
 80059a2:	d097      	beq.n	80058d4 <HAL_UART_IRQHandler+0x180>
 80059a4:	4620      	mov	r0, r4
 80059a6:	4798      	blx	r3
 80059a8:	6822      	ldr	r2, [r4, #0]
 80059aa:	e793      	b.n	80058d4 <HAL_UART_IRQHandler+0x180>
 80059ac:	f8b4 505e 	ldrh.w	r5, [r4, #94]	; 0x5e
 80059b0:	f8b4 105c 	ldrh.w	r1, [r4, #92]	; 0x5c
 80059b4:	f8b4 005e 	ldrh.w	r0, [r4, #94]	; 0x5e
 80059b8:	1b49      	subs	r1, r1, r5
 80059ba:	b280      	uxth	r0, r0
 80059bc:	b289      	uxth	r1, r1
 80059be:	2800      	cmp	r0, #0
 80059c0:	f43f aef9 	beq.w	80057b6 <HAL_UART_IRQHandler+0x62>
 80059c4:	2900      	cmp	r1, #0
 80059c6:	f43f aef6 	beq.w	80057b6 <HAL_UART_IRQHandler+0x62>
 80059ca:	6816      	ldr	r6, [r2, #0]
 80059cc:	2720      	movs	r7, #32
 80059ce:	4d11      	ldr	r5, [pc, #68]	; (8005a14 <HAL_UART_IRQHandler+0x2c0>)
 80059d0:	4620      	mov	r0, r4
 80059d2:	f426 7690 	bic.w	r6, r6, #288	; 0x120
 80059d6:	6016      	str	r6, [r2, #0]
 80059d8:	6896      	ldr	r6, [r2, #8]
 80059da:	4035      	ands	r5, r6
 80059dc:	6095      	str	r5, [r2, #8]
 80059de:	f8c4 7088 	str.w	r7, [r4, #136]	; 0x88
 80059e2:	66e3      	str	r3, [r4, #108]	; 0x6c
 80059e4:	6815      	ldr	r5, [r2, #0]
 80059e6:	6723      	str	r3, [r4, #112]	; 0x70
 80059e8:	f025 0510 	bic.w	r5, r5, #16
 80059ec:	6015      	str	r5, [r2, #0]
 80059ee:	f7ff feaf 	bl	8005750 <HAL_UARTEx_RxEventCallback>
 80059f2:	e6e0      	b.n	80057b6 <HAL_UART_IRQHandler+0x62>
 80059f4:	4620      	mov	r0, r4
 80059f6:	e8bd 41f0 	ldmia.w	sp!, {r4, r5, r6, r7, r8, lr}
 80059fa:	f000 bbf7 	b.w	80061ec <HAL_UARTEx_RxFifoFullCallback>
 80059fe:	4620      	mov	r0, r4
 8005a00:	f7fb fca4 	bl	800134c <HAL_UART_ErrorCallback>
 8005a04:	f8c4 508c 	str.w	r5, [r4, #140]	; 0x8c
 8005a08:	e6d5      	b.n	80057b6 <HAL_UART_IRQHandler+0x62>
 8005a0a:	bf00      	nop
 8005a0c:	10000001 	.word	0x10000001
 8005a10:	04000120 	.word	0x04000120
 8005a14:	effffffe 	.word	0xeffffffe
 8005a18:	0800573d 	.word	0x0800573d

08005a1c <UART_SetConfig>:
 8005a1c:	b5f0      	push	{r4, r5, r6, r7, lr}
 8005a1e:	6883      	ldr	r3, [r0, #8]
 8005a20:	4604      	mov	r4, r0
 8005a22:	49ca      	ldr	r1, [pc, #808]	; (8005d4c <UART_SetConfig+0x330>)
 8005a24:	b087      	sub	sp, #28
 8005a26:	68e7      	ldr	r7, [r4, #12]
 8005a28:	4dc9      	ldr	r5, [pc, #804]	; (8005d50 <UART_SetConfig+0x334>)
 8005a2a:	e9d0 2604 	ldrd	r2, r6, [r0, #16]
 8005a2e:	431a      	orrs	r2, r3
 8005a30:	6803      	ldr	r3, [r0, #0]
 8005a32:	69c0      	ldr	r0, [r0, #28]
 8005a34:	4332      	orrs	r2, r6
 8005a36:	681e      	ldr	r6, [r3, #0]
 8005a38:	42ab      	cmp	r3, r5
 8005a3a:	ea01 0106 	and.w	r1, r1, r6
 8005a3e:	ea42 0200 	orr.w	r2, r2, r0
 8005a42:	69a6      	ldr	r6, [r4, #24]
 8005a44:	ea42 0201 	orr.w	r2, r2, r1
 8005a48:	601a      	str	r2, [r3, #0]
 8005a4a:	685a      	ldr	r2, [r3, #4]
 8005a4c:	f422 5240 	bic.w	r2, r2, #12288	; 0x3000
 8005a50:	ea42 0207 	orr.w	r2, r2, r7
 8005a54:	605a      	str	r2, [r3, #4]
 8005a56:	f000 80e1 	beq.w	8005c1c <UART_SetConfig+0x200>
 8005a5a:	689d      	ldr	r5, [r3, #8]
 8005a5c:	6a22      	ldr	r2, [r4, #32]
 8005a5e:	49bd      	ldr	r1, [pc, #756]	; (8005d54 <UART_SetConfig+0x338>)
 8005a60:	4332      	orrs	r2, r6
 8005a62:	4ebd      	ldr	r6, [pc, #756]	; (8005d58 <UART_SetConfig+0x33c>)
 8005a64:	4029      	ands	r1, r5
 8005a66:	6a65      	ldr	r5, [r4, #36]	; 0x24
 8005a68:	42b3      	cmp	r3, r6
 8005a6a:	ea42 0201 	orr.w	r2, r2, r1
 8005a6e:	609a      	str	r2, [r3, #8]
 8005a70:	6ada      	ldr	r2, [r3, #44]	; 0x2c
 8005a72:	f022 020f 	bic.w	r2, r2, #15
 8005a76:	ea42 0205 	orr.w	r2, r2, r5
 8005a7a:	62da      	str	r2, [r3, #44]	; 0x2c
 8005a7c:	d023      	beq.n	8005ac6 <UART_SetConfig+0xaa>
 8005a7e:	4ab7      	ldr	r2, [pc, #732]	; (8005d5c <UART_SetConfig+0x340>)
 8005a80:	4293      	cmp	r3, r2
 8005a82:	d075      	beq.n	8005b70 <UART_SetConfig+0x154>
 8005a84:	4ab6      	ldr	r2, [pc, #728]	; (8005d60 <UART_SetConfig+0x344>)
 8005a86:	4293      	cmp	r3, r2
 8005a88:	f000 81bf 	beq.w	8005e0a <UART_SetConfig+0x3ee>
 8005a8c:	4ab5      	ldr	r2, [pc, #724]	; (8005d64 <UART_SetConfig+0x348>)
 8005a8e:	4293      	cmp	r3, r2
 8005a90:	f000 81ec 	beq.w	8005e6c <UART_SetConfig+0x450>
 8005a94:	4ab4      	ldr	r2, [pc, #720]	; (8005d68 <UART_SetConfig+0x34c>)
 8005a96:	4293      	cmp	r3, r2
 8005a98:	f000 81a7 	beq.w	8005dea <UART_SetConfig+0x3ce>
 8005a9c:	4ab3      	ldr	r2, [pc, #716]	; (8005d6c <UART_SetConfig+0x350>)
 8005a9e:	4293      	cmp	r3, r2
 8005aa0:	f000 81ee 	beq.w	8005e80 <UART_SetConfig+0x464>
 8005aa4:	4ab2      	ldr	r2, [pc, #712]	; (8005d70 <UART_SetConfig+0x354>)
 8005aa6:	4293      	cmp	r3, r2
 8005aa8:	f000 823e 	beq.w	8005f28 <UART_SetConfig+0x50c>
 8005aac:	4ab1      	ldr	r2, [pc, #708]	; (8005d74 <UART_SetConfig+0x358>)
 8005aae:	4293      	cmp	r3, r2
 8005ab0:	f000 8230 	beq.w	8005f14 <UART_SetConfig+0x4f8>
 8005ab4:	2001      	movs	r0, #1
 8005ab6:	f04f 1201 	mov.w	r2, #65537	; 0x10001
 8005aba:	2300      	movs	r3, #0
 8005abc:	66a2      	str	r2, [r4, #104]	; 0x68
 8005abe:	e9c4 331c 	strd	r3, r3, [r4, #112]	; 0x70
 8005ac2:	b007      	add	sp, #28
 8005ac4:	bdf0      	pop	{r4, r5, r6, r7, pc}
 8005ac6:	4bac      	ldr	r3, [pc, #688]	; (8005d78 <UART_SetConfig+0x35c>)
 8005ac8:	6d5b      	ldr	r3, [r3, #84]	; 0x54
 8005aca:	f003 0338 	and.w	r3, r3, #56	; 0x38
 8005ace:	2b28      	cmp	r3, #40	; 0x28
 8005ad0:	d8f0      	bhi.n	8005ab4 <UART_SetConfig+0x98>
 8005ad2:	4aaa      	ldr	r2, [pc, #680]	; (8005d7c <UART_SetConfig+0x360>)
 8005ad4:	5cd3      	ldrb	r3, [r2, r3]
 8005ad6:	f5b0 4f00 	cmp.w	r0, #32768	; 0x8000
 8005ada:	d054      	beq.n	8005b86 <UART_SetConfig+0x16a>
 8005adc:	2b20      	cmp	r3, #32
 8005ade:	f200 818e 	bhi.w	8005dfe <UART_SetConfig+0x3e2>
 8005ae2:	2b20      	cmp	r3, #32
 8005ae4:	d8e6      	bhi.n	8005ab4 <UART_SetConfig+0x98>
 8005ae6:	a201      	add	r2, pc, #4	; (adr r2, 8005aec <UART_SetConfig+0xd0>)
 8005ae8:	f852 f023 	ldr.w	pc, [r2, r3, lsl #2]
 8005aec:	08005d45 	.word	0x08005d45
 8005af0:	08005d3f 	.word	0x08005d3f
 8005af4:	08005ab5 	.word	0x08005ab5
 8005af8:	08005ab5 	.word	0x08005ab5
 8005afc:	08005d2f 	.word	0x08005d2f
 8005b00:	08005ab5 	.word	0x08005ab5
 8005b04:	08005ab5 	.word	0x08005ab5
 8005b08:	08005ab5 	.word	0x08005ab5
 8005b0c:	08005d21 	.word	0x08005d21
 8005b10:	08005ab5 	.word	0x08005ab5
 8005b14:	08005ab5 	.word	0x08005ab5
 8005b18:	08005ab5 	.word	0x08005ab5
 8005b1c:	08005ab5 	.word	0x08005ab5
 8005b20:	08005ab5 	.word	0x08005ab5
 8005b24:	08005ab5 	.word	0x08005ab5
 8005b28:	08005ab5 	.word	0x08005ab5
 8005b2c:	08005d0b 	.word	0x08005d0b
 8005b30:	08005ab5 	.word	0x08005ab5
 8005b34:	08005ab5 	.word	0x08005ab5
 8005b38:	08005ab5 	.word	0x08005ab5
 8005b3c:	08005ab5 	.word	0x08005ab5
 8005b40:	08005ab5 	.word	0x08005ab5
 8005b44:	08005ab5 	.word	0x08005ab5
 8005b48:	08005ab5 	.word	0x08005ab5
 8005b4c:	08005ab5 	.word	0x08005ab5
 8005b50:	08005ab5 	.word	0x08005ab5
 8005b54:	08005ab5 	.word	0x08005ab5
 8005b58:	08005ab5 	.word	0x08005ab5
 8005b5c:	08005ab5 	.word	0x08005ab5
 8005b60:	08005ab5 	.word	0x08005ab5
 8005b64:	08005ab5 	.word	0x08005ab5
 8005b68:	08005ab5 	.word	0x08005ab5
 8005b6c:	08005cdd 	.word	0x08005cdd
 8005b70:	4b81      	ldr	r3, [pc, #516]	; (8005d78 <UART_SetConfig+0x35c>)
 8005b72:	6d5b      	ldr	r3, [r3, #84]	; 0x54
 8005b74:	f003 0307 	and.w	r3, r3, #7
 8005b78:	2b05      	cmp	r3, #5
 8005b7a:	d89b      	bhi.n	8005ab4 <UART_SetConfig+0x98>
 8005b7c:	4a80      	ldr	r2, [pc, #512]	; (8005d80 <UART_SetConfig+0x364>)
 8005b7e:	f5b0 4f00 	cmp.w	r0, #32768	; 0x8000
 8005b82:	5cd3      	ldrb	r3, [r2, r3]
 8005b84:	d1aa      	bne.n	8005adc <UART_SetConfig+0xc0>
 8005b86:	2b20      	cmp	r3, #32
 8005b88:	f200 816d 	bhi.w	8005e66 <UART_SetConfig+0x44a>
 8005b8c:	2b20      	cmp	r3, #32
 8005b8e:	d891      	bhi.n	8005ab4 <UART_SetConfig+0x98>
 8005b90:	a201      	add	r2, pc, #4	; (adr r2, 8005b98 <UART_SetConfig+0x17c>)
 8005b92:	f852 f023 	ldr.w	pc, [r2, r3, lsl #2]
 8005b96:	bf00      	nop
 8005b98:	08005f0b 	.word	0x08005f0b
 8005b9c:	08005efb 	.word	0x08005efb
 8005ba0:	08005ab5 	.word	0x08005ab5
 8005ba4:	08005ab5 	.word	0x08005ab5
 8005ba8:	08005f01 	.word	0x08005f01
 8005bac:	08005ab5 	.word	0x08005ab5
 8005bb0:	08005ab5 	.word	0x08005ab5
 8005bb4:	08005ab5 	.word	0x08005ab5
 8005bb8:	08005ee9 	.word	0x08005ee9
 8005bbc:	08005ab5 	.word	0x08005ab5
 8005bc0:	08005ab5 	.word	0x08005ab5
 8005bc4:	08005ab5 	.word	0x08005ab5
 8005bc8:	08005ab5 	.word	0x08005ab5
 8005bcc:	08005ab5 	.word	0x08005ab5
 8005bd0:	08005ab5 	.word	0x08005ab5
 8005bd4:	08005ab5 	.word	0x08005ab5
 8005bd8:	08005ed5 	.word	0x08005ed5
 8005bdc:	08005ab5 	.word	0x08005ab5
 8005be0:	08005ab5 	.word	0x08005ab5
 8005be4:	08005ab5 	.word	0x08005ab5
 8005be8:	08005ab5 	.word	0x08005ab5
 8005bec:	08005ab5 	.word	0x08005ab5
 8005bf0:	08005ab5 	.word	0x08005ab5
 8005bf4:	08005ab5 	.word	0x08005ab5
 8005bf8:	08005ab5 	.word	0x08005ab5
 8005bfc:	08005ab5 	.word	0x08005ab5
 8005c00:	08005ab5 	.word	0x08005ab5
 8005c04:	08005ab5 	.word	0x08005ab5
 8005c08:	08005ab5 	.word	0x08005ab5
 8005c0c:	08005ab5 	.word	0x08005ab5
 8005c10:	08005ab5 	.word	0x08005ab5
 8005c14:	08005ab5 	.word	0x08005ab5
 8005c18:	08005e2b 	.word	0x08005e2b
 8005c1c:	6898      	ldr	r0, [r3, #8]
 8005c1e:	4a4d      	ldr	r2, [pc, #308]	; (8005d54 <UART_SetConfig+0x338>)
 8005c20:	4955      	ldr	r1, [pc, #340]	; (8005d78 <UART_SetConfig+0x35c>)
 8005c22:	4002      	ands	r2, r0
 8005c24:	4332      	orrs	r2, r6
 8005c26:	609a      	str	r2, [r3, #8]
 8005c28:	6ada      	ldr	r2, [r3, #44]	; 0x2c
 8005c2a:	6a60      	ldr	r0, [r4, #36]	; 0x24
 8005c2c:	f022 020f 	bic.w	r2, r2, #15
 8005c30:	4302      	orrs	r2, r0
 8005c32:	62da      	str	r2, [r3, #44]	; 0x2c
 8005c34:	6d8b      	ldr	r3, [r1, #88]	; 0x58
 8005c36:	f003 0307 	and.w	r3, r3, #7
 8005c3a:	2b05      	cmp	r3, #5
 8005c3c:	f63f af3a 	bhi.w	8005ab4 <UART_SetConfig+0x98>
 8005c40:	4a50      	ldr	r2, [pc, #320]	; (8005d84 <UART_SetConfig+0x368>)
 8005c42:	5cd3      	ldrb	r3, [r2, r3]
 8005c44:	2b20      	cmp	r3, #32
 8005c46:	f200 80ea 	bhi.w	8005e1e <UART_SetConfig+0x402>
 8005c4a:	2b01      	cmp	r3, #1
 8005c4c:	f67f af32 	bls.w	8005ab4 <UART_SetConfig+0x98>
 8005c50:	3b02      	subs	r3, #2
 8005c52:	2b1e      	cmp	r3, #30
 8005c54:	f63f af2e 	bhi.w	8005ab4 <UART_SetConfig+0x98>
 8005c58:	a201      	add	r2, pc, #4	; (adr r2, 8005c60 <UART_SetConfig+0x244>)
 8005c5a:	f852 f023 	ldr.w	pc, [r2, r3, lsl #2]
 8005c5e:	bf00      	nop
 8005c60:	08005ec9 	.word	0x08005ec9
 8005c64:	08005ab5 	.word	0x08005ab5
 8005c68:	08005eb9 	.word	0x08005eb9
 8005c6c:	08005ab5 	.word	0x08005ab5
 8005c70:	08005ab5 	.word	0x08005ab5
 8005c74:	08005ab5 	.word	0x08005ab5
 8005c78:	08005ea9 	.word	0x08005ea9
 8005c7c:	08005ab5 	.word	0x08005ab5
 8005c80:	08005ab5 	.word	0x08005ab5
 8005c84:	08005ab5 	.word	0x08005ab5
 8005c88:	08005ab5 	.word	0x08005ab5
 8005c8c:	08005ab5 	.word	0x08005ab5
 8005c90:	08005ab5 	.word	0x08005ab5
 8005c94:	08005ab5 	.word	0x08005ab5
 8005c98:	08005e95 	.word	0x08005e95
 8005c9c:	08005ab5 	.word	0x08005ab5
 8005ca0:	08005ab5 	.word	0x08005ab5
 8005ca4:	08005ab5 	.word	0x08005ab5
 8005ca8:	08005ab5 	.word	0x08005ab5
 8005cac:	08005ab5 	.word	0x08005ab5
 8005cb0:	08005ab5 	.word	0x08005ab5
 8005cb4:	08005ab5 	.word	0x08005ab5
 8005cb8:	08005ab5 	.word	0x08005ab5
 8005cbc:	08005ab5 	.word	0x08005ab5
 8005cc0:	08005ab5 	.word	0x08005ab5
 8005cc4:	08005ab5 	.word	0x08005ab5
 8005cc8:	08005ab5 	.word	0x08005ab5
 8005ccc:	08005ab5 	.word	0x08005ab5
 8005cd0:	08005ab5 	.word	0x08005ab5
 8005cd4:	08005ab5 	.word	0x08005ab5
 8005cd8:	08005d95 	.word	0x08005d95
 8005cdc:	482a      	ldr	r0, [pc, #168]	; (8005d88 <UART_SetConfig+0x36c>)
 8005cde:	4b2b      	ldr	r3, [pc, #172]	; (8005d8c <UART_SetConfig+0x370>)
 8005ce0:	f64f 71ef 	movw	r1, #65519	; 0xffef
 8005ce4:	6862      	ldr	r2, [r4, #4]
 8005ce6:	f833 3015 	ldrh.w	r3, [r3, r5, lsl #1]
 8005cea:	fbb0 f3f3 	udiv	r3, r0, r3
 8005cee:	eb03 0352 	add.w	r3, r3, r2, lsr #1
 8005cf2:	fbb3 f3f2 	udiv	r3, r3, r2
 8005cf6:	b29b      	uxth	r3, r3
 8005cf8:	f1a3 0210 	sub.w	r2, r3, #16
 8005cfc:	428a      	cmp	r2, r1
 8005cfe:	f63f aed9 	bhi.w	8005ab4 <UART_SetConfig+0x98>
 8005d02:	6822      	ldr	r2, [r4, #0]
 8005d04:	2000      	movs	r0, #0
 8005d06:	60d3      	str	r3, [r2, #12]
 8005d08:	e6d5      	b.n	8005ab6 <UART_SetConfig+0x9a>
 8005d0a:	4b1b      	ldr	r3, [pc, #108]	; (8005d78 <UART_SetConfig+0x35c>)
 8005d0c:	681a      	ldr	r2, [r3, #0]
 8005d0e:	0692      	lsls	r2, r2, #26
 8005d10:	f140 80fe 	bpl.w	8005f10 <UART_SetConfig+0x4f4>
 8005d14:	681b      	ldr	r3, [r3, #0]
 8005d16:	481e      	ldr	r0, [pc, #120]	; (8005d90 <UART_SetConfig+0x374>)
 8005d18:	f3c3 03c1 	ubfx	r3, r3, #3, #2
 8005d1c:	40d8      	lsrs	r0, r3
 8005d1e:	e7de      	b.n	8005cde <UART_SetConfig+0x2c2>
 8005d20:	a803      	add	r0, sp, #12
 8005d22:	f7ff f94d 	bl	8004fc0 <HAL_RCCEx_GetPLL3ClockFreq>
 8005d26:	9804      	ldr	r0, [sp, #16]
 8005d28:	b938      	cbnz	r0, 8005d3a <UART_SetConfig+0x31e>
 8005d2a:	2000      	movs	r0, #0
 8005d2c:	e6c3      	b.n	8005ab6 <UART_SetConfig+0x9a>
 8005d2e:	4668      	mov	r0, sp
 8005d30:	f7ff f888 	bl	8004e44 <HAL_RCCEx_GetPLL2ClockFreq>
 8005d34:	9801      	ldr	r0, [sp, #4]
 8005d36:	2800      	cmp	r0, #0
 8005d38:	d0f7      	beq.n	8005d2a <UART_SetConfig+0x30e>
 8005d3a:	6a65      	ldr	r5, [r4, #36]	; 0x24
 8005d3c:	e7cf      	b.n	8005cde <UART_SetConfig+0x2c2>
 8005d3e:	f7fe fa0f 	bl	8004160 <HAL_RCC_GetPCLK2Freq>
 8005d42:	e7f1      	b.n	8005d28 <UART_SetConfig+0x30c>
 8005d44:	f7fe f9fa 	bl	800413c <HAL_RCC_GetPCLK1Freq>
 8005d48:	e7ee      	b.n	8005d28 <UART_SetConfig+0x30c>
 8005d4a:	bf00      	nop
 8005d4c:	cfff69f3 	.word	0xcfff69f3
 8005d50:	58000c00 	.word	0x58000c00
 8005d54:	11fff4ff 	.word	0x11fff4ff
 8005d58:	40011000 	.word	0x40011000
 8005d5c:	40004400 	.word	0x40004400
 8005d60:	40004800 	.word	0x40004800
 8005d64:	40004c00 	.word	0x40004c00
 8005d68:	40005000 	.word	0x40005000
 8005d6c:	40011400 	.word	0x40011400
 8005d70:	40007800 	.word	0x40007800
 8005d74:	40007c00 	.word	0x40007c00
 8005d78:	58024400 	.word	0x58024400
 8005d7c:	08006384 	.word	0x08006384
 8005d80:	080063b0 	.word	0x080063b0
 8005d84:	080063b8 	.word	0x080063b8
 8005d88:	003d0900 	.word	0x003d0900
 8005d8c:	080063c0 	.word	0x080063c0
 8005d90:	03d09000 	.word	0x03d09000
 8005d94:	486b      	ldr	r0, [pc, #428]	; (8005f44 <UART_SetConfig+0x528>)
 8005d96:	4b6c      	ldr	r3, [pc, #432]	; (8005f48 <UART_SetConfig+0x52c>)
 8005d98:	6a62      	ldr	r2, [r4, #36]	; 0x24
 8005d9a:	6865      	ldr	r5, [r4, #4]
 8005d9c:	f833 2012 	ldrh.w	r2, [r3, r2, lsl #1]
 8005da0:	eb05 0145 	add.w	r1, r5, r5, lsl #1
 8005da4:	fbb0 f3f2 	udiv	r3, r0, r2
 8005da8:	4299      	cmp	r1, r3
 8005daa:	f63f ae83 	bhi.w	8005ab4 <UART_SetConfig+0x98>
 8005dae:	ebb3 3f05 	cmp.w	r3, r5, lsl #12
 8005db2:	f63f ae7f 	bhi.w	8005ab4 <UART_SetConfig+0x98>
 8005db6:	2300      	movs	r3, #0
 8005db8:	2100      	movs	r1, #0
 8005dba:	f7fa fa8d 	bl	80002d8 <__aeabi_uldivmod>
 8005dbe:	462a      	mov	r2, r5
 8005dc0:	ea4f 0c55 	mov.w	ip, r5, lsr #1
 8005dc4:	2300      	movs	r3, #0
 8005dc6:	020f      	lsls	r7, r1, #8
 8005dc8:	0206      	lsls	r6, r0, #8
 8005dca:	ea47 6710 	orr.w	r7, r7, r0, lsr #24
 8005dce:	eb16 000c 	adds.w	r0, r6, ip
 8005dd2:	f147 0100 	adc.w	r1, r7, #0
 8005dd6:	f7fa fa7f 	bl	80002d8 <__aeabi_uldivmod>
 8005dda:	4a5c      	ldr	r2, [pc, #368]	; (8005f4c <UART_SetConfig+0x530>)
 8005ddc:	f5a0 7140 	sub.w	r1, r0, #768	; 0x300
 8005de0:	4603      	mov	r3, r0
 8005de2:	4291      	cmp	r1, r2
 8005de4:	f63f ae66 	bhi.w	8005ab4 <UART_SetConfig+0x98>
 8005de8:	e78b      	b.n	8005d02 <UART_SetConfig+0x2e6>
 8005dea:	4b59      	ldr	r3, [pc, #356]	; (8005f50 <UART_SetConfig+0x534>)
 8005dec:	6d5b      	ldr	r3, [r3, #84]	; 0x54
 8005dee:	f003 0307 	and.w	r3, r3, #7
 8005df2:	2b05      	cmp	r3, #5
 8005df4:	f63f ae5e 	bhi.w	8005ab4 <UART_SetConfig+0x98>
 8005df8:	4a56      	ldr	r2, [pc, #344]	; (8005f54 <UART_SetConfig+0x538>)
 8005dfa:	5cd3      	ldrb	r3, [r2, r3]
 8005dfc:	e66b      	b.n	8005ad6 <UART_SetConfig+0xba>
 8005dfe:	2b40      	cmp	r3, #64	; 0x40
 8005e00:	f47f ae58 	bne.w	8005ab4 <UART_SetConfig+0x98>
 8005e04:	f44f 4000 	mov.w	r0, #32768	; 0x8000
 8005e08:	e769      	b.n	8005cde <UART_SetConfig+0x2c2>
 8005e0a:	4b51      	ldr	r3, [pc, #324]	; (8005f50 <UART_SetConfig+0x534>)
 8005e0c:	6d5b      	ldr	r3, [r3, #84]	; 0x54
 8005e0e:	f003 0307 	and.w	r3, r3, #7
 8005e12:	2b05      	cmp	r3, #5
 8005e14:	f63f ae4e 	bhi.w	8005ab4 <UART_SetConfig+0x98>
 8005e18:	4a4f      	ldr	r2, [pc, #316]	; (8005f58 <UART_SetConfig+0x53c>)
 8005e1a:	5cd3      	ldrb	r3, [r2, r3]
 8005e1c:	e65b      	b.n	8005ad6 <UART_SetConfig+0xba>
 8005e1e:	2b40      	cmp	r3, #64	; 0x40
 8005e20:	f47f ae48 	bne.w	8005ab4 <UART_SetConfig+0x98>
 8005e24:	f44f 4000 	mov.w	r0, #32768	; 0x8000
 8005e28:	e7b5      	b.n	8005d96 <UART_SetConfig+0x37a>
 8005e2a:	4846      	ldr	r0, [pc, #280]	; (8005f44 <UART_SetConfig+0x528>)
 8005e2c:	4b46      	ldr	r3, [pc, #280]	; (8005f48 <UART_SetConfig+0x52c>)
 8005e2e:	f64f 71ef 	movw	r1, #65519	; 0xffef
 8005e32:	6862      	ldr	r2, [r4, #4]
 8005e34:	f833 5015 	ldrh.w	r5, [r3, r5, lsl #1]
 8005e38:	0853      	lsrs	r3, r2, #1
 8005e3a:	fbb0 f0f5 	udiv	r0, r0, r5
 8005e3e:	eb03 0040 	add.w	r0, r3, r0, lsl #1
 8005e42:	fbb0 f0f2 	udiv	r0, r0, r2
 8005e46:	b282      	uxth	r2, r0
 8005e48:	f1a2 0310 	sub.w	r3, r2, #16
 8005e4c:	428b      	cmp	r3, r1
 8005e4e:	f63f ae31 	bhi.w	8005ab4 <UART_SetConfig+0x98>
 8005e52:	f020 030f 	bic.w	r3, r0, #15
 8005e56:	f3c2 0242 	ubfx	r2, r2, #1, #3
 8005e5a:	6821      	ldr	r1, [r4, #0]
 8005e5c:	2000      	movs	r0, #0
 8005e5e:	b29b      	uxth	r3, r3
 8005e60:	4313      	orrs	r3, r2
 8005e62:	60cb      	str	r3, [r1, #12]
 8005e64:	e627      	b.n	8005ab6 <UART_SetConfig+0x9a>
 8005e66:	2b40      	cmp	r3, #64	; 0x40
 8005e68:	d0e0      	beq.n	8005e2c <UART_SetConfig+0x410>
 8005e6a:	e623      	b.n	8005ab4 <UART_SetConfig+0x98>
 8005e6c:	4b38      	ldr	r3, [pc, #224]	; (8005f50 <UART_SetConfig+0x534>)
 8005e6e:	6d5b      	ldr	r3, [r3, #84]	; 0x54
 8005e70:	f003 0307 	and.w	r3, r3, #7
 8005e74:	2b05      	cmp	r3, #5
 8005e76:	f63f ae1d 	bhi.w	8005ab4 <UART_SetConfig+0x98>
 8005e7a:	4a38      	ldr	r2, [pc, #224]	; (8005f5c <UART_SetConfig+0x540>)
 8005e7c:	5cd3      	ldrb	r3, [r2, r3]
 8005e7e:	e62a      	b.n	8005ad6 <UART_SetConfig+0xba>
 8005e80:	4b33      	ldr	r3, [pc, #204]	; (8005f50 <UART_SetConfig+0x534>)
 8005e82:	6d5b      	ldr	r3, [r3, #84]	; 0x54
 8005e84:	f003 0338 	and.w	r3, r3, #56	; 0x38
 8005e88:	2b28      	cmp	r3, #40	; 0x28
 8005e8a:	f63f ae13 	bhi.w	8005ab4 <UART_SetConfig+0x98>
 8005e8e:	4a34      	ldr	r2, [pc, #208]	; (8005f60 <UART_SetConfig+0x544>)
 8005e90:	5cd3      	ldrb	r3, [r2, r3]
 8005e92:	e620      	b.n	8005ad6 <UART_SetConfig+0xba>
 8005e94:	4b2e      	ldr	r3, [pc, #184]	; (8005f50 <UART_SetConfig+0x534>)
 8005e96:	681a      	ldr	r2, [r3, #0]
 8005e98:	0690      	lsls	r0, r2, #26
 8005e9a:	d54f      	bpl.n	8005f3c <UART_SetConfig+0x520>
 8005e9c:	681b      	ldr	r3, [r3, #0]
 8005e9e:	4831      	ldr	r0, [pc, #196]	; (8005f64 <UART_SetConfig+0x548>)
 8005ea0:	f3c3 03c1 	ubfx	r3, r3, #3, #2
 8005ea4:	40d8      	lsrs	r0, r3
 8005ea6:	e776      	b.n	8005d96 <UART_SetConfig+0x37a>
 8005ea8:	a803      	add	r0, sp, #12
 8005eaa:	f7ff f889 	bl	8004fc0 <HAL_RCCEx_GetPLL3ClockFreq>
 8005eae:	9804      	ldr	r0, [sp, #16]
 8005eb0:	2800      	cmp	r0, #0
 8005eb2:	f43f af3a 	beq.w	8005d2a <UART_SetConfig+0x30e>
 8005eb6:	e76e      	b.n	8005d96 <UART_SetConfig+0x37a>
 8005eb8:	4668      	mov	r0, sp
 8005eba:	f7fe ffc3 	bl	8004e44 <HAL_RCCEx_GetPLL2ClockFreq>
 8005ebe:	9801      	ldr	r0, [sp, #4]
 8005ec0:	2800      	cmp	r0, #0
 8005ec2:	f43f af32 	beq.w	8005d2a <UART_SetConfig+0x30e>
 8005ec6:	e766      	b.n	8005d96 <UART_SetConfig+0x37a>
 8005ec8:	f7fe ffaa 	bl	8004e20 <HAL_RCCEx_GetD3PCLK1Freq>
 8005ecc:	2800      	cmp	r0, #0
 8005ece:	f43f af2c 	beq.w	8005d2a <UART_SetConfig+0x30e>
 8005ed2:	e760      	b.n	8005d96 <UART_SetConfig+0x37a>
 8005ed4:	4b1e      	ldr	r3, [pc, #120]	; (8005f50 <UART_SetConfig+0x534>)
 8005ed6:	681a      	ldr	r2, [r3, #0]
 8005ed8:	0691      	lsls	r1, r2, #26
 8005eda:	d531      	bpl.n	8005f40 <UART_SetConfig+0x524>
 8005edc:	681b      	ldr	r3, [r3, #0]
 8005ede:	4821      	ldr	r0, [pc, #132]	; (8005f64 <UART_SetConfig+0x548>)
 8005ee0:	f3c3 03c1 	ubfx	r3, r3, #3, #2
 8005ee4:	40d8      	lsrs	r0, r3
 8005ee6:	e7a1      	b.n	8005e2c <UART_SetConfig+0x410>
 8005ee8:	a803      	add	r0, sp, #12
 8005eea:	f7ff f869 	bl	8004fc0 <HAL_RCCEx_GetPLL3ClockFreq>
 8005eee:	9804      	ldr	r0, [sp, #16]
 8005ef0:	2800      	cmp	r0, #0
 8005ef2:	f43f af1a 	beq.w	8005d2a <UART_SetConfig+0x30e>
 8005ef6:	6a65      	ldr	r5, [r4, #36]	; 0x24
 8005ef8:	e798      	b.n	8005e2c <UART_SetConfig+0x410>
 8005efa:	f7fe f931 	bl	8004160 <HAL_RCC_GetPCLK2Freq>
 8005efe:	e7f7      	b.n	8005ef0 <UART_SetConfig+0x4d4>
 8005f00:	4668      	mov	r0, sp
 8005f02:	f7fe ff9f 	bl	8004e44 <HAL_RCCEx_GetPLL2ClockFreq>
 8005f06:	9801      	ldr	r0, [sp, #4]
 8005f08:	e7f2      	b.n	8005ef0 <UART_SetConfig+0x4d4>
 8005f0a:	f7fe f917 	bl	800413c <HAL_RCC_GetPCLK1Freq>
 8005f0e:	e7ef      	b.n	8005ef0 <UART_SetConfig+0x4d4>
 8005f10:	4814      	ldr	r0, [pc, #80]	; (8005f64 <UART_SetConfig+0x548>)
 8005f12:	e6e4      	b.n	8005cde <UART_SetConfig+0x2c2>
 8005f14:	4b0e      	ldr	r3, [pc, #56]	; (8005f50 <UART_SetConfig+0x534>)
 8005f16:	6d5b      	ldr	r3, [r3, #84]	; 0x54
 8005f18:	f003 0307 	and.w	r3, r3, #7
 8005f1c:	2b05      	cmp	r3, #5
 8005f1e:	f63f adc9 	bhi.w	8005ab4 <UART_SetConfig+0x98>
 8005f22:	4a11      	ldr	r2, [pc, #68]	; (8005f68 <UART_SetConfig+0x54c>)
 8005f24:	5cd3      	ldrb	r3, [r2, r3]
 8005f26:	e5d6      	b.n	8005ad6 <UART_SetConfig+0xba>
 8005f28:	4b09      	ldr	r3, [pc, #36]	; (8005f50 <UART_SetConfig+0x534>)
 8005f2a:	6d5b      	ldr	r3, [r3, #84]	; 0x54
 8005f2c:	f003 0307 	and.w	r3, r3, #7
 8005f30:	2b05      	cmp	r3, #5
 8005f32:	f63f adbf 	bhi.w	8005ab4 <UART_SetConfig+0x98>
 8005f36:	4a0d      	ldr	r2, [pc, #52]	; (8005f6c <UART_SetConfig+0x550>)
 8005f38:	5cd3      	ldrb	r3, [r2, r3]
 8005f3a:	e5cc      	b.n	8005ad6 <UART_SetConfig+0xba>
 8005f3c:	4809      	ldr	r0, [pc, #36]	; (8005f64 <UART_SetConfig+0x548>)
 8005f3e:	e72a      	b.n	8005d96 <UART_SetConfig+0x37a>
 8005f40:	4808      	ldr	r0, [pc, #32]	; (8005f64 <UART_SetConfig+0x548>)
 8005f42:	e773      	b.n	8005e2c <UART_SetConfig+0x410>
 8005f44:	003d0900 	.word	0x003d0900
 8005f48:	080063c0 	.word	0x080063c0
 8005f4c:	000ffcff 	.word	0x000ffcff
 8005f50:	58024400 	.word	0x58024400
 8005f54:	080063b0 	.word	0x080063b0
 8005f58:	080063b0 	.word	0x080063b0
 8005f5c:	080063b0 	.word	0x080063b0
 8005f60:	08006384 	.word	0x08006384
 8005f64:	03d09000 	.word	0x03d09000
 8005f68:	080063b0 	.word	0x080063b0
 8005f6c:	080063b0 	.word	0x080063b0

08005f70 <UART_AdvFeatureConfig>:
 8005f70:	6a83      	ldr	r3, [r0, #40]	; 0x28
 8005f72:	07da      	lsls	r2, r3, #31
 8005f74:	b410      	push	{r4}
 8005f76:	d506      	bpl.n	8005f86 <UART_AdvFeatureConfig+0x16>
 8005f78:	6801      	ldr	r1, [r0, #0]
 8005f7a:	6ac4      	ldr	r4, [r0, #44]	; 0x2c
 8005f7c:	684a      	ldr	r2, [r1, #4]
 8005f7e:	f422 3200 	bic.w	r2, r2, #131072	; 0x20000
 8005f82:	4322      	orrs	r2, r4
 8005f84:	604a      	str	r2, [r1, #4]
 8005f86:	079c      	lsls	r4, r3, #30
 8005f88:	d506      	bpl.n	8005f98 <UART_AdvFeatureConfig+0x28>
 8005f8a:	6801      	ldr	r1, [r0, #0]
 8005f8c:	6b04      	ldr	r4, [r0, #48]	; 0x30
 8005f8e:	684a      	ldr	r2, [r1, #4]
 8005f90:	f422 3280 	bic.w	r2, r2, #65536	; 0x10000
 8005f94:	4322      	orrs	r2, r4
 8005f96:	604a      	str	r2, [r1, #4]
 8005f98:	0759      	lsls	r1, r3, #29
 8005f9a:	d506      	bpl.n	8005faa <UART_AdvFeatureConfig+0x3a>
 8005f9c:	6801      	ldr	r1, [r0, #0]
 8005f9e:	6b44      	ldr	r4, [r0, #52]	; 0x34
 8005fa0:	684a      	ldr	r2, [r1, #4]
 8005fa2:	f422 2280 	bic.w	r2, r2, #262144	; 0x40000
 8005fa6:	4322      	orrs	r2, r4
 8005fa8:	604a      	str	r2, [r1, #4]
 8005faa:	071a      	lsls	r2, r3, #28
 8005fac:	d506      	bpl.n	8005fbc <UART_AdvFeatureConfig+0x4c>
 8005fae:	6801      	ldr	r1, [r0, #0]
 8005fb0:	6b84      	ldr	r4, [r0, #56]	; 0x38
 8005fb2:	684a      	ldr	r2, [r1, #4]
 8005fb4:	f422 4200 	bic.w	r2, r2, #32768	; 0x8000
 8005fb8:	4322      	orrs	r2, r4
 8005fba:	604a      	str	r2, [r1, #4]
 8005fbc:	06dc      	lsls	r4, r3, #27
 8005fbe:	d506      	bpl.n	8005fce <UART_AdvFeatureConfig+0x5e>
 8005fc0:	6801      	ldr	r1, [r0, #0]
 8005fc2:	6bc4      	ldr	r4, [r0, #60]	; 0x3c
 8005fc4:	688a      	ldr	r2, [r1, #8]
 8005fc6:	f422 5280 	bic.w	r2, r2, #4096	; 0x1000
 8005fca:	4322      	orrs	r2, r4
 8005fcc:	608a      	str	r2, [r1, #8]
 8005fce:	0699      	lsls	r1, r3, #26
 8005fd0:	d506      	bpl.n	8005fe0 <UART_AdvFeatureConfig+0x70>
 8005fd2:	6801      	ldr	r1, [r0, #0]
 8005fd4:	6c04      	ldr	r4, [r0, #64]	; 0x40
 8005fd6:	688a      	ldr	r2, [r1, #8]
 8005fd8:	f422 5200 	bic.w	r2, r2, #8192	; 0x2000
 8005fdc:	4322      	orrs	r2, r4
 8005fde:	608a      	str	r2, [r1, #8]
 8005fe0:	065a      	lsls	r2, r3, #25
 8005fe2:	d50a      	bpl.n	8005ffa <UART_AdvFeatureConfig+0x8a>
 8005fe4:	6801      	ldr	r1, [r0, #0]
 8005fe6:	6c44      	ldr	r4, [r0, #68]	; 0x44
 8005fe8:	684a      	ldr	r2, [r1, #4]
 8005fea:	f5b4 1f80 	cmp.w	r4, #1048576	; 0x100000
 8005fee:	f422 1280 	bic.w	r2, r2, #1048576	; 0x100000
 8005ff2:	ea42 0204 	orr.w	r2, r2, r4
 8005ff6:	604a      	str	r2, [r1, #4]
 8005ff8:	d00b      	beq.n	8006012 <UART_AdvFeatureConfig+0xa2>
 8005ffa:	061b      	lsls	r3, r3, #24
 8005ffc:	d506      	bpl.n	800600c <UART_AdvFeatureConfig+0x9c>
 8005ffe:	6802      	ldr	r2, [r0, #0]
 8006000:	6cc1      	ldr	r1, [r0, #76]	; 0x4c
 8006002:	6853      	ldr	r3, [r2, #4]
 8006004:	f423 2300 	bic.w	r3, r3, #524288	; 0x80000
 8006008:	430b      	orrs	r3, r1
 800600a:	6053      	str	r3, [r2, #4]
 800600c:	f85d 4b04 	ldr.w	r4, [sp], #4
 8006010:	4770      	bx	lr
 8006012:	684a      	ldr	r2, [r1, #4]
 8006014:	6c84      	ldr	r4, [r0, #72]	; 0x48
 8006016:	f422 02c0 	bic.w	r2, r2, #6291456	; 0x600000
 800601a:	4322      	orrs	r2, r4
 800601c:	604a      	str	r2, [r1, #4]
 800601e:	e7ec      	b.n	8005ffa <UART_AdvFeatureConfig+0x8a>

08006020 <UART_WaitOnFlagUntilTimeout>:
 8006020:	e92d 47f0 	stmdb	sp!, {r4, r5, r6, r7, r8, r9, sl, lr}
 8006024:	f8dd 8020 	ldr.w	r8, [sp, #32]
 8006028:	4681      	mov	r9, r0
 800602a:	460f      	mov	r7, r1
 800602c:	4616      	mov	r6, r2
 800602e:	469a      	mov	sl, r3
 8006030:	6805      	ldr	r5, [r0, #0]
 8006032:	e002      	b.n	800603a <UART_WaitOnFlagUntilTimeout+0x1a>
 8006034:	f1b8 3fff 	cmp.w	r8, #4294967295
 8006038:	d10a      	bne.n	8006050 <UART_WaitOnFlagUntilTimeout+0x30>
 800603a:	69ec      	ldr	r4, [r5, #28]
 800603c:	ea37 0304 	bics.w	r3, r7, r4
 8006040:	bf0c      	ite	eq
 8006042:	2401      	moveq	r4, #1
 8006044:	2400      	movne	r4, #0
 8006046:	42b4      	cmp	r4, r6
 8006048:	d0f4      	beq.n	8006034 <UART_WaitOnFlagUntilTimeout+0x14>
 800604a:	2000      	movs	r0, #0
 800604c:	e8bd 87f0 	ldmia.w	sp!, {r4, r5, r6, r7, r8, r9, sl, pc}
 8006050:	f7fb fe10 	bl	8001c74 <HAL_GetTick>
 8006054:	eba0 000a 	sub.w	r0, r0, sl
 8006058:	fab8 f288 	clz	r2, r8
 800605c:	4540      	cmp	r0, r8
 800605e:	ea4f 1252 	mov.w	r2, r2, lsr #5
 8006062:	d820      	bhi.n	80060a6 <UART_WaitOnFlagUntilTimeout+0x86>
 8006064:	f1b8 0f00 	cmp.w	r8, #0
 8006068:	d01d      	beq.n	80060a6 <UART_WaitOnFlagUntilTimeout+0x86>
 800606a:	f8d9 5000 	ldr.w	r5, [r9]
 800606e:	682b      	ldr	r3, [r5, #0]
 8006070:	0759      	lsls	r1, r3, #29
 8006072:	d5e2      	bpl.n	800603a <UART_WaitOnFlagUntilTimeout+0x1a>
 8006074:	69eb      	ldr	r3, [r5, #28]
 8006076:	051b      	lsls	r3, r3, #20
 8006078:	d5df      	bpl.n	800603a <UART_WaitOnFlagUntilTimeout+0x1a>
 800607a:	f44f 6100 	mov.w	r1, #2048	; 0x800
 800607e:	2320      	movs	r3, #32
 8006080:	2003      	movs	r0, #3
 8006082:	6229      	str	r1, [r5, #32]
 8006084:	6829      	ldr	r1, [r5, #0]
 8006086:	f421 71d0 	bic.w	r1, r1, #416	; 0x1a0
 800608a:	6029      	str	r1, [r5, #0]
 800608c:	68a9      	ldr	r1, [r5, #8]
 800608e:	f021 0101 	bic.w	r1, r1, #1
 8006092:	60a9      	str	r1, [r5, #8]
 8006094:	f8c9 3084 	str.w	r3, [r9, #132]	; 0x84
 8006098:	f889 2080 	strb.w	r2, [r9, #128]	; 0x80
 800609c:	f8c9 3088 	str.w	r3, [r9, #136]	; 0x88
 80060a0:	f8c9 308c 	str.w	r3, [r9, #140]	; 0x8c
 80060a4:	e7d2      	b.n	800604c <UART_WaitOnFlagUntilTimeout+0x2c>
 80060a6:	f8d9 3000 	ldr.w	r3, [r9]
 80060aa:	2120      	movs	r1, #32
 80060ac:	2400      	movs	r4, #0
 80060ae:	2003      	movs	r0, #3
 80060b0:	681a      	ldr	r2, [r3, #0]
 80060b2:	f422 72d0 	bic.w	r2, r2, #416	; 0x1a0
 80060b6:	601a      	str	r2, [r3, #0]
 80060b8:	689a      	ldr	r2, [r3, #8]
 80060ba:	f022 0201 	bic.w	r2, r2, #1
 80060be:	609a      	str	r2, [r3, #8]
 80060c0:	f8c9 1084 	str.w	r1, [r9, #132]	; 0x84
 80060c4:	f889 4080 	strb.w	r4, [r9, #128]	; 0x80
 80060c8:	f8c9 1088 	str.w	r1, [r9, #136]	; 0x88
 80060cc:	e7be      	b.n	800604c <UART_WaitOnFlagUntilTimeout+0x2c>
 80060ce:	bf00      	nop

080060d0 <UART_CheckIdleState>:
 80060d0:	b570      	push	{r4, r5, r6, lr}
 80060d2:	2600      	movs	r6, #0
 80060d4:	4604      	mov	r4, r0
 80060d6:	b082      	sub	sp, #8
 80060d8:	f8c0 608c 	str.w	r6, [r0, #140]	; 0x8c
 80060dc:	f7fb fdca 	bl	8001c74 <HAL_GetTick>
 80060e0:	6823      	ldr	r3, [r4, #0]
 80060e2:	4605      	mov	r5, r0
 80060e4:	681a      	ldr	r2, [r3, #0]
 80060e6:	0712      	lsls	r2, r2, #28
 80060e8:	d40e      	bmi.n	8006108 <UART_CheckIdleState+0x38>
 80060ea:	681b      	ldr	r3, [r3, #0]
 80060ec:	075b      	lsls	r3, r3, #29
 80060ee:	d41a      	bmi.n	8006126 <UART_CheckIdleState+0x56>
 80060f0:	2300      	movs	r3, #0
 80060f2:	2220      	movs	r2, #32
 80060f4:	4618      	mov	r0, r3
 80060f6:	f8c4 2084 	str.w	r2, [r4, #132]	; 0x84
 80060fa:	f884 3080 	strb.w	r3, [r4, #128]	; 0x80
 80060fe:	f8c4 2088 	str.w	r2, [r4, #136]	; 0x88
 8006102:	66e3      	str	r3, [r4, #108]	; 0x6c
 8006104:	b002      	add	sp, #8
 8006106:	bd70      	pop	{r4, r5, r6, pc}
 8006108:	f06f 407e 	mvn.w	r0, #4261412864	; 0xfe000000
 800610c:	4632      	mov	r2, r6
 800610e:	462b      	mov	r3, r5
 8006110:	f44f 1100 	mov.w	r1, #2097152	; 0x200000
 8006114:	9000      	str	r0, [sp, #0]
 8006116:	4620      	mov	r0, r4
 8006118:	f7ff ff82 	bl	8006020 <UART_WaitOnFlagUntilTimeout>
 800611c:	b978      	cbnz	r0, 800613e <UART_CheckIdleState+0x6e>
 800611e:	6823      	ldr	r3, [r4, #0]
 8006120:	681b      	ldr	r3, [r3, #0]
 8006122:	075b      	lsls	r3, r3, #29
 8006124:	d5e4      	bpl.n	80060f0 <UART_CheckIdleState+0x20>
 8006126:	f06f 407e 	mvn.w	r0, #4261412864	; 0xfe000000
 800612a:	462b      	mov	r3, r5
 800612c:	2200      	movs	r2, #0
 800612e:	f44f 0180 	mov.w	r1, #4194304	; 0x400000
 8006132:	9000      	str	r0, [sp, #0]
 8006134:	4620      	mov	r0, r4
 8006136:	f7ff ff73 	bl	8006020 <UART_WaitOnFlagUntilTimeout>
 800613a:	2800      	cmp	r0, #0
 800613c:	d0d8      	beq.n	80060f0 <UART_CheckIdleState+0x20>
 800613e:	2003      	movs	r0, #3
 8006140:	b002      	add	sp, #8
 8006142:	bd70      	pop	{r4, r5, r6, pc}

08006144 <HAL_UART_Init>:
 8006144:	b380      	cbz	r0, 80061a8 <HAL_UART_Init+0x64>
 8006146:	f8d0 3084 	ldr.w	r3, [r0, #132]	; 0x84
 800614a:	b510      	push	{r4, lr}
 800614c:	4604      	mov	r4, r0
 800614e:	b333      	cbz	r3, 800619e <HAL_UART_Init+0x5a>
 8006150:	6822      	ldr	r2, [r4, #0]
 8006152:	2324      	movs	r3, #36	; 0x24
 8006154:	4620      	mov	r0, r4
 8006156:	f8c4 3084 	str.w	r3, [r4, #132]	; 0x84
 800615a:	6813      	ldr	r3, [r2, #0]
 800615c:	f023 0301 	bic.w	r3, r3, #1
 8006160:	6013      	str	r3, [r2, #0]
 8006162:	f7ff fc5b 	bl	8005a1c <UART_SetConfig>
 8006166:	2801      	cmp	r0, #1
 8006168:	d017      	beq.n	800619a <HAL_UART_Init+0x56>
 800616a:	6aa3      	ldr	r3, [r4, #40]	; 0x28
 800616c:	b98b      	cbnz	r3, 8006192 <HAL_UART_Init+0x4e>
 800616e:	6823      	ldr	r3, [r4, #0]
 8006170:	4620      	mov	r0, r4
 8006172:	685a      	ldr	r2, [r3, #4]
 8006174:	f422 4290 	bic.w	r2, r2, #18432	; 0x4800
 8006178:	605a      	str	r2, [r3, #4]
 800617a:	689a      	ldr	r2, [r3, #8]
 800617c:	f022 022a 	bic.w	r2, r2, #42	; 0x2a
 8006180:	609a      	str	r2, [r3, #8]
 8006182:	681a      	ldr	r2, [r3, #0]
 8006184:	f042 0201 	orr.w	r2, r2, #1
 8006188:	e8bd 4010 	ldmia.w	sp!, {r4, lr}
 800618c:	601a      	str	r2, [r3, #0]
 800618e:	f7ff bf9f 	b.w	80060d0 <UART_CheckIdleState>
 8006192:	4620      	mov	r0, r4
 8006194:	f7ff feec 	bl	8005f70 <UART_AdvFeatureConfig>
 8006198:	e7e9      	b.n	800616e <HAL_UART_Init+0x2a>
 800619a:	2001      	movs	r0, #1
 800619c:	bd10      	pop	{r4, pc}
 800619e:	f880 3080 	strb.w	r3, [r0, #128]	; 0x80
 80061a2:	f7fb fa29 	bl	80015f8 <HAL_UART_MspInit>
 80061a6:	e7d3      	b.n	8006150 <HAL_UART_Init+0xc>
 80061a8:	2001      	movs	r0, #1
 80061aa:	4770      	bx	lr

080061ac <UARTEx_SetNbDataToProcess.part.0>:
 80061ac:	6803      	ldr	r3, [r0, #0]
 80061ae:	4a0c      	ldr	r2, [pc, #48]	; (80061e0 <UARTEx_SetNbDataToProcess.part.0+0x34>)
 80061b0:	6899      	ldr	r1, [r3, #8]
 80061b2:	b430      	push	{r4, r5}
 80061b4:	689c      	ldr	r4, [r3, #8]
 80061b6:	f3c1 6142 	ubfx	r1, r1, #25, #3
 80061ba:	4d0a      	ldr	r5, [pc, #40]	; (80061e4 <UARTEx_SetNbDataToProcess.part.0+0x38>)
 80061bc:	0f64      	lsrs	r4, r4, #29
 80061be:	5c53      	ldrb	r3, [r2, r1]
 80061c0:	5c69      	ldrb	r1, [r5, r1]
 80061c2:	5d12      	ldrb	r2, [r2, r4]
 80061c4:	011b      	lsls	r3, r3, #4
 80061c6:	5d2c      	ldrb	r4, [r5, r4]
 80061c8:	0112      	lsls	r2, r2, #4
 80061ca:	fbb3 f3f1 	udiv	r3, r3, r1
 80061ce:	fbb2 f2f4 	udiv	r2, r2, r4
 80061d2:	f8a0 3068 	strh.w	r3, [r0, #104]	; 0x68
 80061d6:	f8a0 206a 	strh.w	r2, [r0, #106]	; 0x6a
 80061da:	bc30      	pop	{r4, r5}
 80061dc:	4770      	bx	lr
 80061de:	bf00      	nop
 80061e0:	080063e0 	.word	0x080063e0
 80061e4:	080063d8 	.word	0x080063d8

080061e8 <HAL_UARTEx_WakeupCallback>:
 80061e8:	4770      	bx	lr
 80061ea:	bf00      	nop

080061ec <HAL_UARTEx_RxFifoFullCallback>:
 80061ec:	4770      	bx	lr
 80061ee:	bf00      	nop

080061f0 <HAL_UARTEx_TxFifoEmptyCallback>:
 80061f0:	4770      	bx	lr
 80061f2:	bf00      	nop

080061f4 <HAL_UARTEx_EnableFifoMode>:
 80061f4:	b538      	push	{r3, r4, r5, lr}
 80061f6:	f890 3080 	ldrb.w	r3, [r0, #128]	; 0x80
 80061fa:	2b01      	cmp	r3, #1
 80061fc:	d01a      	beq.n	8006234 <HAL_UARTEx_EnableFifoMode+0x40>
 80061fe:	6803      	ldr	r3, [r0, #0]
 8006200:	2101      	movs	r1, #1
 8006202:	2224      	movs	r2, #36	; 0x24
 8006204:	f04f 5500 	mov.w	r5, #536870912	; 0x20000000
 8006208:	f880 1080 	strb.w	r1, [r0, #128]	; 0x80
 800620c:	4604      	mov	r4, r0
 800620e:	f8c0 2084 	str.w	r2, [r0, #132]	; 0x84
 8006212:	681a      	ldr	r2, [r3, #0]
 8006214:	6819      	ldr	r1, [r3, #0]
 8006216:	432a      	orrs	r2, r5
 8006218:	f021 0101 	bic.w	r1, r1, #1
 800621c:	6019      	str	r1, [r3, #0]
 800621e:	6645      	str	r5, [r0, #100]	; 0x64
 8006220:	601a      	str	r2, [r3, #0]
 8006222:	f7ff ffc3 	bl	80061ac <UARTEx_SetNbDataToProcess.part.0>
 8006226:	2320      	movs	r3, #32
 8006228:	2000      	movs	r0, #0
 800622a:	f8c4 3084 	str.w	r3, [r4, #132]	; 0x84
 800622e:	f884 0080 	strb.w	r0, [r4, #128]	; 0x80
 8006232:	bd38      	pop	{r3, r4, r5, pc}
 8006234:	2002      	movs	r0, #2
 8006236:	bd38      	pop	{r3, r4, r5, pc}

08006238 <HAL_UARTEx_SetTxFifoThreshold>:
 8006238:	f890 3080 	ldrb.w	r3, [r0, #128]	; 0x80
 800623c:	2b01      	cmp	r3, #1
 800623e:	d024      	beq.n	800628a <HAL_UARTEx_SetTxFifoThreshold+0x52>
 8006240:	6803      	ldr	r3, [r0, #0]
 8006242:	2224      	movs	r2, #36	; 0x24
 8006244:	b570      	push	{r4, r5, r6, lr}
 8006246:	2501      	movs	r5, #1
 8006248:	f8c0 2084 	str.w	r2, [r0, #132]	; 0x84
 800624c:	6e46      	ldr	r6, [r0, #100]	; 0x64
 800624e:	4604      	mov	r4, r0
 8006250:	f880 5080 	strb.w	r5, [r0, #128]	; 0x80
 8006254:	681d      	ldr	r5, [r3, #0]
 8006256:	681a      	ldr	r2, [r3, #0]
 8006258:	f022 0201 	bic.w	r2, r2, #1
 800625c:	601a      	str	r2, [r3, #0]
 800625e:	689a      	ldr	r2, [r3, #8]
 8006260:	f022 4260 	bic.w	r2, r2, #3758096384	; 0xe0000000
 8006264:	4311      	orrs	r1, r2
 8006266:	6099      	str	r1, [r3, #8]
 8006268:	b15e      	cbz	r6, 8006282 <HAL_UARTEx_SetTxFifoThreshold+0x4a>
 800626a:	f7ff ff9f 	bl	80061ac <UARTEx_SetNbDataToProcess.part.0>
 800626e:	6803      	ldr	r3, [r0, #0]
 8006270:	2200      	movs	r2, #0
 8006272:	2120      	movs	r1, #32
 8006274:	601d      	str	r5, [r3, #0]
 8006276:	4610      	mov	r0, r2
 8006278:	f8c4 1084 	str.w	r1, [r4, #132]	; 0x84
 800627c:	f884 2080 	strb.w	r2, [r4, #128]	; 0x80
 8006280:	bd70      	pop	{r4, r5, r6, pc}
 8006282:	f04f 1201 	mov.w	r2, #65537	; 0x10001
 8006286:	6682      	str	r2, [r0, #104]	; 0x68
 8006288:	e7f2      	b.n	8006270 <HAL_UARTEx_SetTxFifoThreshold+0x38>
 800628a:	2002      	movs	r0, #2
 800628c:	4770      	bx	lr
 800628e:	bf00      	nop

08006290 <HAL_UARTEx_SetRxFifoThreshold>:
 8006290:	f890 3080 	ldrb.w	r3, [r0, #128]	; 0x80
 8006294:	2b01      	cmp	r3, #1
 8006296:	d024      	beq.n	80062e2 <HAL_UARTEx_SetRxFifoThreshold+0x52>
 8006298:	6803      	ldr	r3, [r0, #0]
 800629a:	2224      	movs	r2, #36	; 0x24
 800629c:	b570      	push	{r4, r5, r6, lr}
 800629e:	2501      	movs	r5, #1
 80062a0:	f8c0 2084 	str.w	r2, [r0, #132]	; 0x84
 80062a4:	6e46      	ldr	r6, [r0, #100]	; 0x64
 80062a6:	4604      	mov	r4, r0
 80062a8:	f880 5080 	strb.w	r5, [r0, #128]	; 0x80
 80062ac:	681d      	ldr	r5, [r3, #0]
 80062ae:	681a      	ldr	r2, [r3, #0]
 80062b0:	f022 0201 	bic.w	r2, r2, #1
 80062b4:	601a      	str	r2, [r3, #0]
 80062b6:	689a      	ldr	r2, [r3, #8]
 80062b8:	f022 6260 	bic.w	r2, r2, #234881024	; 0xe000000
 80062bc:	4311      	orrs	r1, r2
 80062be:	6099      	str	r1, [r3, #8]
 80062c0:	b15e      	cbz	r6, 80062da <HAL_UARTEx_SetRxFifoThreshold+0x4a>
 80062c2:	f7ff ff73 	bl	80061ac <UARTEx_SetNbDataToProcess.part.0>
 80062c6:	6803      	ldr	r3, [r0, #0]
 80062c8:	2200      	movs	r2, #0
 80062ca:	2120      	movs	r1, #32
 80062cc:	601d      	str	r5, [r3, #0]
 80062ce:	4610      	mov	r0, r2
 80062d0:	f8c4 1084 	str.w	r1, [r4, #132]	; 0x84
 80062d4:	f884 2080 	strb.w	r2, [r4, #128]	; 0x80
 80062d8:	bd70      	pop	{r4, r5, r6, pc}
 80062da:	f04f 1201 	mov.w	r2, #65537	; 0x10001
 80062de:	6682      	str	r2, [r0, #104]	; 0x68
 80062e0:	e7f2      	b.n	80062c8 <HAL_UARTEx_SetRxFifoThreshold+0x38>
 80062e2:	2002      	movs	r0, #2
 80062e4:	4770      	bx	lr
 80062e6:	bf00      	nop

080062e8 <__libc_init_array>:
 80062e8:	b570      	push	{r4, r5, r6, lr}
 80062ea:	4d0d      	ldr	r5, [pc, #52]	; (8006320 <__libc_init_array+0x38>)
 80062ec:	4c0d      	ldr	r4, [pc, #52]	; (8006324 <__libc_init_array+0x3c>)
 80062ee:	1b64      	subs	r4, r4, r5
 80062f0:	10a4      	asrs	r4, r4, #2
 80062f2:	2600      	movs	r6, #0
 80062f4:	42a6      	cmp	r6, r4
 80062f6:	d109      	bne.n	800630c <__libc_init_array+0x24>
 80062f8:	4d0b      	ldr	r5, [pc, #44]	; (8006328 <__libc_init_array+0x40>)
 80062fa:	4c0c      	ldr	r4, [pc, #48]	; (800632c <__libc_init_array+0x44>)
 80062fc:	f000 f820 	bl	8006340 <_init>
 8006300:	1b64      	subs	r4, r4, r5
 8006302:	10a4      	asrs	r4, r4, #2
 8006304:	2600      	movs	r6, #0
 8006306:	42a6      	cmp	r6, r4
 8006308:	d105      	bne.n	8006316 <__libc_init_array+0x2e>
 800630a:	bd70      	pop	{r4, r5, r6, pc}
 800630c:	f855 3b04 	ldr.w	r3, [r5], #4
 8006310:	4798      	blx	r3
 8006312:	3601      	adds	r6, #1
 8006314:	e7ee      	b.n	80062f4 <__libc_init_array+0xc>
 8006316:	f855 3b04 	ldr.w	r3, [r5], #4
 800631a:	4798      	blx	r3
 800631c:	3601      	adds	r6, #1
 800631e:	e7f2      	b.n	8006306 <__libc_init_array+0x1e>
 8006320:	080063f0 	.word	0x080063f0
 8006324:	080063f0 	.word	0x080063f0
 8006328:	080063f0 	.word	0x080063f0
 800632c:	080063f4 	.word	0x080063f4

08006330 <memset>:
 8006330:	4402      	add	r2, r0
 8006332:	4603      	mov	r3, r0
 8006334:	4293      	cmp	r3, r2
 8006336:	d100      	bne.n	800633a <memset+0xa>
 8006338:	4770      	bx	lr
 800633a:	f803 1b01 	strb.w	r1, [r3], #1
 800633e:	e7f9      	b.n	8006334 <memset+0x4>

08006340 <_init>:
 8006340:	b5f8      	push	{r3, r4, r5, r6, r7, lr}
 8006342:	bf00      	nop
 8006344:	bcf8      	pop	{r3, r4, r5, r6, r7}
 8006346:	bc08      	pop	{r3}
 8006348:	469e      	mov	lr, r3
 800634a:	4770      	bx	lr

0800634c <_fini>:
 800634c:	b5f8      	push	{r3, r4, r5, r6, r7, lr}
 800634e:	bf00      	nop
 8006350:	bcf8      	pop	{r3, r4, r5, r6, r7}
 8006352:	bc08      	pop	{r3}
 8006354:	469e      	mov	lr, r3
 8006356:	4770      	bx	lr
